	.file	"benchy.c"
# GNU C17 (Ubuntu 10.3.0-1ubuntu1~20.04) version 10.3.0 (x86_64-linux-gnu)
#	compiled by GNU C version 10.3.0, GMP version 6.2.0, MPFR version 4.0.2, MPC version 1.1.0, isl version isl-0.22.1-GMP

# GGC heuristics: --param ggc-min-expand=100 --param ggc-min-heapsize=131072
# options passed:  -imultiarch x86_64-linux-gnu benchy.c -march=skylake
# -mmmx -mno-3dnow -msse -msse2 -msse3 -mssse3 -mno-sse4a -mcx16 -msahf
# -mmovbe -maes -mno-sha -mpclmul -mpopcnt -mabm -mno-lwp -mfma -mno-fma4
# -mno-xop -mbmi -msgx -mbmi2 -mno-pconfig -mno-wbnoinvd -mno-tbm -mavx
# -mavx2 -msse4.2 -msse4.1 -mlzcnt -mrtm -mhle -mrdrnd -mf16c -mfsgsbase
# -mrdseed -mprfchw -madx -mfxsr -mxsave -mxsaveopt -mno-avx512f
# -mno-avx512er -mno-avx512cd -mno-avx512pf -mno-prefetchwt1 -mclflushopt
# -mxsavec -mxsaves -mno-avx512dq -mno-avx512bw -mno-avx512vl
# -mno-avx512ifma -mno-avx512vbmi -mno-avx5124fmaps -mno-avx5124vnniw
# -mno-clwb -mno-mwaitx -mno-clzero -mno-pku -mno-rdpid -mno-gfni
# -mno-shstk -mno-avx512vbmi2 -mno-avx512vnni -mno-vaes -mno-vpclmulqdq
# -mno-avx512bitalg -mno-avx512vpopcntdq -mno-movdiri -mno-movdir64b
# -mno-waitpkg -mno-cldemote -mno-ptwrite -mno-avx512bf16 -mno-enqcmd
# -mno-avx512vp2intersect --param=l1-cache-size=32
# --param=l1-cache-line-size=64 --param=l2-cache-size=8192 -mtune=skylake
# -O3 -fverbose-asm -fasynchronous-unwind-tables -fstack-protector-strong
# -Wformat -Wformat-security -fstack-clash-protection -fcf-protection
# options enabled:  -fPIC -fPIE -faggressive-loop-optimizations
# -falign-functions -falign-jumps -falign-labels -falign-loops
# -fallocation-dce -fasynchronous-unwind-tables -fauto-inc-dec
# -fbranch-count-reg -fcaller-saves -fcode-hoisting
# -fcombine-stack-adjustments -fcompare-elim -fcprop-registers
# -fcrossjumping -fcse-follow-jumps -fdefer-pop
# -fdelete-null-pointer-checks -fdevirtualize -fdevirtualize-speculatively
# -fdwarf2-cfi-asm -fearly-inlining -feliminate-unused-debug-symbols
# -feliminate-unused-debug-types -fexpensive-optimizations
# -fforward-propagate -ffp-int-builtin-inexact -ffunction-cse -fgcse
# -fgcse-after-reload -fgcse-lm -fgnu-unique -fguess-branch-probability
# -fhoist-adjacent-loads -fident -fif-conversion -fif-conversion2
# -findirect-inlining -finline -finline-atomics -finline-functions
# -finline-functions-called-once -finline-small-functions -fipa-bit-cp
# -fipa-cp -fipa-cp-clone -fipa-icf -fipa-icf-functions -fipa-icf-variables
# -fipa-profile -fipa-pure-const -fipa-ra -fipa-reference
# -fipa-reference-addressable -fipa-sra -fipa-stack-alignment -fipa-vrp
# -fira-hoist-pressure -fira-share-save-slots -fira-share-spill-slots
# -fisolate-erroneous-paths-dereference -fivopts -fkeep-static-consts
# -fleading-underscore -flifetime-dse -floop-interchange
# -floop-unroll-and-jam -flra-remat -fmath-errno -fmerge-constants
# -fmerge-debug-strings -fmove-loop-invariants -fomit-frame-pointer
# -foptimize-sibling-calls -foptimize-strlen -fpartial-inlining
# -fpeel-loops -fpeephole -fpeephole2 -fplt -fpredictive-commoning
# -fprefetch-loop-arrays -free -freg-struct-return -freorder-blocks
# -freorder-blocks-and-partition -freorder-functions -frerun-cse-after-loop
# -fsched-critical-path-heuristic -fsched-dep-count-heuristic
# -fsched-group-heuristic -fsched-interblock -fsched-last-insn-heuristic
# -fsched-rank-heuristic -fsched-spec -fsched-spec-insn-heuristic
# -fsched-stalled-insns-dep -fschedule-fusion -fschedule-insns2
# -fsemantic-interposition -fshow-column -fshrink-wrap
# -fshrink-wrap-separate -fsigned-zeros -fsplit-ivs-in-unroller
# -fsplit-loops -fsplit-paths -fsplit-wide-types -fssa-backprop
# -fssa-phiopt -fstack-clash-protection -fstack-protector-strong
# -fstdarg-opt -fstore-merging -fstrict-aliasing
# -fstrict-volatile-bitfields -fsync-libcalls -fthread-jumps
# -ftoplevel-reorder -ftrapping-math -ftree-bit-ccp -ftree-builtin-call-dce
# -ftree-ccp -ftree-ch -ftree-coalesce-vars -ftree-copy-prop -ftree-cselim
# -ftree-dce -ftree-dominator-opts -ftree-dse -ftree-forwprop -ftree-fre
# -ftree-loop-distribute-patterns -ftree-loop-distribution
# -ftree-loop-if-convert -ftree-loop-im -ftree-loop-ivcanon
# -ftree-loop-optimize -ftree-loop-vectorize -ftree-parallelize-loops=
# -ftree-partial-pre -ftree-phiprop -ftree-pre -ftree-pta -ftree-reassoc
# -ftree-scev-cprop -ftree-sink -ftree-slp-vectorize -ftree-slsr -ftree-sra
# -ftree-switch-conversion -ftree-tail-merge -ftree-ter -ftree-vrp
# -funit-at-a-time -funswitch-loops -funwind-tables -fverbose-asm
# -fversion-loops-for-strides -fzero-initialized-in-bss
# -m128bit-long-double -m64 -m80387 -mabm -madx -maes -malign-stringops
# -mavx -mavx2 -mbmi -mbmi2 -mclflushopt -mcx16 -mf16c -mfancy-math-387
# -mfma -mfp-ret-in-387 -mfsgsbase -mfxsr -mglibc -mhle -mieee-fp
# -mlong-double-80 -mlzcnt -mmmx -mmovbe -mpclmul -mpopcnt -mprfchw
# -mpush-args -mrdrnd -mrdseed -mred-zone -mrtm -msahf -msgx -msse -msse2
# -msse3 -msse4 -msse4.1 -msse4.2 -mssse3 -mstv -mtls-direct-seg-refs
# -mvzeroupper -mxsave -mxsavec -mxsaveopt -mxsaves

	.text
	.p2align 4
	.globl	compare_ints
	.type	compare_ints, @function
compare_ints:
.LFB5706:
	.cfi_startproc
	endbr64	
# benchy.c:69:   return (*da > *db) - (*da < *db);
	movl	(%rsi), %eax	# MEM[(const int *)b_8(D)], tmp98
	cmpl	%eax, (%rdi)	# tmp98, MEM[(const int *)a_7(D)]
	setg	%al	#, tmp92
# benchy.c:69:   return (*da > *db) - (*da < *db);
	setl	%dl	#, tmp94
	movzbl	%dl, %edx	# tmp94, tmp94
# benchy.c:69:   return (*da > *db) - (*da < *db);
	movzbl	%al, %eax	# tmp92, tmp92
# benchy.c:69:   return (*da > *db) - (*da < *db);
	subl	%edx, %eax	# tmp94, tmp91
# benchy.c:70: }
	ret	
	.cfi_endproc
.LFE5706:
	.size	compare_ints, .-compare_ints
	.p2align 4
	.globl	qsort_h
	.type	qsort_h, @function
qsort_h:
.LFB5707:
	.cfi_startproc
	endbr64	
# benchy.c:72: void qsort_h(int* array, int low, int high) {
	movslq	%esi, %rax	# tmp98,
# benchy.c:73:   qsort(&array[low], high - low + 1, sizeof (int), compare_ints);
	subl	%eax, %edx	# low, tmp99
	movl	%edx, %esi	# tmp99, tmp91
# benchy.c:73:   qsort(&array[low], high - low + 1, sizeof (int), compare_ints);
	incl	%esi	# tmp92
# benchy.c:73:   qsort(&array[low], high - low + 1, sizeof (int), compare_ints);
	movslq	%esi, %rsi	# tmp92, tmp93
# benchy.c:73:   qsort(&array[low], high - low + 1, sizeof (int), compare_ints);
	leaq	(%rdi,%rax,4), %rdi	#, tmp96
# benchy.c:73:   qsort(&array[low], high - low + 1, sizeof (int), compare_ints);
	leaq	compare_ints(%rip), %rcx	#,
	movl	$4, %edx	#,
	jmp	qsort@PLT	#
	.cfi_endproc
.LFE5707:
	.size	qsort_h, .-qsort_h
	.section	.rodata.str1.1,"aMS",@progbits,1
.LC2:
	.string	"PAPI error %d: %s\n"
	.text
	.p2align 4
	.type	handle_error.part.0, @function
handle_error.part.0:
.LFB5717:
	.cfi_startproc
	pushq	%r12	#
	.cfi_def_cfa_offset 16
	.cfi_offset 12, -16
# benchy.c:76: void handle_error(int retval) {
	movl	%edi, %r12d	# tmp84, retval
# benchy.c:78:     printf("PAPI error %d: %s\n", retval, PAPI_strerror(retval));
	call	PAPI_strerror@PLT	#
	movq	%rax, %rcx	# tmp85, _2
# /usr/include/x86_64-linux-gnu/bits/stdio2.h:107:   return __printf_chk (__USE_FORTIFY_LEVEL - 1, __fmt, __va_arg_pack ());
	movl	$1, %edi	#,
	movl	%r12d, %edx	# retval,
	leaq	.LC2(%rip), %rsi	#,
	xorl	%eax, %eax	#
	call	__printf_chk@PLT	#
# benchy.c:79:     exit(1);
	movl	$1, %edi	#,
	call	exit@PLT	#
	.cfi_endproc
.LFE5717:
	.size	handle_error.part.0, .-handle_error.part.0
	.p2align 4
	.globl	random_data
	.type	random_data, @function
random_data:
.LFB41:
	.cfi_startproc
	endbr64	
	pushq	%rbp	#
	.cfi_def_cfa_offset 16
	.cfi_offset 6, -16
	movq	%rdi, %rbp	# tmp109, array
	pushq	%rbx	#
	.cfi_def_cfa_offset 24
	.cfi_offset 3, -24
	movl	%esi, %ebx	# tmp110, amount
	subq	$8, %rsp	#,
	.cfi_def_cfa_offset 32
# data-random.h:5:   srand(clock());
	call	clock@PLT	#
	movq	%rax, %rdi	# tmp111, _1
# data-random.h:5:   srand(clock());
	call	srand@PLT	#
# data-random.h:6:   for (int i = 0; i < amount; i++) {
	testl	%ebx, %ebx	# amount
	jle	.L10	#,
	leal	-1(%rbx), %eax	#, tmp97
	leaq	4(%rbp,%rax,4), %rbx	#, _29
	.p2align 4,,10
	.p2align 3
.L8:
# data-random.h:7:     array[i] = rand() % 100000; //i / 3;//i / 2; // 
	call	rand@PLT	#
	movl	%eax, %edx	# tmp112, _3
# data-random.h:7:     array[i] = rand() % 100000; //i / 3;//i / 2; // 
	cltq
	imulq	$351843721, %rax, %rax	#, _3, tmp101
	movl	%edx, %ecx	# _3, tmp104
	sarl	$31, %ecx	#, tmp104
	sarq	$45, %rax	#, tmp103
	subl	%ecx, %eax	# tmp104, tmp105
	imull	$100000, %eax, %eax	#, tmp105, tmp106
# data-random.h:6:   for (int i = 0; i < amount; i++) {
	addq	$4, %rbp	#, ivtmp.180
# data-random.h:7:     array[i] = rand() % 100000; //i / 3;//i / 2; // 
	subl	%eax, %edx	# tmp106, tmp108
	movl	%edx, -4(%rbp)	# tmp108, MEM[base: _8, offset: 0B]
# data-random.h:6:   for (int i = 0; i < amount; i++) {
	cmpq	%rbx, %rbp	# _29, ivtmp.180
	jne	.L8	#,
.L10:
# data-random.h:9: }
	addq	$8, %rsp	#,
	.cfi_def_cfa_offset 24
	popq	%rbx	#
	.cfi_def_cfa_offset 16
	popq	%rbp	#
	.cfi_def_cfa_offset 8
	ret	
	.cfi_endproc
.LFE41:
	.size	random_data, .-random_data
	.p2align 4
	.globl	fill_random
	.type	fill_random, @function
fill_random:
.LFB42:
	.cfi_startproc
	endbr64	
	pushq	%rbp	#
	.cfi_def_cfa_offset 16
	.cfi_offset 6, -16
	movl	%esi, %ebp	# tmp100, amount
	pushq	%rbx	#
	.cfi_def_cfa_offset 24
	.cfi_offset 3, -24
	movq	%rdi, %rbx	# tmp99, array
	movl	%edx, %edi	# tmp101, seed
	subq	$8, %rsp	#,
	.cfi_def_cfa_offset 32
# data-random.h:12:   srand(seed);
	call	srand@PLT	#
# data-random.h:13:   for (int i = 0; i < amount; i++) {
	testl	%ebp, %ebp	# amount
	jle	.L16	#,
	leal	-1(%rbp), %eax	#, tmp96
	leaq	4(%rbx,%rax,4), %rbp	#, _27
	.p2align 4,,10
	.p2align 3
.L14:
# data-random.h:14:     array[i] = rand();
	call	rand@PLT	#
# data-random.h:14:     array[i] = rand();
	movl	%eax, (%rbx)	# tmp102, MEM[base: _6, offset: 0B]
# data-random.h:13:   for (int i = 0; i < amount; i++) {
	addq	$4, %rbx	#, ivtmp.190
	cmpq	%rbp, %rbx	# _27, ivtmp.190
	jne	.L14	#,
.L16:
# data-random.h:16: }
	addq	$8, %rsp	#,
	.cfi_def_cfa_offset 24
	popq	%rbx	#
	.cfi_def_cfa_offset 16
	popq	%rbp	#
	.cfi_def_cfa_offset 8
	ret	
	.cfi_endproc
.LFE42:
	.size	fill_random, .-fill_random
	.p2align 4
	.globl	randomise
	.type	randomise, @function
randomise:
.LFB43:
	.cfi_startproc
	endbr64	
	pushq	%r13	#
	.cfi_def_cfa_offset 16
	.cfi_offset 13, -16
	movq	%rdi, %r13	# tmp120, array
# data-random.h:19:   srand(seed + 100);
	leal	100(%rcx), %edi	#, tmp108
# data-random.h:18: void randomise(int *array, int low, int high, float percentage, int seed) {
	pushq	%r12	#
	.cfi_def_cfa_offset 24
	.cfi_offset 12, -24
	movl	%esi, %r12d	# tmp121, low
	pushq	%rbp	#
	.cfi_def_cfa_offset 32
	.cfi_offset 6, -32
	movl	%edx, %ebp	# tmp122, high
	pushq	%rbx	#
	.cfi_def_cfa_offset 40
	.cfi_offset 3, -40
	subq	$24, %rsp	#,
	.cfi_def_cfa_offset 64
# data-random.h:18: void randomise(int *array, int low, int high, float percentage, int seed) {
	vmovss	%xmm0, 12(%rsp)	# tmp123, %sfp
# data-random.h:19:   srand(seed + 100);
	call	srand@PLT	#
# data-random.h:20:   for (int i = low; i < high; i++) {
	cmpl	%ebp, %r12d	# high, low
	jge	.L25	#,
	decl	%ebp	# tmp110
	movslq	%r12d, %rax	# low, _24
	subl	%r12d, %ebp	# low, tmp112
	addq	%rax, %rbp	# _24, tmp113
	leaq	0(%r13,%rax,4), %rbx	#, ivtmp.202
	leaq	4(%r13,%rbp,4), %rbp	#, _41
	jmp	.L22	#
	.p2align 4,,10
	.p2align 3
.L20:
# data-random.h:20:   for (int i = low; i < high; i++) {
	addq	$4, %rbx	#, ivtmp.202
	cmpq	%rbp, %rbx	# _41, ivtmp.202
	je	.L25	#,
.L22:
# data-random.h:21:     int should_regenerate = rand();
	call	rand@PLT	#
# data-random.h:22:     if (should_regenerate < (float)RAND_MAX * percentage) {
	vmovss	.LC3(%rip), %xmm3	#, tmp130
# data-random.h:22:     if (should_regenerate < (float)RAND_MAX * percentage) {
	vxorps	%xmm2, %xmm2, %xmm2	# tmp129
# data-random.h:22:     if (should_regenerate < (float)RAND_MAX * percentage) {
	vmulss	12(%rsp), %xmm3, %xmm1	# %sfp, tmp130, tmp117
# data-random.h:22:     if (should_regenerate < (float)RAND_MAX * percentage) {
	vcvtsi2ssl	%eax, %xmm2, %xmm0	# tmp125, tmp129, tmp128
# data-random.h:22:     if (should_regenerate < (float)RAND_MAX * percentage) {
	vcomiss	%xmm0, %xmm1	# tmp116, tmp117
	jbe	.L20	#,
# data-random.h:23:       array[i] = rand();
	call	rand@PLT	#
# data-random.h:23:       array[i] = rand();
	movl	%eax, (%rbx)	# tmp126, MEM[base: _42, offset: 0B]
# data-random.h:20:   for (int i = low; i < high; i++) {
	addq	$4, %rbx	#, ivtmp.202
	cmpq	%rbp, %rbx	# _41, ivtmp.202
	jne	.L22	#,
.L25:
# data-random.h:26: }
	addq	$24, %rsp	#,
	.cfi_def_cfa_offset 40
	popq	%rbx	#
	.cfi_def_cfa_offset 32
	popq	%rbp	#
	.cfi_def_cfa_offset 24
	popq	%r12	#
	.cfi_def_cfa_offset 16
	popq	%r13	#
	.cfi_def_cfa_offset 8
	ret	
	.cfi_endproc
.LFE43:
	.size	randomise, .-randomise
	.p2align 4
	.globl	insertionSort
	.type	insertionSort, @function
insertionSort:
.LFB44:
	.cfi_startproc
	endbr64	
# insertionssort.h:3: void insertionSort(int array[], int n) {
	movq	%rdi, %r11	# tmp102, array
# insertionssort.h:5:   for (i = 1; i < n; i++) {
	cmpl	$1, %esi	#, n
	jle	.L36	#,
	leaq	4(%rdi), %r8	#, ivtmp.223
	leal	-1(%rsi), %r10d	#, _59
	xorl	%r9d, %r9d	# ivtmp.220
	.p2align 4,,10
	.p2align 3
.L32:
	leaq	0(,%r9,4), %rax	#, tmp100
	leaq	-4(%r8), %rsi	#, tmp99
# insertionssort.h:6:     element = array[i];
	movl	(%r8), %edi	# MEM[base: _16, offset: 0B], element
	subq	%rax, %rsi	# tmp100, _41
	movq	%r8, %rax	# ivtmp.223, ivtmp.212
	.p2align 4,,10
	.p2align 3
.L29:
# insertionssort.h:9:     while (j >= 0 && array[j] > element) {
	movl	-4(%rax), %edx	# MEM[base: _51, offset: -4B], _11
	movq	%rax, %rcx	# ivtmp.212, _51
# insertionssort.h:9:     while (j >= 0 && array[j] > element) {
	cmpl	%edi, %edx	# element, _11
	jle	.L30	#,
# insertionssort.h:10:       array[j + 1] = array[j];
	movl	%edx, (%rax)	# _11, MEM[base: _51, offset: 0B]
# insertionssort.h:9:     while (j >= 0 && array[j] > element) {
	leaq	-4(%rcx), %rax	#, ivtmp.212
	cmpq	%rsi, %rax	# _41, ivtmp.212
	jne	.L29	#,
	movq	%r11, %rcx	# array, _51
.L30:
# insertionssort.h:5:   for (i = 1; i < n; i++) {
	incq	%r9	# ivtmp.220
# insertionssort.h:13:     array[j + 1] = element;
	movl	%edi, (%rcx)	# element, *prephitmp_75
# insertionssort.h:5:   for (i = 1; i < n; i++) {
	addq	$4, %r8	#, ivtmp.223
	cmpq	%r10, %r9	# _59, ivtmp.220
	jne	.L32	#,
.L36:
# insertionssort.h:15: }
	ret	
	.cfi_endproc
.LFE44:
	.size	insertionSort, .-insertionSort
	.p2align 4
	.globl	insertionSortOptimized
	.type	insertionSortOptimized, @function
insertionSortOptimized:
.LFB5719:
	.cfi_startproc
	endbr64	
	movq	%rdi, %r11	# tmp102, array
	cmpl	$1, %esi	#, n
	jle	.L46	#,
	leaq	4(%rdi), %r8	#, ivtmp.249
	leal	-1(%rsi), %r10d	#, _59
	xorl	%r9d, %r9d	# ivtmp.246
	.p2align 4,,10
	.p2align 3
.L42:
	leaq	0(,%r9,4), %rax	#, tmp100
	leaq	-4(%r8), %rsi	#, tmp99
	movl	(%r8), %edi	# MEM[base: _5, offset: 0B], element
	subq	%rax, %rsi	# tmp100, _41
	movq	%r8, %rax	# ivtmp.249, ivtmp.238
	.p2align 4,,10
	.p2align 3
.L39:
	movl	-4(%rax), %edx	# MEM[base: _51, offset: -4B], _15
	movq	%rax, %rcx	# ivtmp.238, _51
	cmpl	%edx, %edi	# _15, element
	jge	.L40	#,
	movl	%edx, (%rax)	# _15, MEM[base: _51, offset: 0B]
	leaq	-4(%rcx), %rax	#, ivtmp.238
	cmpq	%rsi, %rax	# _41, ivtmp.238
	jne	.L39	#,
	movq	%r11, %rcx	# array, _51
.L40:
	incq	%r9	# ivtmp.246
	movl	%edi, (%rcx)	# element, *prephitmp_75
	addq	$4, %r8	#, ivtmp.249
	cmpq	%r10, %r9	# _59, ivtmp.246
	jne	.L42	#,
.L46:
	ret	
	.cfi_endproc
.LFE5719:
	.size	insertionSortOptimized, .-insertionSortOptimized
	.p2align 4
	.globl	insertionSortStd
	.type	insertionSortStd, @function
insertionSortStd:
.LFB46:
	.cfi_startproc
	endbr64	
# insertionssort.h:34:   for (i = low + 1; i <= high; i++) {
	leal	1(%rsi), %eax	#, i
	movslq	%eax, %r8	# i, i
# insertionssort.h:31: void insertionSortStd(int array[], int low, int high) {
	movl	%edx, %r9d	# tmp105, high
	decq	%r8	# ivtmp.277
# insertionssort.h:34:   for (i = low + 1; i <= high; i++) {
	cmpl	%edx, %eax	# high, i
	jg	.L59	#,
	.p2align 4,,10
	.p2align 3
.L53:
# insertionssort.h:35:     element = array[i];
	movl	4(%rdi,%r8,4), %ecx	# MEM[base: array_24(D), index: ivtmp.277_54, step: 4, offset: 4B], element
	movslq	%esi, %rax	# ivtmp.276, ivtmp.265
# insertionssort.h:38:     while (j >= 0 && array[j] > element) {
	testl	%esi, %esi	# ivtmp.276
	jns	.L51	#,
	jmp	.L60	#
	.p2align 4,,10
	.p2align 3
.L52:
# insertionssort.h:39:       array[j + 1] = array[j];
	movl	%edx, 4(%rdi,%rax,4)	# _11, MEM[base: array_24(D), index: ivtmp.265_40, step: 4, offset: 4B]
	leal	-1(%rax), %edx	#, _60
# insertionssort.h:38:     while (j >= 0 && array[j] > element) {
	decq	%rax	# ivtmp.265
	cmpl	$-1, %eax	#, ivtmp.265
	je	.L61	#,
.L51:
# insertionssort.h:38:     while (j >= 0 && array[j] > element) {
	movl	(%rdi,%rax,4), %edx	# MEM[base: array_24(D), index: ivtmp.265_40, step: 4, offset: 0B], _11
# insertionssort.h:38:     while (j >= 0 && array[j] > element) {
	cmpl	%ecx, %edx	# element, _11
	jg	.L52	#,
# insertionssort.h:34:   for (i = low + 1; i <= high; i++) {
	incl	%esi	# ivtmp.276
# insertionssort.h:42:     array[j + 1] = element;
	movl	%ecx, 4(%rdi,%rax,4)	# element, *_15
# insertionssort.h:34:   for (i = low + 1; i <= high; i++) {
	incq	%r8	# ivtmp.277
	cmpl	%esi, %r9d	# ivtmp.276, high
	jne	.L53	#,
.L59:
# insertionssort.h:44: }
	ret	
	.p2align 4,,10
	.p2align 3
.L61:
# insertionssort.h:42:     array[j + 1] = element;
	movslq	%edx, %rax	# _60, ivtmp.265
# insertionssort.h:34:   for (i = low + 1; i <= high; i++) {
	incl	%esi	# ivtmp.276
# insertionssort.h:42:     array[j + 1] = element;
	movl	%ecx, 4(%rdi,%rax,4)	# element, *_15
# insertionssort.h:34:   for (i = low + 1; i <= high; i++) {
	incq	%r8	# ivtmp.277
	cmpl	%esi, %r9d	# ivtmp.276, high
	jne	.L53	#,
	jmp	.L59	#
.L60:
# insertionssort.h:38:     while (j >= 0 && array[j] > element) {
	movq	%r8, %rax	# ivtmp.277, ivtmp.265
# insertionssort.h:34:   for (i = low + 1; i <= high; i++) {
	incl	%esi	# ivtmp.276
# insertionssort.h:42:     array[j + 1] = element;
	movl	%ecx, 4(%rdi,%rax,4)	# element, *_15
# insertionssort.h:34:   for (i = low + 1; i <= high; i++) {
	incq	%r8	# ivtmp.277
	cmpl	%esi, %r9d	# ivtmp.276, high
	jne	.L53	#,
	jmp	.L59	#
	.cfi_endproc
.LFE46:
	.size	insertionSortStd, .-insertionSortStd
	.p2align 4
	.globl	insertionSortStdOpt
	.type	insertionSortStdOpt, @function
insertionSortStdOpt:
.LFB47:
	.cfi_startproc
	endbr64	
# insertionssort.h:34:   for (i = low + 1; i <= high; i++) {
	leal	1(%rsi), %eax	#, i
	movslq	%eax, %r8	# i, i
# insertionssort.h:46: void insertionSortStdOpt(int array[], int low, int high) {
	movl	%edx, %r9d	# tmp105, high
	decq	%r8	# ivtmp.301
# insertionssort.h:34:   for (i = low + 1; i <= high; i++) {
	cmpl	%eax, %edx	# i, high
	jl	.L74	#,
	.p2align 4,,10
	.p2align 3
.L68:
# insertionssort.h:35:     element = array[i];
	movl	4(%rdi,%r8,4), %ecx	# MEM[base: array_2(D), index: ivtmp.301_54, step: 4, offset: 4B], element
	movslq	%esi, %rax	# ivtmp.300, ivtmp.286
# insertionssort.h:38:     while (j >= 0 && array[j] > element) {
	testl	%esi, %esi	# ivtmp.300
	jns	.L66	#,
	jmp	.L75	#
	.p2align 4,,10
	.p2align 3
.L67:
# insertionssort.h:39:       array[j + 1] = array[j];
	movl	%edx, 4(%rdi,%rax,4)	# _17, MEM[base: array_2(D), index: ivtmp.286_40, step: 4, offset: 4B]
	leal	-1(%rax), %edx	#, _60
# insertionssort.h:38:     while (j >= 0 && array[j] > element) {
	decq	%rax	# ivtmp.286
	cmpl	$-1, %eax	#, ivtmp.286
	je	.L76	#,
.L66:
# insertionssort.h:38:     while (j >= 0 && array[j] > element) {
	movl	(%rdi,%rax,4), %edx	# MEM[base: array_2(D), index: ivtmp.286_40, step: 4, offset: 0B], _17
# insertionssort.h:38:     while (j >= 0 && array[j] > element) {
	cmpl	%edx, %ecx	# _17, element
	jl	.L67	#,
# insertionssort.h:34:   for (i = low + 1; i <= high; i++) {
	incl	%esi	# ivtmp.300
# insertionssort.h:42:     array[j + 1] = element;
	movl	%ecx, 4(%rdi,%rax,4)	# element, *_26
# insertionssort.h:34:   for (i = low + 1; i <= high; i++) {
	incq	%r8	# ivtmp.301
	cmpl	%esi, %r9d	# ivtmp.300, high
	jne	.L68	#,
.L74:
# insertionssort.h:178: }
	ret	
	.p2align 4,,10
	.p2align 3
.L76:
# insertionssort.h:42:     array[j + 1] = element;
	movslq	%edx, %rax	# _60, ivtmp.286
# insertionssort.h:34:   for (i = low + 1; i <= high; i++) {
	incl	%esi	# ivtmp.300
# insertionssort.h:42:     array[j + 1] = element;
	movl	%ecx, 4(%rdi,%rax,4)	# element, *_26
# insertionssort.h:34:   for (i = low + 1; i <= high; i++) {
	incq	%r8	# ivtmp.301
	cmpl	%esi, %r9d	# ivtmp.300, high
	jne	.L68	#,
	jmp	.L74	#
.L75:
# insertionssort.h:38:     while (j >= 0 && array[j] > element) {
	movq	%r8, %rax	# ivtmp.301, ivtmp.286
# insertionssort.h:34:   for (i = low + 1; i <= high; i++) {
	incl	%esi	# ivtmp.300
# insertionssort.h:42:     array[j + 1] = element;
	movl	%ecx, 4(%rdi,%rax,4)	# element, *_26
# insertionssort.h:34:   for (i = low + 1; i <= high; i++) {
	incq	%r8	# ivtmp.301
	cmpl	%esi, %r9d	# ivtmp.300, high
	jne	.L68	#,
	jmp	.L74	#
	.cfi_endproc
.LFE47:
	.size	insertionSortStdOpt, .-insertionSortStdOpt
	.p2align 4
	.globl	heapify
	.type	heapify, @function
heapify:
.LFB48:
	.cfi_startproc
	endbr64	
# heapsort.h:3: void heapify(int arr[], int n, int i) {
	movl	%esi, %r9d	# tmp117, n
	jmp	.L81	#
	.p2align 4,,10
	.p2align 3
.L86:
# heapsort.h:9:     if (l < n && arr[l] > arr[largest])
	movslq	%ecx, %r10	# l, l
	leaq	(%rdi,%r10,4), %rsi	#, _5
	movl	(%rsi), %r8d	# *_5, _6
# heapsort.h:9:     if (l < n && arr[l] > arr[largest])
	movslq	%edx, %r11	# i, i
# heapsort.h:9:     if (l < n && arr[l] > arr[largest])
	cmpl	(%rdi,%r11,4), %r8d	# *_9, _6
	jle	.L78	#,
# heapsort.h:13:     if (r < n && arr[r] > arr[largest])
	cmpl	%r9d, %eax	# n, r
	jl	.L82	#,
.L79:
# heapsort.h:17:     if (largest != i) {
	cmpl	%edx, %ecx	# i, l
	je	.L85	#,
# heapsort.h:18:         swap(&arr[i], &arr[largest]);
	movslq	%edx, %rdx	# i, i
# heapsort.h:18:         swap(&arr[i], &arr[largest]);
	leaq	(%rdi,%rdx,4), %rax	#, _24
# swap.h:2:   int t = *a;
	movl	(%rax), %edx	# *_24, t
# swap.h:3:   *a = *b;
	movl	%r8d, (%rax)	# _6, *_24
# swap.h:4:   *b = t;
	movl	%edx, (%rsi)	# t, *prephitmp_58
	movl	%ecx, %edx	# l, i
.L81:
# heapsort.h:5:     int l = 2 * i + 1; // left = 2*i + 1
	leal	(%rdx,%rdx), %eax	#, _1
# heapsort.h:5:     int l = 2 * i + 1; // left = 2*i + 1
	leal	1(%rax), %ecx	#, l
# heapsort.h:6:     int r = 2 * i + 2; // right = 2*i + 2
	addl	$2, %eax	#, r
# heapsort.h:9:     if (l < n && arr[l] > arr[largest])
	cmpl	%r9d, %ecx	# n, l
	jl	.L86	#,
.L78:
# heapsort.h:13:     if (r < n && arr[r] > arr[largest])
	cmpl	%r9d, %eax	# n, r
	jge	.L85	#,
	movl	%edx, %ecx	# i, l
	movslq	%edx, %r10	# i, l
.L82:
# heapsort.h:13:     if (r < n && arr[r] > arr[largest])
	movslq	%eax, %rsi	# r, r
	leaq	(%rdi,%rsi,4), %rsi	#, _5
# heapsort.h:13:     if (r < n && arr[r] > arr[largest])
	leaq	(%rdi,%r10,4), %r10	#, _17
# heapsort.h:13:     if (r < n && arr[r] > arr[largest])
	movl	(%rsi), %r8d	# *_13, _6
# heapsort.h:13:     if (r < n && arr[r] > arr[largest])
	movl	(%r10), %r11d	# *_17, _18
# heapsort.h:13:     if (r < n && arr[r] > arr[largest])
	cmpl	%r11d, %r8d	# _18, _6
	jg	.L83	#,
# heapsort.h:13:     if (r < n && arr[r] > arr[largest])
	movl	%r11d, %r8d	# _18, _6
	movq	%r10, %rsi	# _17, _5
	jmp	.L79	#
	.p2align 4,,10
	.p2align 3
.L83:
	movl	%eax, %ecx	# r, l
	jmp	.L79	#
	.p2align 4,,10
	.p2align 3
.L85:
# heapsort.h:23: }
	ret	
	.cfi_endproc
.LFE48:
	.size	heapify, .-heapify
	.p2align 4
	.globl	heapsort_h
	.type	heapsort_h, @function
heapsort_h:
.LFB49:
	.cfi_startproc
	endbr64	
	pushq	%rbp	#
	.cfi_def_cfa_offset 16
	.cfi_offset 6, -16
# heapsort.h:27:     for (int i = n / 2 - 1; i >= 0; i--)
	movl	%esi, %ebp	# n, tmp93
	shrl	$31, %ebp	#, tmp93
	addl	%esi, %ebp	# n, tmp94
	sarl	%ebp	# tmp95
# heapsort.h:25: void heapsort_h(int array[], int n) {
	pushq	%rbx	#
	.cfi_def_cfa_offset 24
	.cfi_offset 3, -24
# heapsort.h:25: void heapsort_h(int array[], int n) {
	movl	%esi, %ebx	# tmp97, n
# heapsort.h:27:     for (int i = n / 2 - 1; i >= 0; i--)
	decl	%ebp	# i
	js	.L88	#,
	.p2align 4,,10
	.p2align 3
.L89:
# heapsort.h:28:         heapify(array, n, i);
	movl	%ebp, %edx	# i,
	movl	%ebx, %esi	# n,
	call	heapify	#
# heapsort.h:27:     for (int i = n / 2 - 1; i >= 0; i--)
	subl	$1, %ebp	#, i
	jnb	.L89	#,
.L88:
# heapsort.h:31:     for (int i = n - 1; i >= 0; i--) {
	decl	%ebx	# i
	js	.L94	#,
	movslq	%ebx, %rbx	# i, ivtmp.315
	.p2align 4,,10
	.p2align 3
.L91:
# swap.h:3:   *a = *b;
	movl	(%rdi,%rbx,4), %edx	# MEM[base: array_13(D), index: ivtmp.315_31, step: 4, offset: 0B], _19
# swap.h:2:   int t = *a;
	movl	(%rdi), %eax	# *array_13(D), t
# swap.h:3:   *a = *b;
	movl	%edx, (%rdi)	# _19, *array_13(D)
# swap.h:4:   *b = t;
	movl	%eax, (%rdi,%rbx,4)	# t, MEM[base: array_13(D), index: ivtmp.315_31, step: 4, offset: 0B]
# heapsort.h:36:         heapify(array, i, 0);
	movl	%ebx, %esi	# ivtmp.315,
	xorl	%edx, %edx	#
# heapsort.h:31:     for (int i = n - 1; i >= 0; i--) {
	decq	%rbx	# ivtmp.315
# heapsort.h:36:         heapify(array, i, 0);
	call	heapify	#
# heapsort.h:31:     for (int i = n - 1; i >= 0; i--) {
	testl	%ebx, %ebx	# ivtmp.315
	jns	.L91	#,
.L94:
# heapsort.h:38: }
	popq	%rbx	#
	.cfi_def_cfa_offset 16
	popq	%rbp	#
	.cfi_def_cfa_offset 8
	ret	
	.cfi_endproc
.LFE49:
	.size	heapsort_h, .-heapsort_h
	.p2align 4
	.globl	heapsort
	.type	heapsort, @function
heapsort:
.LFB50:
	.cfi_startproc
	endbr64	
	pushq	%r12	#
	.cfi_def_cfa_offset 16
	.cfi_offset 12, -16
# heapsort.h:41:     heapsort_h(&array[low], high - low + 1);
	subl	%esi, %edx	# low, tmp105
# heapsort.h:41:     heapsort_h(&array[low], high - low + 1);
	movslq	%esi, %rsi	# low, low
# heapsort.h:40: void heapsort(int array[], int low, int high) {
	pushq	%rbp	#
	.cfi_def_cfa_offset 24
	.cfi_offset 6, -24
# heapsort.h:41:     heapsort_h(&array[low], high - low + 1);
	leaq	(%rdi,%rsi,4), %rdi	#, _5
# heapsort.h:40: void heapsort(int array[], int low, int high) {
	pushq	%rbx	#
	.cfi_def_cfa_offset 32
	.cfi_offset 3, -32
# heapsort.h:41:     heapsort_h(&array[low], high - low + 1);
	movslq	%edx, %rbx	# tmp105,
# heapsort.h:41:     heapsort_h(&array[low], high - low + 1);
	leal	1(%rbx), %r12d	#, _2
# heapsort.h:27:     for (int i = n / 2 - 1; i >= 0; i--)
	movl	%r12d, %ebp	# _2, tmp100
	shrl	$31, %ebp	#, tmp100
	addl	%r12d, %ebp	# _2, tmp101
	sarl	%ebp	# tmp102
# heapsort.h:27:     for (int i = n / 2 - 1; i >= 0; i--)
	decl	%ebp	# i
	js	.L105	#,
	.p2align 4,,10
	.p2align 3
.L98:
# heapsort.h:28:         heapify(array, n, i);
	movl	%ebp, %edx	# i,
	movl	%r12d, %esi	# _2,
	call	heapify	#
# heapsort.h:27:     for (int i = n / 2 - 1; i >= 0; i--)
	subl	$1, %ebp	#, i
	jnb	.L98	#,
# heapsort.h:31:     for (int i = n - 1; i >= 0; i--) {
	testl	%ebx, %ebx	# ivtmp.335
	js	.L106	#,
	.p2align 4,,10
	.p2align 3
.L100:
# swap.h:3:   *a = *b;
	movl	(%rdi,%rbx,4), %edx	# MEM[base: _5, index: ivtmp.335_36, step: 4, offset: 0B], _21
# swap.h:2:   int t = *a;
	movl	(%rdi), %eax	# *_5, t
# swap.h:3:   *a = *b;
	movl	%edx, (%rdi)	# _21, *_5
# swap.h:4:   *b = t;
	movl	%eax, (%rdi,%rbx,4)	# t, MEM[base: _5, index: ivtmp.335_36, step: 4, offset: 0B]
# heapsort.h:36:         heapify(array, i, 0);
	movl	%ebx, %esi	# ivtmp.335,
	xorl	%edx, %edx	#
	call	heapify	#
# heapsort.h:31:     for (int i = n - 1; i >= 0; i--) {
	decq	%rbx	# ivtmp.335
.L105:
	testl	%ebx, %ebx	# ivtmp.335
	jns	.L100	#,
.L106:
# heapsort.h:42: }
	popq	%rbx	#
	.cfi_def_cfa_offset 24
	popq	%rbp	#
	.cfi_def_cfa_offset 16
	popq	%r12	#
	.cfi_def_cfa_offset 8
	ret	
	.cfi_endproc
.LFE50:
	.size	heapsort, .-heapsort
	.p2align 4
	.globl	heapifyo
	.type	heapifyo, @function
heapifyo:
.LFB51:
	.cfi_startproc
	endbr64	
# heapsorto.h:3: void heapifyo(int arr[], int n, int i) {
	movl	%esi, %r9d	# tmp117, n
	jmp	.L111	#
	.p2align 4,,10
	.p2align 3
.L116:
# heapsorto.h:9:     int c = l < n && arr[l] > arr[largest];
	movslq	%ecx, %r10	# l, l
	leaq	(%rdi,%r10,4), %rsi	#, _5
	movl	(%rsi), %r8d	# *_5, _6
# heapsorto.h:9:     int c = l < n && arr[l] > arr[largest];
	movslq	%edx, %r11	# i, i
# heapsorto.h:9:     int c = l < n && arr[l] > arr[largest];
	cmpl	(%rdi,%r11,4), %r8d	# *_9, _6
	jle	.L108	#,
# heapsorto.h:13:     c = r < n && arr[r] > arr[largest];
	cmpl	%r9d, %eax	# n, r
	jl	.L112	#,
.L109:
# heapsorto.h:17:     if (largest != i) {
	cmpl	%edx, %ecx	# i, l
	je	.L115	#,
# heapsorto.h:18:         swap(&arr[i], &arr[largest]);
	movslq	%edx, %rdx	# i, i
# heapsorto.h:18:         swap(&arr[i], &arr[largest]);
	leaq	(%rdi,%rdx,4), %rax	#, _24
# swap.h:2:   int t = *a;
	movl	(%rax), %edx	# *_24, t
# swap.h:3:   *a = *b;
	movl	%r8d, (%rax)	# _6, *_24
# swap.h:4:   *b = t;
	movl	%edx, (%rsi)	# t, *prephitmp_58
	movl	%ecx, %edx	# l, i
.L111:
# heapsorto.h:5:     int l = 2 * i + 1; // left = 2*i + 1
	leal	(%rdx,%rdx), %eax	#, _1
# heapsorto.h:5:     int l = 2 * i + 1; // left = 2*i + 1
	leal	1(%rax), %ecx	#, l
# heapsorto.h:6:     int r = 2 * i + 2; // right = 2*i + 2
	addl	$2, %eax	#, r
# heapsorto.h:9:     int c = l < n && arr[l] > arr[largest];
	cmpl	%r9d, %ecx	# n, l
	jl	.L116	#,
.L108:
# heapsorto.h:13:     c = r < n && arr[r] > arr[largest];
	cmpl	%r9d, %eax	# n, r
	jge	.L115	#,
	movl	%edx, %ecx	# i, l
	movslq	%edx, %r10	# i, l
.L112:
# heapsorto.h:13:     c = r < n && arr[r] > arr[largest];
	movslq	%eax, %rsi	# r, r
	leaq	(%rdi,%rsi,4), %rsi	#, _5
# heapsorto.h:13:     c = r < n && arr[r] > arr[largest];
	leaq	(%rdi,%r10,4), %r10	#, _17
# heapsorto.h:13:     c = r < n && arr[r] > arr[largest];
	movl	(%rsi), %r8d	# *_13, _6
# heapsorto.h:13:     c = r < n && arr[r] > arr[largest];
	movl	(%r10), %r11d	# *_17, _18
# heapsorto.h:13:     c = r < n && arr[r] > arr[largest];
	cmpl	%r11d, %r8d	# _18, _6
	jg	.L113	#,
# heapsorto.h:13:     c = r < n && arr[r] > arr[largest];
	movl	%r11d, %r8d	# _18, _6
	movq	%r10, %rsi	# _17, _5
	jmp	.L109	#
	.p2align 4,,10
	.p2align 3
.L113:
	movl	%eax, %ecx	# r, l
	jmp	.L109	#
	.p2align 4,,10
	.p2align 3
.L115:
# heapsorto.h:23: }
	ret	
	.cfi_endproc
.LFE51:
	.size	heapifyo, .-heapifyo
	.p2align 4
	.globl	heapsorto_h
	.type	heapsorto_h, @function
heapsorto_h:
.LFB52:
	.cfi_startproc
	endbr64	
	pushq	%rbp	#
	.cfi_def_cfa_offset 16
	.cfi_offset 6, -16
# heapsorto.h:29:     for (int i = n / 2 - 1; i >= 0; i--)
	movl	%esi, %ebp	# n, tmp95
	shrl	$31, %ebp	#, tmp95
	addl	%esi, %ebp	# n, tmp96
	sarl	%ebp	# tmp97
# heapsorto.h:27: void heapsorto_h(int array[], int n) {
	pushq	%rbx	#
	.cfi_def_cfa_offset 24
	.cfi_offset 3, -24
# heapsorto.h:27: void heapsorto_h(int array[], int n) {
	movl	%esi, %ebx	# tmp99, n
# heapsorto.h:29:     for (int i = n / 2 - 1; i >= 0; i--)
	decl	%ebp	# i
	js	.L118	#,
	.p2align 4,,10
	.p2align 3
.L119:
# heapsorto.h:30:         heapifyo(array, n, i);
	movl	%ebp, %edx	# i,
	movl	%ebx, %esi	# n,
	call	heapifyo	#
# heapsorto.h:29:     for (int i = n / 2 - 1; i >= 0; i--)
	subl	$1, %ebp	#, i
	jnb	.L119	#,
.L118:
# heapsorto.h:33:     count++;
	incl	count(%rip)	# count
# heapsorto.h:34:     for (int i = n - 1; i >= 0; i--) {
	decl	%ebx	# i
	js	.L124	#,
	movslq	%ebx, %rbx	# i, ivtmp.357
	.p2align 4,,10
	.p2align 3
.L121:
# swap.h:3:   *a = *b;
	movl	(%rdi,%rbx,4), %edx	# MEM[base: array_16(D), index: ivtmp.357_34, step: 4, offset: 0B], _22
# swap.h:2:   int t = *a;
	movl	(%rdi), %eax	# *array_16(D), t
# swap.h:3:   *a = *b;
	movl	%edx, (%rdi)	# _22, *array_16(D)
# swap.h:4:   *b = t;
	movl	%eax, (%rdi,%rbx,4)	# t, MEM[base: array_16(D), index: ivtmp.357_34, step: 4, offset: 0B]
# heapsorto.h:39:         heapifyo(array, i, 0);
	movl	%ebx, %esi	# ivtmp.357,
	xorl	%edx, %edx	#
# heapsorto.h:34:     for (int i = n - 1; i >= 0; i--) {
	decq	%rbx	# ivtmp.357
# heapsorto.h:39:         heapifyo(array, i, 0);
	call	heapifyo	#
# heapsorto.h:34:     for (int i = n - 1; i >= 0; i--) {
	testl	%ebx, %ebx	# ivtmp.357
	jns	.L121	#,
.L124:
# heapsorto.h:41: }
	popq	%rbx	#
	.cfi_def_cfa_offset 16
	popq	%rbp	#
	.cfi_def_cfa_offset 8
	ret	
	.cfi_endproc
.LFE52:
	.size	heapsorto_h, .-heapsorto_h
	.p2align 4
	.globl	heapsorto
	.type	heapsorto, @function
heapsorto:
.LFB53:
	.cfi_startproc
	endbr64	
	pushq	%r12	#
	.cfi_def_cfa_offset 16
	.cfi_offset 12, -16
# heapsorto.h:44:     heapsorto_h(&array[low], high - low + 1);
	subl	%esi, %edx	# low, tmp107
# heapsorto.h:44:     heapsorto_h(&array[low], high - low + 1);
	movslq	%esi, %rsi	# low, low
# heapsorto.h:43: void heapsorto(int array[], int low, int high) {
	pushq	%rbp	#
	.cfi_def_cfa_offset 24
	.cfi_offset 6, -24
# heapsorto.h:44:     heapsorto_h(&array[low], high - low + 1);
	leaq	(%rdi,%rsi,4), %rdi	#, _5
# heapsorto.h:43: void heapsorto(int array[], int low, int high) {
	pushq	%rbx	#
	.cfi_def_cfa_offset 32
	.cfi_offset 3, -32
# heapsorto.h:44:     heapsorto_h(&array[low], high - low + 1);
	movslq	%edx, %rbx	# tmp107,
# heapsorto.h:44:     heapsorto_h(&array[low], high - low + 1);
	leal	1(%rbx), %r12d	#, _2
# heapsorto.h:29:     for (int i = n / 2 - 1; i >= 0; i--)
	movl	%r12d, %ebp	# _2, tmp102
	shrl	$31, %ebp	#, tmp102
	addl	%r12d, %ebp	# _2, tmp103
	sarl	%ebp	# tmp104
# heapsorto.h:29:     for (int i = n / 2 - 1; i >= 0; i--)
	decl	%ebp	# i
	js	.L127	#,
	.p2align 4,,10
	.p2align 3
.L128:
# heapsorto.h:30:         heapifyo(array, n, i);
	movl	%ebp, %edx	# i,
	movl	%r12d, %esi	# _2,
	call	heapifyo	#
# heapsorto.h:29:     for (int i = n / 2 - 1; i >= 0; i--)
	subl	$1, %ebp	#, i
	jnb	.L128	#,
.L127:
# heapsorto.h:33:     count++;
	incl	count(%rip)	# count
# heapsorto.h:34:     for (int i = n - 1; i >= 0; i--) {
	testl	%ebx, %ebx	# _1
	js	.L133	#,
	.p2align 4,,10
	.p2align 3
.L130:
# swap.h:3:   *a = *b;
	movl	(%rdi,%rbx,4), %edx	# MEM[base: _5, index: ivtmp.377_39, step: 4, offset: 0B], _23
# swap.h:2:   int t = *a;
	movl	(%rdi), %eax	# *_5, t
# swap.h:3:   *a = *b;
	movl	%edx, (%rdi)	# _23, *_5
# swap.h:4:   *b = t;
	movl	%eax, (%rdi,%rbx,4)	# t, MEM[base: _5, index: ivtmp.377_39, step: 4, offset: 0B]
# heapsorto.h:39:         heapifyo(array, i, 0);
	movl	%ebx, %esi	# ivtmp.377,
	xorl	%edx, %edx	#
# heapsorto.h:34:     for (int i = n - 1; i >= 0; i--) {
	decq	%rbx	# ivtmp.377
# heapsorto.h:39:         heapifyo(array, i, 0);
	call	heapifyo	#
# heapsorto.h:34:     for (int i = n - 1; i >= 0; i--) {
	testl	%ebx, %ebx	# ivtmp.377
	jns	.L130	#,
.L133:
# heapsorto.h:45: }
	popq	%rbx	#
	.cfi_def_cfa_offset 24
	popq	%rbp	#
	.cfi_def_cfa_offset 16
	popq	%r12	#
	.cfi_def_cfa_offset 8
	ret	
	.cfi_endproc
.LFE53:
	.size	heapsorto, .-heapsorto
	.p2align 4
	.globl	sort_indexes
	.type	sort_indexes, @function
sort_indexes:
.LFB54:
	.cfi_startproc
	endbr64	
# median.h:6:   int y = *i2;
	movslq	(%rdx), %r8	# *i2_14(D),
# median.h:5:   int x = *i1;
	movslq	(%rsi), %r9	# *i1_12(D),
# median.h:8:   *i1 = c ? x : y;
	movl	(%rdi,%r8,4), %r10d	# *_7, tmp108
# median.h:5:   int x = *i1;
	movq	%r9, %rcx	#,
# median.h:6:   int y = *i2;
	movq	%r8, %rax	#,
# median.h:8:   *i1 = c ? x : y;
	cmpl	%r10d, (%rdi,%r9,4)	# tmp108, *_3
	jle	.L136	#,
# median.h:9:   *i2 = c ? y : x;
	movl	%r9d, %eax	# x, y
# median.h:8:   *i1 = c ? x : y;
	movl	%r8d, %ecx	# y, x
.L136:
	movl	%ecx, (%rsi)	# x, *i1_12(D)
# median.h:9:   *i2 = c ? y : x;
	movl	%eax, (%rdx)	# y, *i2_14(D)
# median.h:10: }
	ret	
	.cfi_endproc
.LFE54:
	.size	sort_indexes, .-sort_indexes
	.p2align 4
	.globl	median_of_three
	.type	median_of_three, @function
median_of_three:
.LFB55:
	.cfi_startproc
	endbr64	
# median.h:14:     return array[high];
	movslq	%edx, %rax	# high, high
	leaq	(%rdi,%rax,4), %r9	#, _32
	movl	(%r9), %ecx	# *_32, pretmp_31
# median.h:13:   if (high - low < 2) {
	movl	%edx, %r8d	# high, tmp104
	subl	%esi, %r8d	# low, tmp104
# median.h:14:     return array[high];
	movl	%ecx, %eax	# pretmp_31, <retval>
# median.h:13:   if (high - low < 2) {
	cmpl	$1, %r8d	#, tmp104
	jle	.L137	#,
# median.h:18:   int m = (low + high) / 2;
	addl	%esi, %edx	# low, tmp107
# median.h:7:   int c = array[*i1] <= array[*i2];
	movslq	%esi, %rax	# low, low
# median.h:18:   int m = (low + high) / 2;
	movl	%edx, %esi	# tmp107, tmp109
	shrl	$31, %esi	#, tmp109
	addl	%esi, %edx	# tmp109, tmp110
	sarl	%edx	# tmp111
# median.h:7:   int c = array[*i1] <= array[*i2];
	movslq	%edx, %rdx	# tmp111, tmp112
# median.h:7:   int c = array[*i1] <= array[*i2];
	leaq	(%rdi,%rax,4), %r8	#, prephitmp_54
# median.h:7:   int c = array[*i1] <= array[*i2];
	leaq	(%rdi,%rdx,4), %rsi	#, _42
# median.h:7:   int c = array[*i1] <= array[*i2];
	movl	(%r8), %eax	# *_38, <retval>
# median.h:7:   int c = array[*i1] <= array[*i2];
	movl	(%rsi), %edx	# *_42, _43
# median.h:8:   *i1 = c ? x : y;
	cmpl	%edx, %eax	# _43, <retval>
	jg	.L145	#,
	cmpl	%edx, %ecx	# _43, pretmp_31
	jge	.L143	#,
.L147:
# median.h:9:   *i2 = c ? y : x;
	cmpl	%eax, %ecx	# <retval>, pretmp_31
	jge	.L146	#,
.L140:
# swap.h:3:   *a = *b;
	movl	%ecx, (%r8)	# pretmp_31, *prephitmp_58
# swap.h:4:   *b = t;
	movl	%eax, (%r9)	# <retval>, *_32
# median.h:27:   return array[high];
	ret	
	.p2align 4,,10
	.p2align 3
.L137:
# median.h:28: }
	ret	
	.p2align 4,,10
	.p2align 3
.L143:
# median.h:8:   *i1 = c ? x : y;
	movl	%edx, %eax	# _43, <retval>
	movq	%rsi, %r8	# _42, prephitmp_54
# swap.h:3:   *a = *b;
	movl	%ecx, (%r8)	# pretmp_31, *prephitmp_58
# swap.h:4:   *b = t;
	movl	%eax, (%r9)	# <retval>, *_32
# median.h:27:   return array[high];
	ret	
	.p2align 4,,10
	.p2align 3
.L145:
# median.h:8:   *i1 = c ? x : y;
	movl	%edx, %edi	# _43, _43
	movl	%eax, %edx	# <retval>, _43
	movl	%edi, %eax	# _43, <retval>
	movq	%rsi, %rdi	# _42, _42
	movq	%r8, %rsi	# prephitmp_54, _42
	movq	%rdi, %r8	# _42, prephitmp_54
	cmpl	%edx, %ecx	# _43, pretmp_31
	jge	.L143	#,
	jmp	.L147	#
.L146:
# median.h:9:   *i2 = c ? y : x;
	movl	%ecx, %eax	# pretmp_31, <retval>
	movq	%r9, %r8	# _32, prephitmp_54
	jmp	.L140	#
	.cfi_endproc
.LFE55:
	.size	median_of_three, .-median_of_three
	.p2align 4
	.globl	sort_pair
	.type	sort_pair, @function
sort_pair:
.LFB56:
	.cfi_startproc
	endbr64	
# median.h:31:   int x = *i1;
	vmovd	(%rdi), %xmm0	# *i1_3(D), tmp92
# median.h:32:   int y = *i2;
	vmovd	(%rsi), %xmm1	# *i2_5(D), tmp93
# median.h:34:   *i1 = c ? x : y;
	vpminsd	%xmm1, %xmm0, %xmm2	# y, x, tmp88
# median.h:35:   *i2 = c ? y : x;
	vpmaxsd	%xmm1, %xmm0, %xmm0	# y, x, tmp89
# median.h:34:   *i1 = c ? x : y;
	vmovd	%xmm2, (%rdi)	# tmp88, *i1_3(D)
# median.h:35:   *i2 = c ? y : x;
	vmovd	%xmm0, (%rsi)	# tmp89, *i2_5(D)
# median.h:36: }
	ret	
	.cfi_endproc
.LFE56:
	.size	sort_pair, .-sort_pair
	.p2align 4
	.globl	median_of_three_auto_finish
	.type	median_of_three_auto_finish, @function
median_of_three_auto_finish:
.LFB57:
	.cfi_startproc
	endbr64	
# median.h:41:     sort_pair(&array[low], &array[high]);
	movslq	%esi, %rax	# low, low
# median.h:39:   if (high - low == 1) {
	movl	%edx, %r9d	# high, _1
# median.h:38: int median_of_three_auto_finish(int array[], int low, int high, int *done) {
	movq	%rcx, %r8	# tmp126, done
# median.h:39:   if (high - low == 1) {
	subl	%esi, %r9d	# low, _1
# median.h:41:     sort_pair(&array[low], &array[high]);
	leaq	(%rdi,%rax,4), %rcx	#, _15
# median.h:41:     sort_pair(&array[low], &array[high]);
	movslq	%edx, %rax	# high, high
# median.h:41:     sort_pair(&array[low], &array[high]);
	leaq	(%rdi,%rax,4), %rax	#, _54
# median.h:39:   if (high - low == 1) {
	cmpl	$1, %r9d	#, _1
	je	.L153	#,
# median.h:45:   int mid = (low + high) / 2;
	addl	%esi, %edx	# low, tmp115
# median.h:45:   int mid = (low + high) / 2;
	movl	%edx, %esi	# tmp115, tmp117
	shrl	$31, %esi	#, tmp117
	addl	%esi, %edx	# tmp117, tmp118
	sarl	%edx	# mid
# median.h:47:   int y = array[mid];
	movslq	%edx, %rdx	# mid, mid
# median.h:46:   int x = array[low];
	vmovd	(%rcx), %xmm0	# *_15, tmp131
# median.h:47:   int y = array[mid];
	leaq	(%rdi,%rdx,4), %rdx	#, _9
# median.h:46:   int x = array[low];
	vmovdqa	%xmm0, %xmm1	# tmp131, _6
# median.h:47:   int y = array[mid];
	vmovd	(%rdx), %xmm0	# *_9, tmp132
	vpminsd	%xmm0, %xmm1, %xmm3	# _10, _6, iftmp.16_36
# median.h:48:   int z = array[high];
	vmovd	(%rax), %xmm2	# *_54, tmp133
	vpmaxsd	%xmm0, %xmm1, %xmm0	# _10, _6, iftmp.17_37
	vpminsd	%xmm0, %xmm2, %xmm1	# iftmp.17_37, _14, iftmp.16_34
	vpmaxsd	%xmm0, %xmm2, %xmm0	# iftmp.17_37, _14, iftmp.17_35
	vpminsd	%xmm3, %xmm1, %xmm2	# iftmp.16_36, iftmp.16_34, iftmp.16_32
	vpmaxsd	%xmm3, %xmm1, %xmm1	# iftmp.16_36, iftmp.16_34, tmp130
	vmovd	%xmm1, %r10d	# tmp130, <retval>
# median.h:54:   if (high - low == 2) {
	cmpl	$2, %r9d	#, _1
	je	.L154	#,
# median.h:62:   array[low] = x;
	vmovd	%xmm2, (%rcx)	# iftmp.16_32, *_15
# median.h:63:   array[high] = y;
	vmovd	%xmm1, (%rax)	# tmp130, *_54
# median.h:64:   array[mid] = z;
	vmovd	%xmm0, (%rdx)	# iftmp.17_35, *_9
# median.h:67: }
	movl	%r10d, %eax	# <retval>,
	ret	
	.p2align 4,,10
	.p2align 3
.L153:
# median.h:40:     *done = true;
	movl	$1, (%r8)	#, *done_27(D)
# median.h:31:   int x = *i1;
	vmovd	(%rcx), %xmm0	# *_15, tmp128
	vmovdqa	%xmm0, %xmm1	# tmp128, x
# median.h:32:   int y = *i2;
	vmovd	(%rax), %xmm0	# *_54, tmp129
# median.h:34:   *i1 = c ? x : y;
	vpminsd	%xmm0, %xmm1, %xmm2	# y, x, tmp114
	vpmaxsd	%xmm0, %xmm1, %xmm0	# y, x, tmp127
	vmovd	%xmm0, %r10d	# tmp127, <retval>
	vmovd	%xmm2, (%rcx)	# tmp114, *_15
# median.h:35:   *i2 = c ? y : x;
	vmovd	%xmm0, (%rax)	# tmp127, *_54
# median.h:67: }
	movl	%r10d, %eax	# <retval>,
	ret	
	.p2align 4,,10
	.p2align 3
.L154:
# median.h:55:     *done = true;
	movl	$1, (%r8)	#, *done_27(D)
# median.h:56:     array[low] = x;
	vmovd	%xmm2, (%rcx)	# iftmp.16_32, *_15
# median.h:57:     array[mid] = y;
	vmovd	%xmm1, (%rdx)	# tmp130, *_9
# median.h:58:     array[high] = z;
	vmovd	%xmm0, (%rax)	# iftmp.17_35, *_54
# median.h:67: }
	movl	%r10d, %eax	# <retval>,
	ret	
	.cfi_endproc
.LFE57:
	.size	median_of_three_auto_finish, .-median_of_three_auto_finish
	.p2align 4
	.globl	median_of_three_stable
	.type	median_of_three_stable, @function
median_of_three_stable:
.LFB58:
	.cfi_startproc
	endbr64	
# median.h:70:   if (high - low > 2) {
	movl	%edx, %ecx	# high, _1
# median.h:7:   int c = array[*i1] <= array[*i2];
	movslq	%edx, %rax	# high, high
# median.h:70:   if (high - low > 2) {
	subl	%esi, %ecx	# low, _1
# median.h:7:   int c = array[*i1] <= array[*i2];
	leaq	(%rdi,%rax,4), %r8	#, _105
# median.h:70:   if (high - low > 2) {
	cmpl	$2, %ecx	#, _1
	jg	.L162	#,
# median.h:88:   } if (high - low == 2) {
	je	.L163	#,
# median.h:7:   int c = array[*i1] <= array[*i2];
	vmovd	(%r8), %xmm0	# *_105, tmp160
	vmovd	%xmm0, %eax	# tmp159, <retval>
# median.h:94:   } else if (high - low == 1) {
	cmpl	$1, %ecx	#, _1
	je	.L164	#,
# median.h:100: }
	ret	
	.p2align 4,,10
	.p2align 3
.L162:
# median.h:82:     int mid = (low + high) / 2;
	addl	%esi, %edx	# low, tmp125
# median.h:7:   int c = array[*i1] <= array[*i2];
	movslq	%esi, %rax	# low, low
# median.h:82:     int mid = (low + high) / 2;
	movl	%edx, %esi	# tmp125, tmp127
	shrl	$31, %esi	#, tmp127
	addl	%esi, %edx	# tmp127, tmp128
	sarl	%edx	# tmp129
# median.h:7:   int c = array[*i1] <= array[*i2];
	movslq	%edx, %rdx	# tmp129, tmp130
# median.h:7:   int c = array[*i1] <= array[*i2];
	movl	(%rdi,%rax,4), %ecx	# *_44, _45
# median.h:7:   int c = array[*i1] <= array[*i2];
	movl	(%rdi,%rdx,4), %eax	# *_48, <retval>
# median.h:8:   *i1 = c ? x : y;
	cmpl	%eax, %ecx	# <retval>, _45
	jg	.L165	#,
# median.h:7:   int c = array[*i1] <= array[*i2];
	movl	(%r8), %edx	# *_105, _103
	cmpl	%edx, %ecx	# _103, _45
	cmovl	%edx, %ecx	# _45,, _103, tmp145
	cmpl	%edx, %eax	# _103, <retval>
	cmovg	%ecx, %eax	# tmp145,, <retval>
.L166:
# median.h:100: }
	ret	
	.p2align 4,,10
	.p2align 3
.L164:
# median.h:95:     sort_pair(&array[low], &array[high]);
	movslq	%esi, %rdx	# low, low
# median.h:95:     sort_pair(&array[low], &array[high]);
	leaq	(%rdi,%rdx,4), %rax	#, _13
# median.h:31:   int x = *i1;
	vmovd	(%rax), %xmm1	# *_13, tmp161
# median.h:34:   *i1 = c ? x : y;
	vpminsd	%xmm1, %xmm0, %xmm2	# x, tmp159, tmp140
	vpmaxsd	%xmm1, %xmm0, %xmm0	# x, tmp159, tmp159
	vmovd	%xmm2, (%rax)	# tmp140, *_13
	vmovd	%xmm0, %eax	# tmp159, <retval>
# median.h:35:   *i2 = c ? y : x;
	vmovd	%xmm0, (%r8)	# tmp159, *_105
# median.h:96:     return array[high];
	ret	
	.p2align 4,,10
	.p2align 3
.L165:
# median.h:8:   *i1 = c ? x : y;
	movl	%eax, %edx	# <retval>, <retval>
	movl	%ecx, %eax	# _45, <retval>
	movl	%edx, %ecx	# <retval>, _45
# median.h:7:   int c = array[*i1] <= array[*i2];
	movl	(%r8), %edx	# *_105, _103
	cmpl	%edx, %ecx	# _103, _45
	cmovl	%edx, %ecx	# _45,, _103, tmp145
	cmpl	%edx, %eax	# _103, <retval>
	cmovg	%ecx, %eax	# tmp145,, <retval>
	jmp	.L166	#
	.p2align 4,,10
	.p2align 3
.L163:
# median.h:89:     int mid = low + 1;
	leal	1(%rsi), %edx	#, mid
# median.h:90:     sort_pair(&array[low], &array[mid]);
	movslq	%edx, %rdx	# mid, mid
	salq	$2, %rdx	#, _62
# median.h:90:     sort_pair(&array[low], &array[mid]);
	leaq	-4(%rdi,%rdx), %rax	#, _66
# median.h:31:   int x = *i1;
	vmovd	(%rax), %xmm0	# *_66, tmp153
# median.h:90:     sort_pair(&array[low], &array[mid]);
	leaq	(%rdi,%rdx), %rcx	#, _63
# median.h:31:   int x = *i1;
	vmovdqa	%xmm0, %xmm1	# tmp153, x
# median.h:32:   int y = *i2;
	vmovd	(%rcx), %xmm0	# *_63, tmp154
# median.h:34:   *i1 = c ? x : y;
	vpminsd	%xmm0, %xmm1, %xmm2	# y, x, tmp134
	vpmaxsd	%xmm0, %xmm1, %xmm0	# y, x, iftmp.17_70
	vmovd	%xmm2, (%rax)	# tmp134, *_66
# median.h:35:   *i2 = c ? y : x;
	vmovd	%xmm0, (%rcx)	# iftmp.17_70, *_63
# median.h:32:   int y = *i2;
	vmovd	(%r8), %xmm1	# *_105, tmp155
# median.h:34:   *i1 = c ? x : y;
	vpminsd	%xmm1, %xmm0, %xmm2	# y, iftmp.17_70, tmp135
# median.h:35:   *i2 = c ? y : x;
	vpmaxsd	%xmm1, %xmm0, %xmm0	# y, iftmp.17_70, tmp136
# median.h:34:   *i1 = c ? x : y;
	vmovd	%xmm2, (%rcx)	# tmp135, *_63
# median.h:35:   *i2 = c ? y : x;
	vmovd	%xmm0, (%r8)	# tmp136, *_105
# median.h:31:   int x = *i1;
	vmovd	(%rax), %xmm0	# *_66, tmp157
	vmovdqa	%xmm0, %xmm1	# tmp157, x
# median.h:32:   int y = *i2;
	vmovd	(%rcx), %xmm0	# *_63, tmp158
# median.h:34:   *i1 = c ? x : y;
	vpminsd	%xmm0, %xmm1, %xmm2	# y, x, tmp137
	vpmaxsd	%xmm0, %xmm1, %xmm0	# y, x, tmp156
	vmovd	%xmm2, (%rax)	# tmp137, *_66
	vmovd	%xmm0, %eax	# tmp156, <retval>
# median.h:35:   *i2 = c ? y : x;
	vmovd	%xmm0, (%rcx)	# tmp156, *_63
	ret	
	.cfi_endproc
.LFE58:
	.size	median_of_three_stable, .-median_of_three_stable
	.p2align 4
	.globl	median_of_three_of_median_of_three
	.type	median_of_three_of_median_of_three, @function
median_of_three_of_median_of_three:
.LFB59:
	.cfi_startproc
	endbr64	
	movslq	%edx, %r9	# tmp189,
# median.h:103:   if (high - low < 100) {
	movl	%r9d, %eax	# high, _1
	subl	%esi, %eax	# low, _1
# median.h:103:   if (high - low < 100) {
	cmpl	$99, %eax	#, _1
	jle	.L198	#,
# median.h:102: int median_of_three_of_median_of_three(int array[], int low, int high) {
	pushq	%r12	#
	.cfi_def_cfa_offset 16
	.cfi_offset 12, -16
# median.h:106:     int offset = (high - low) / 8;
	sarl	$3, %eax	#, offset
# median.h:109:     int b = low + offset;
	leal	(%rsi,%rax), %ecx	#, _2
# median.h:102: int median_of_three_of_median_of_three(int array[], int low, int high) {
	pushq	%rbp	#
	.cfi_def_cfa_offset 24
	.cfi_offset 6, -24
# median.h:7:   int c = array[*i1] <= array[*i2];
	movslq	%esi, %rsi	# low, low
# median.h:110:     int c = low + offset * 2;
	leal	(%rcx,%rax), %edx	#, _4
# median.h:102: int median_of_three_of_median_of_three(int array[], int low, int high) {
	pushq	%rbx	#
	.cfi_def_cfa_offset 32
	.cfi_offset 3, -32
# median.h:7:   int c = array[*i1] <= array[*i2];
	movslq	%ecx, %rcx	# _2, _2
# median.h:7:   int c = array[*i1] <= array[*i2];
	leaq	(%rdi,%rsi,4), %r10	#, prephitmp_169
# median.h:7:   int c = array[*i1] <= array[*i2];
	leaq	(%rdi,%rcx,4), %rsi	#, _136
# median.h:7:   int c = array[*i1] <= array[*i2];
	movl	(%r10), %r8d	# *_132, <retval>
# median.h:7:   int c = array[*i1] <= array[*i2];
	movl	(%rsi), %ecx	# *_136, _137
# median.h:8:   *i1 = c ? x : y;
	cmpl	%ecx, %r8d	# _137, <retval>
	jg	.L199	#,
# median.h:7:   int c = array[*i1] <= array[*i2];
	movslq	%edx, %r11	# _4, _4
# median.h:7:   int c = array[*i1] <= array[*i2];
	leaq	(%rdi,%r11,4), %rbx	#, _216
	movl	(%rbx), %r11d	# *_216, _217
# median.h:8:   *i1 = c ? x : y;
	cmpl	%r11d, %ecx	# _217, _137
	jle	.L188	#,
.L204:
# median.h:9:   *i2 = c ? y : x;
	cmpl	%r11d, %r8d	# _217, <retval>
	jle	.L200	#,
.L171:
# median.h:115:     int d = low + offset * 3;
	leal	(%rdx,%rax), %esi	#, _6
# median.h:116:     int e = low + offset * 4;
	leal	(%rsi,%rax), %ecx	#, _8
# median.h:117:     int f = low + offset * 5;
	leal	(%rcx,%rax), %edx	#, _10
# median.h:7:   int c = array[*i1] <= array[*i2];
	movslq	%esi, %rsi	# _6, _6
# median.h:7:   int c = array[*i1] <= array[*i2];
	movslq	%ecx, %rcx	# _8, _8
# median.h:7:   int c = array[*i1] <= array[*i2];
	leaq	(%rdi,%rsi,4), %rsi	#, prephitmp_128
# median.h:7:   int c = array[*i1] <= array[*i2];
	leaq	(%rdi,%rcx,4), %rbx	#, _108
# median.h:7:   int c = array[*i1] <= array[*i2];
	movl	(%rsi), %r11d	# *_104, _105
# median.h:7:   int c = array[*i1] <= array[*i2];
	movl	(%rbx), %ecx	# *_108, _109
# median.h:8:   *i1 = c ? x : y;
	cmpl	%ecx, %r11d	# _109, _105
	jle	.L172	#,
	movl	%ecx, %ebp	# _109, _109
	movl	%r11d, %ecx	# _105, _109
	movl	%ebp, %r11d	# _109, _105
	movq	%rbx, %rbp	# _108, _108
	movq	%rsi, %rbx	# prephitmp_128, _108
	movq	%rbp, %rsi	# _108, prephitmp_128
.L172:
# median.h:7:   int c = array[*i1] <= array[*i2];
	movslq	%edx, %rbp	# _10, _10
# median.h:7:   int c = array[*i1] <= array[*i2];
	leaq	(%rdi,%rbp,4), %r12	#, _197
	movl	(%r12), %ebp	# *_197, _198
# median.h:8:   *i1 = c ? x : y;
	cmpl	%ebp, %ecx	# _198, _109
	jg	.L201	#,
	movl	%ecx, %r11d	# _109, _105
	movq	%rbx, %rsi	# _108, prephitmp_128
.L174:
# median.h:122:     int g = low + offset * 6;
	addl	%eax, %edx	# offset, _12
# median.h:7:   int c = array[*i1] <= array[*i2];
	movslq	%edx, %rcx	# _12, _12
# median.h:123:     int h = low + offset * 7;
	addl	%eax, %edx	# offset, tmp147
# median.h:7:   int c = array[*i1] <= array[*i2];
	movslq	%edx, %rdx	# tmp147, tmp148
# median.h:7:   int c = array[*i1] <= array[*i2];
	leaq	(%rdi,%rcx,4), %rbp	#, _76
# median.h:7:   int c = array[*i1] <= array[*i2];
	leaq	(%rdi,%rdx,4), %rbx	#, _80
# median.h:7:   int c = array[*i1] <= array[*i2];
	movl	0(%rbp), %ecx	# *_76, _77
# median.h:7:   int c = array[*i1] <= array[*i2];
	movl	(%rbx), %eax	# *_80, _81
# median.h:8:   *i1 = c ? x : y;
	cmpl	%eax, %ecx	# _81, _77
	jg	.L176	#,
	movl	%ecx, %edx	# _77, _77
	movl	%eax, %ecx	# _81, _77
	movl	%edx, %eax	# _77, _81
	movq	%rbp, %rdx	# _76, _76
	movq	%rbx, %rbp	# _80, _76
	movq	%rdx, %rbx	# _76, _80
.L176:
# median.h:7:   int c = array[*i1] <= array[*i2];
	leaq	(%rdi,%r9,4), %rdi	#, _178
	movl	(%rdi), %edx	# *_178, _179
# median.h:8:   *i1 = c ? x : y;
	cmpl	%edx, %ecx	# _179, _77
	jg	.L202	#,
	movl	%ecx, %eax	# _77, _81
	movq	%rbp, %rbx	# _76, _80
.L177:
	cmpl	%r8d, %r11d	# <retval>, _105
	jl	.L179	#,
	movq	%r10, %rcx	# prephitmp_169, prephitmp_169
	movl	%r11d, %r8d	# _105, <retval>
	movq	%rsi, %r10	# prephitmp_128, prephitmp_169
	movq	%rcx, %rsi	# prephitmp_169, prephitmp_128
.L179:
	cmpl	%eax, %r8d	# _81, <retval>
	jg	.L203	#,
	movq	%r10, %rsi	# prephitmp_169, prephitmp_128
.L180:
# swap.h:3:   *a = *b;
	movl	%edx, (%rsi)	# _179, *prephitmp_128
# swap.h:4:   *b = t;
	movl	%r8d, (%rdi)	# <retval>, *_178
# median.h:137: }
	movl	%r8d, %eax	# <retval>,
	popq	%rbx	#
	.cfi_remember_state
	.cfi_def_cfa_offset 24
	popq	%rbp	#
	.cfi_def_cfa_offset 16
	popq	%r12	#
	.cfi_def_cfa_offset 8
	ret	
	.p2align 4,,10
	.p2align 3
.L188:
	.cfi_restore_state
# median.h:8:   *i1 = c ? x : y;
	movl	%ecx, %r8d	# _137, <retval>
	movq	%rsi, %r10	# _136, prephitmp_169
	jmp	.L171	#
	.p2align 4,,10
	.p2align 3
.L199:
	movl	%ecx, %r11d	# _137, _137
	movl	%r8d, %ecx	# <retval>, _137
	movl	%r11d, %r8d	# _137, <retval>
	movq	%rsi, %r11	# _136, _136
	movq	%r10, %rsi	# prephitmp_169, _136
	movq	%r11, %r10	# _136, prephitmp_169
# median.h:7:   int c = array[*i1] <= array[*i2];
	movslq	%edx, %r11	# _4, _4
# median.h:7:   int c = array[*i1] <= array[*i2];
	leaq	(%rdi,%r11,4), %rbx	#, _216
	movl	(%rbx), %r11d	# *_216, _217
# median.h:8:   *i1 = c ? x : y;
	cmpl	%r11d, %ecx	# _217, _137
	jle	.L188	#,
	jmp	.L204	#
	.p2align 4,,10
	.p2align 3
.L202:
# median.h:9:   *i2 = c ? y : x;
	cmpl	%edx, %eax	# _179, _81
	jg	.L177	#,
	movl	%edx, %eax	# _179, _81
	movq	%rdi, %rbx	# _178, _80
	jmp	.L177	#
	.p2align 4,,10
	.p2align 3
.L201:
	cmpl	%ebp, %r11d	# _198, _105
	jg	.L174	#,
	movl	%ebp, %r11d	# _198, _105
	movq	%r12, %rsi	# _197, prephitmp_128
	jmp	.L174	#
	.p2align 4,,10
	.p2align 3
.L203:
# median.h:7:   int c = array[*i1] <= array[*i2];
	movl	(%rsi), %r8d	# *prephitmp_172, <retval>
# median.h:9:   *i2 = c ? y : x;
	cmpl	%eax, %r8d	# _81, <retval>
	jg	.L180	#,
	movl	%eax, %r8d	# _81, <retval>
	movq	%rbx, %rsi	# _80, prephitmp_128
	jmp	.L180	#
	.p2align 4,,10
	.p2align 3
.L198:
	.cfi_def_cfa_offset 8
	.cfi_restore 3
	.cfi_restore 6
	.cfi_restore 12
# median.h:104:     return median_of_three(array, low, high);
	movl	%r9d, %edx	# high,
	jmp	median_of_three	#
.L200:
	.cfi_def_cfa_offset 32
	.cfi_offset 3, -32
	.cfi_offset 6, -24
	.cfi_offset 12, -16
# median.h:9:   *i2 = c ? y : x;
	movl	%r11d, %r8d	# _217, <retval>
	movq	%rbx, %r10	# _216, prephitmp_169
	jmp	.L171	#
	.cfi_endproc
.LFE59:
	.size	median_of_three_of_median_of_three, .-median_of_three_of_median_of_three
	.p2align 4
	.globl	partition_quick_block
	.type	partition_quick_block, @function
partition_quick_block:
.LFB39:
	.cfi_startproc
	endbr64	
	pushq	%rbp	#
	.cfi_def_cfa_offset 16
	.cfi_offset 6, -16
	movq	%rsp, %rbp	#,
	.cfi_def_cfa_register 6
	pushq	%r15	#
	pushq	%r14	#
	.cfi_offset 15, -24
	.cfi_offset 14, -32
	movl	%edx, %r14d	# tmp454, high
	pushq	%r13	#
	pushq	%r12	#
	.cfi_offset 13, -40
	.cfi_offset 12, -48
	movl	%esi, %r12d	# tmp453, low
	pushq	%rbx	#
	.cfi_offset 3, -56
	movq	%rdi, %rbx	# tmp452, array
	subq	$72, %rsp	#,
# blockquick.h:18: int partition_quick_block(int array[], int low, int high) {
	movl	%edx, -92(%rbp)	# high, %sfp
	movq	%fs:40, %rax	# MEM[(<address-space-1> long unsigned int *)40B], tmp582
	movq	%rax, -56(%rbp)	# tmp582, D.39399
	xorl	%eax, %eax	# tmp582
# blockquick.h:19:   int pivot = median_of_three_of_median_of_three(array, low, high);
	call	median_of_three_of_median_of_three	#
# blockquick.h:23:   int offsetsL[blocksize], offsetsR[blocksize];
	movq	%rsp, %rdx	#, tmp309
# blockquick.h:21:   high--;
	leal	-1(%r14), %r10d	#, high
# blockquick.h:23:   int offsetsL[blocksize], offsetsR[blocksize];
	cmpq	%rdx, %rsp	# tmp309,
	je	.L207	#,
.L277:
	subq	$4096, %rsp	#,
	orq	$0, 4088(%rsp)	#,
	cmpq	%rdx, %rsp	# tmp309,
	jne	.L277	#,
.L207:
	subq	$512, %rsp	#,
	orq	$0, 504(%rsp)	#,
# blockquick.h:23:   int offsetsL[blocksize], offsetsR[blocksize];
	movq	%rsp, %rdx	#, tmp326
# blockquick.h:23:   int offsetsL[blocksize], offsetsR[blocksize];
	movq	%rsp, %rcx	#, tmp317
# blockquick.h:23:   int offsetsL[blocksize], offsetsR[blocksize];
	cmpq	%rdx, %rsp	# tmp326,
	je	.L210	#,
.L278:
	subq	$4096, %rsp	#,
	orq	$0, 4088(%rsp)	#,
	cmpq	%rdx, %rsp	# tmp326,
	jne	.L278	#,
.L210:
	subq	$512, %rsp	#,
	orq	$0, 504(%rsp)	#,
# blockquick.h:26:   while (high - low + 1 > 2 * blocksize) {
	movl	%r10d, %edx	# high, _27
	subl	%r12d, %edx	# low, _27
# blockquick.h:23:   int offsetsL[blocksize], offsetsR[blocksize];
	movq	%rsp, %rsi	#, tmp334
# blockquick.h:26:   while (high - low + 1 > 2 * blocksize) {
	cmpl	$255, %edx	#, _27
	jle	.L212	#,
# blockquick.h:24:   int startL = 0, startR = 0, numL = 0, numR = 0;
	movl	$0, -68(%rbp)	#, %sfp
# blockquick.h:24:   int startL = 0, startR = 0, numL = 0, numR = 0;
	movl	$0, -72(%rbp)	#, %sfp
# blockquick.h:24:   int startL = 0, startR = 0, numL = 0, numR = 0;
	movl	$0, -80(%rbp)	#, %sfp
# blockquick.h:24:   int startL = 0, startR = 0, numL = 0, numR = 0;
	movl	$0, -76(%rbp)	#, %sfp
	.p2align 4,,10
	.p2align 3
.L223:
# blockquick.h:27:     if (numL == 0) {
	movl	-72(%rbp), %r11d	# %sfp,
	testl	%r11d, %r11d	#
	je	.L279	#,
.L213:
# blockquick.h:34:     if (numR == 0) {
	movl	-68(%rbp), %r9d	# %sfp,
	testl	%r9d, %r9d	#
	je	.L280	#,
.L215:
# minmax.h:3: inline int min(int x, int y) { return (x < y) ? x : y; }
	movl	-72(%rbp), %edi	# %sfp, numL
	movl	-68(%rbp), %r15d	# %sfp, numR
	cmpl	%r15d, %edi	# numR, numL
	cmovle	%edi, %r15d	# numL,, _223
# blockquick.h:42:     for (int j = 0; j < num; j++) {
	testl	%r15d, %r15d	# _223
	jle	.L221	#,
	movslq	-80(%rbp), %rdx	# %sfp, startR
	movl	%eax, -84(%rbp)	# pivot, %sfp
	leaq	(%rsi,%rdx,4), %r13	#, _549
	movslq	-76(%rbp), %rdx	# %sfp, startL
	movslq	%r15d, %r14	# _223, _542
	leaq	(%rcx,%rdx,4), %r11	#, _546
	xorl	%edx, %edx	# ivtmp.489
	.p2align 4,,10
	.p2align 3
.L220:
# blockquick.h:43:       swap(&array[low + offsetsL[startL + j]],
	movl	(%r11,%rdx,4), %r8d	# MEM[base: _546, index: ivtmp.489_553, step: 4, offset: 0B], tmp352
# blockquick.h:44:            &array[high - offsetsR[startR + j]]);
	movl	%r10d, %edi	# high, tmp349
	subl	0(%r13,%rdx,4), %edi	# MEM[base: _549, index: ivtmp.489_553, step: 4, offset: 0B], tmp349
# blockquick.h:43:       swap(&array[low + offsetsL[startL + j]],
	addl	%r12d, %r8d	# low, tmp352
# blockquick.h:44:            &array[high - offsetsR[startR + j]]);
	movslq	%edi, %rdi	# tmp349, tmp350
# blockquick.h:43:       swap(&array[low + offsetsL[startL + j]],
	movslq	%r8d, %r8	# tmp352, tmp354
# blockquick.h:43:       swap(&array[low + offsetsL[startL + j]],
	leaq	(%rbx,%rdi,4), %rdi	#, _20
	leaq	(%rbx,%r8,4), %r8	#, _26
# swap.h:2:   int t = *a;
	movl	(%r8), %r9d	# *_26, t
# swap.h:3:   *a = *b;
	movl	(%rdi), %eax	# *_20, tmp602
# blockquick.h:42:     for (int j = 0; j < num; j++) {
	incq	%rdx	# ivtmp.489
# swap.h:3:   *a = *b;
	movl	%eax, (%r8)	# tmp602, *_26
# swap.h:4:   *b = t;
	movl	%r9d, (%rdi)	# t, *_20
# blockquick.h:42:     for (int j = 0; j < num; j++) {
	cmpq	%rdx, %r14	# ivtmp.489, _542
	jne	.L220	#,
	movl	-84(%rbp), %eax	# %sfp, pivot
.L221:
# blockquick.h:48:     startL += num;
	addl	%r15d, -76(%rbp)	# _223, %sfp
# blockquick.h:49:     startR += num;
	addl	%r15d, -80(%rbp)	# _223, %sfp
# blockquick.h:51:       low += blocksize;
	subl	%r15d, -72(%rbp)	# _223, %sfp
	leal	128(%r12), %edx	#, tmp446
	cmove	%edx, %r12d	# tmp446,, low
# blockquick.h:54:       high -= blocksize;
	subl	%r15d, -68(%rbp)	# _223, %sfp
	leal	-128(%r10), %edx	#, tmp448
	cmove	%edx, %r10d	# tmp448,, high
# blockquick.h:26:   while (high - low + 1 > 2 * blocksize) {
	movl	%r10d, %edx	# high, _27
	subl	%r12d, %edx	# low, _27
# blockquick.h:26:   while (high - low + 1 > 2 * blocksize) {
	cmpl	$255, %edx	#, _27
	jg	.L223	#,
# blockquick.h:60:   if (numR == 0 && numL == 0) {
	movl	-72(%rbp), %edi	# %sfp, tmp583
	orl	-68(%rbp), %edi	# %sfp, tmp583
	je	.L212	#,
# blockquick.h:75:   } else if (numR != 0) {
	movl	-68(%rbp), %r8d	# %sfp,
# blockquick.h:76:     shiftL = high - low - blocksize + 1;
	leal	-127(%rdx), %edi	#, shiftL
	movl	%edi, -84(%rbp)	# shiftL, %sfp
# blockquick.h:75:   } else if (numR != 0) {
	testl	%r8d, %r8d	#
	je	.L228	#,
# blockquick.h:79:     for (int j = 0; j < shiftL; j++) {
	testl	%edi, %edi	# shiftL
	jle	.L255	#,
	leal	-128(%rdx), %r9d	#, _567
	movl	-72(%rbp), %edi	# %sfp, numL
	movslq	%r12d, %rdx	# low, low
	leaq	(%rbx,%rdx,4), %r8	#, _573
	xorl	%edx, %edx	# ivtmp.479
.L229:
# blockquick.h:80:       offsetsL[numL] = j;
	movslq	%edi, %r11	# numL, numL
	movl	%edx, (%rcx,%r11,4)	# ivtmp.479, (*offsetsL.0_202)[numL_310]
# blockquick.h:81:       numL += pivot <= array[low + j];
	xorl	%r11d, %r11d	# tmp381
	cmpl	%eax, (%r8,%rdx,4)	# pivot, MEM[base: _573, index: ivtmp.479_578, step: 4, offset: 0B]
	setge	%r11b	#, tmp381
# blockquick.h:81:       numL += pivot <= array[low + j];
	addl	%r11d, %edi	# tmp381, numL
	movq	%rdx, %r11	# ivtmp.479, ivtmp.479
# blockquick.h:79:     for (int j = 0; j < shiftL; j++) {
	incq	%rdx	# ivtmp.479
	cmpq	%r11, %r9	# ivtmp.479, _567
	jne	.L229	#,
# blockquick.h:77:     shiftR = blocksize;
	movl	%edi, -72(%rbp)	# numL, %sfp
	movl	$128, -88(%rbp)	#, %sfp
# blockquick.h:78:     startL = 0;
	movl	$0, -76(%rbp)	#, %sfp
.L227:
# minmax.h:3: inline int min(int x, int y) { return (x < y) ? x : y; }
	movl	-72(%rbp), %eax	# %sfp, numL
	movl	-68(%rbp), %r14d	# %sfp, numR
	cmpl	%r14d, %eax	# numR, numL
	cmovle	%eax, %r14d	# numL,, _56
# blockquick.h:103:   startR += num;
	movslq	-80(%rbp), %rax	# %sfp,
	leal	(%rax,%r14), %r15d	#, prephitmp_665
# blockquick.h:95:   for (int j = 0; j < num; j++) {
	testl	%r14d, %r14d	# _56
	jle	.L232	#,
	leaq	(%rsi,%rax,4), %r11	#, _602
	movq	%rcx, -104(%rbp)	# tmp317, %sfp
	movslq	-76(%rbp), %rax	# %sfp, startL
	movslq	%r14d, %r13	# _56, _593
	leaq	(%rcx,%rax,4), %r9	#, _597
	xorl	%eax, %eax	# ivtmp.466
	.p2align 4,,10
	.p2align 3
.L233:
# blockquick.h:96:     swap(&array[low + offsetsL[startL + j]],
	movl	(%r9,%rax,4), %edi	# MEM[base: _597, index: ivtmp.466_606, step: 4, offset: 0B], tmp395
# blockquick.h:97:          &array[high - offsetsR[startR + j]]);
	movl	%r10d, %edx	# high, tmp392
	subl	(%r11,%rax,4), %edx	# MEM[base: _602, index: ivtmp.466_606, step: 4, offset: 0B], tmp392
# blockquick.h:96:     swap(&array[low + offsetsL[startL + j]],
	addl	%r12d, %edi	# low, tmp395
# blockquick.h:97:          &array[high - offsetsR[startR + j]]);
	movslq	%edx, %rdx	# tmp392, tmp393
# blockquick.h:96:     swap(&array[low + offsetsL[startL + j]],
	movslq	%edi, %rdi	# tmp395, tmp397
# blockquick.h:96:     swap(&array[low + offsetsL[startL + j]],
	leaq	(%rbx,%rdx,4), %rdx	#, _76
	leaq	(%rbx,%rdi,4), %rdi	#, _82
# swap.h:2:   int t = *a;
	movl	(%rdi), %r8d	# *_82, t
# swap.h:3:   *a = *b;
	movl	(%rdx), %ecx	# *_76, tmp626
# blockquick.h:95:   for (int j = 0; j < num; j++) {
	incq	%rax	# ivtmp.466
# swap.h:3:   *a = *b;
	movl	%ecx, (%rdi)	# tmp626, *_82
# swap.h:4:   *b = t;
	movl	%r8d, (%rdx)	# t, *_76
# blockquick.h:95:   for (int j = 0; j < num; j++) {
	cmpq	%rax, %r13	# ivtmp.466, _593
	jne	.L233	#,
	movq	-104(%rbp), %rcx	# %sfp, tmp317
.L232:
# blockquick.h:101:   numR -= num;
	movl	-68(%rbp), %edx	# %sfp, numR
# blockquick.h:136:     swap(&array[pivot_position], &array[low]);
	movslq	-92(%rbp), %rax	# %sfp, high
# blockquick.h:101:   numR -= num;
	subl	%r14d, %edx	# _56, numR
# blockquick.h:136:     swap(&array[pivot_position], &array[low]);
	leaq	(%rbx,%rax,4), %rax	#, _735
# blockquick.h:104:   if (numL == 0) {
	cmpl	-72(%rbp), %r14d	# %sfp, _56
	jne	.L234	#,
# blockquick.h:105:     low += shiftL;
	addl	-84(%rbp), %r12d	# %sfp, <retval>
# blockquick.h:107:   if (numR == 0) {
	testl	%edx, %edx	# numR
	jne	.L281	#,
.L235:
# blockquick.h:136:     swap(&array[pivot_position], &array[low]);
	movslq	%r12d, %rdx	# <retval>, <retval>
# blockquick.h:136:     swap(&array[pivot_position], &array[low]);
	leaq	(%rbx,%rdx,4), %rdx	#, _127
# swap.h:2:   int t = *a;
	movl	(%rax), %ecx	# *_735, t
# swap.h:3:   *a = *b;
	movl	(%rdx), %esi	#* _127, _277
# swap.h:3:   *a = *b;
	movl	%esi, (%rax)	# _277, *_735
# swap.h:4:   *b = t;
	movl	%ecx, (%rdx)	# t,* _127
.L205:
# blockquick.h:139: }
	movq	-56(%rbp), %rax	# D.39399, tmp584
	subq	%fs:40, %rax	# MEM[(<address-space-1> long unsigned int *)40B], tmp584
	jne	.L282	#,
	leaq	-40(%rbp), %rsp	#,
	popq	%rbx	#
	movl	%r12d, %eax	# <retval>,
	popq	%r12	#
	popq	%r13	#
	popq	%r14	#
	popq	%r15	#
	popq	%rbp	#
	.cfi_remember_state
	.cfi_def_cfa 7, 8
	ret	
.L280:
	.cfi_restore_state
	movslq	%r10d, %rdx	# high, high
	leaq	(%rbx,%rdx,4), %r8	#, ivtmp.501
# blockquick.h:34:     if (numR == 0) {
	xorl	%edi, %edi	# numR
# blockquick.h:36:       for (int i = 0; i < blocksize; i++) {
	xorl	%edx, %edx	# i
	.p2align 4,,10
	.p2align 3
.L216:
# blockquick.h:37:         offsetsR[numR] = i;
	movslq	%edi, %r9	# numR, numR
	movl	%edx, (%rsi,%r9,4)	# i, (*offsetsR.1_205)[numR_381]
# blockquick.h:38:         numR += pivot >= array[high - i];
	xorl	%r9d, %r9d	# tmp343
	cmpl	%eax, (%r8)	# pivot, MEM[base: _533, offset: 0B]
	setle	%r9b	#, tmp343
# blockquick.h:36:       for (int i = 0; i < blocksize; i++) {
	incl	%edx	# i
# blockquick.h:38:         numR += pivot >= array[high - i];
	addl	%r9d, %edi	# tmp343, numR
# blockquick.h:36:       for (int i = 0; i < blocksize; i++) {
	subq	$4, %r8	#, ivtmp.501
	cmpl	$128, %edx	#, i
	jne	.L216	#,
# blockquick.h:35:       startR = 0;
	movl	$0, -80(%rbp)	#, %sfp
# blockquick.h:38:         numR += pivot >= array[high - i];
	movl	%edi, -68(%rbp)	# numR, %sfp
	jmp	.L215	#
.L279:
	movslq	%r12d, %rdx	# low, low
	leaq	(%rbx,%rdx,4), %r9	#, _527
# blockquick.h:27:     if (numL == 0) {
	xorl	%edi, %edi	# numL
	xorl	%edx, %edx	# ivtmp.503
	.p2align 4,,10
	.p2align 3
.L214:
# blockquick.h:30:         offsetsL[numL] = i;
	movslq	%edi, %r8	# numL, numL
	movl	%edx, (%rcx,%r8,4)	# ivtmp.503, (*offsetsL.0_202)[numL_380]
# blockquick.h:31:         numL += pivot <= array[low + i];
	xorl	%r8d, %r8d	# tmp338
	cmpl	%eax, (%r9,%rdx,4)	# pivot, MEM[base: _527, index: ivtmp.503_532, step: 4, offset: 0B]
	setge	%r8b	#, tmp338
# blockquick.h:29:       for (int i = 0; i < blocksize; i++) {
	incq	%rdx	# ivtmp.503
# blockquick.h:31:         numL += pivot <= array[low + i];
	addl	%r8d, %edi	# tmp338, numL
# blockquick.h:29:       for (int i = 0; i < blocksize; i++) {
	cmpq	$128, %rdx	#, ivtmp.503
	jne	.L214	#,
# blockquick.h:28:       startL = 0;
	movl	$0, -76(%rbp)	#, %sfp
# blockquick.h:31:         numL += pivot <= array[low + i];
	movl	%edi, -72(%rbp)	# numL, %sfp
	jmp	.L213	#
.L212:
# blockquick.h:61:     shiftL = (high - low + 1) / 2;
	incl	%edx	# _30
# blockquick.h:61:     shiftL = (high - low + 1) / 2;
	movl	%edx, %r9d	# _30, tmp357
	shrl	$31, %r9d	#, tmp357
	addl	%edx, %r9d	# _30, tmp358
	sarl	%r9d	# tmp359
# blockquick.h:62:     shiftR = high - low + 1 - shiftL;
	movl	%edx, %edi	# _30, shiftR
	subl	%r9d, %edi	# tmp359, shiftR
# blockquick.h:61:     shiftL = (high - low + 1) / 2;
	movl	%r9d, -84(%rbp)	# tmp359, %sfp
# blockquick.h:62:     shiftR = high - low + 1 - shiftL;
	movl	%edi, -88(%rbp)	# shiftR, %sfp
# blockquick.h:65:     for (int j = 0; j < shiftL; j++) {
	cmpl	$1, %edx	#, _30
	jle	.L253	#,
	movslq	%r10d, %rdx	# high, high
	leaq	(%rbx,%rdx,4), %rdi	#, ivtmp.476
	movslq	%r12d, %rdx	# low, low
	leaq	(%rbx,%rdx,4), %r11	#, _581
	xorl	%r13d, %r13d	# numR
	xorl	%edx, %edx	# ivtmp.473
	xorl	%r8d, %r8d	# numL
	.p2align 4,,10
	.p2align 3
.L226:
# blockquick.h:66:       offsetsL[numL] = j;
	movslq	%r8d, %r14	# numL, numL
	movl	%edx, (%rcx,%r14,4)	# ivtmp.473, (*offsetsL.0_202)[numL_312]
# blockquick.h:67:       numL += pivot <= array[low + j];
	xorl	%r14d, %r14d	# tmp365
	cmpl	%eax, (%r11,%rdx,4)	# pivot, MEM[base: _581, index: ivtmp.473_592, step: 4, offset: 0B]
	setge	%r14b	#, tmp365
# blockquick.h:67:       numL += pivot <= array[low + j];
	addl	%r14d, %r8d	# tmp365, numL
# blockquick.h:68:       offsetsR[numR] = j;
	movslq	%r13d, %r14	# numR, numR
	movl	%edx, (%rsi,%r14,4)	# ivtmp.473, (*offsetsR.1_205)[numR_331]
# blockquick.h:69:       numR += pivot >= array[high - j];
	xorl	%r14d, %r14d	# tmp368
	cmpl	%eax, (%rdi)	# pivot, MEM[base: _580, offset: 0B]
	setle	%r14b	#, tmp368
# blockquick.h:65:     for (int j = 0; j < shiftL; j++) {
	incq	%rdx	# ivtmp.473
# blockquick.h:69:       numR += pivot >= array[high - j];
	addl	%r14d, %r13d	# tmp368, numR
# blockquick.h:65:     for (int j = 0; j < shiftL; j++) {
	subq	$4, %rdi	#, ivtmp.476
	cmpl	%edx, %r9d	# ivtmp.473, tmp359
	jg	.L226	#,
	movl	%r8d, -72(%rbp)	# numL, %sfp
	movl	%r13d, -68(%rbp)	# numR, %sfp
.L225:
# blockquick.h:71:     if (shiftL < shiftR) {
	movl	-88(%rbp), %r11d	# %sfp, shiftR
	cmpl	%r11d, %r9d	# shiftR, tmp359
	jge	.L254	#,
# blockquick.h:72:       offsetsR[numR] = shiftR - 1;
	movslq	-68(%rbp), %rdx	# %sfp,
# blockquick.h:72:       offsetsR[numR] = shiftR - 1;
	leal	-1(%r11), %edi	#, tmp371
# blockquick.h:72:       offsetsR[numR] = shiftR - 1;
	movq	%rdx, %r14	#,
# blockquick.h:72:       offsetsR[numR] = shiftR - 1;
	movl	%edi, (%rsi,%rdx,4)	# tmp371, (*offsetsR.1_205)[numR_333]
# blockquick.h:73:       numR += pivot >= array[high - shiftR + 1];
	movl	%r10d, %edx	# high, tmp372
	subl	%r11d, %edx	# shiftR, tmp372
# blockquick.h:73:       numR += pivot >= array[high - shiftR + 1];
	movslq	%edx, %rdx	# tmp372, tmp373
# blockquick.h:73:       numR += pivot >= array[high - shiftR + 1];
	cmpl	%eax, 4(%rbx,%rdx,4)	# pivot, *_52
	setle	%al	#, tmp375
	movzbl	%al, %eax	# tmp375, tmp375
# blockquick.h:73:       numR += pivot >= array[high - shiftR + 1];
	addl	%eax, %r14d	# tmp375, numR
	movl	%r14d, -68(%rbp)	# numR, %sfp
# blockquick.h:64:     startR = 0;
	movl	$0, -80(%rbp)	#, %sfp
# blockquick.h:63:     startL = 0;
	movl	$0, -76(%rbp)	#, %sfp
	jmp	.L227	#
.L234:
# blockquick.h:108:     high -= shiftR;
	movl	%r10d, %esi	# high, tmp450
	subl	-88(%rbp), %esi	# %sfp, tmp450
	testl	%edx, %edx	# numR
	cmove	%esi, %r10d	# tmp450,, high
# blockquick.h:112:     int lower = startL + numL - 1;
	movl	-72(%rbp), %edi	# %sfp, numL
# blockquick.h:102:   startL += num;
	movl	-76(%rbp), %esi	# %sfp, startL
	addl	%esi, %r14d	# startL, startL
# blockquick.h:112:     int lower = startL + numL - 1;
	leal	-1(%rdi,%rsi), %esi	#, lower
# blockquick.h:113:     int upper = high - low;
	movl	%r10d, %edi	# high, upper
	subl	%r12d, %edi	# low, upper
	movslq	%esi, %rdx	# lower, ivtmp.436
# blockquick.h:114:     while (lower >= startL && offsetsL[lower] == upper) {
	cmpl	%esi, %r14d	# lower, startL
	jle	.L239	#,
	jmp	.L238	#
	.p2align 4,,10
	.p2align 3
.L240:
	decq	%rdx	# ivtmp.436
# blockquick.h:115:       upper--;
	decl	%edi	# upper
# blockquick.h:114:     while (lower >= startL && offsetsL[lower] == upper) {
	cmpl	%edx, %r14d	# ivtmp.436, startL
	jg	.L275	#,
.L239:
	movl	%edx, %r10d	# ivtmp.436, _648
# blockquick.h:114:     while (lower >= startL && offsetsL[lower] == upper) {
	cmpl	%edi, (%rcx,%rdx,4)	# upper, MEM[base: offsetsL.0_202, index: ivtmp.436_672, step: 4, offset: 0B]
	je	.L240	#,
# blockquick.h:118:     while (lower >= startL) {
	cmpl	%edx, %r14d	# _648, startL
	jg	.L275	#,
	movslq	%r12d, %r8	# low, low
	movslq	%edi, %rsi	# upper, upper
	addq	%r8, %rsi	# low, tmp404
	movslq	%edx, %rdx	# _648, ivtmp.424
	subq	%rdx, %rsi	# ivtmp.424, tmp408
	leaq	(%rbx,%rsi,4), %r8	#, _690
	.p2align 4,,10
	.p2align 3
.L242:
# blockquick.h:119:       swap(&array[low + upper--], &array[low + offsetsL[lower--]]);
	movl	(%rcx,%rdx,4), %esi	# MEM[base: offsetsL.0_202, index: ivtmp.424_669, step: 4, offset: 0B], tmp410
# swap.h:2:   int t = *a;
	movl	(%r8,%rdx,4), %r9d	# MEM[base: _690, index: ivtmp.424_669, step: 4, offset: 0B], t
# blockquick.h:119:       swap(&array[low + upper--], &array[low + offsetsL[lower--]]);
	addl	%r12d, %esi	# low, tmp410
	movslq	%esi, %rsi	# tmp410, tmp412
# blockquick.h:119:       swap(&array[low + upper--], &array[low + offsetsL[lower--]]);
	leaq	(%rbx,%rsi,4), %rsi	#, _90
# swap.h:3:   *a = *b;
	movl	(%rsi), %r11d	# *_90, _269
# swap.h:3:   *a = *b;
	movl	%r11d, (%r8,%rdx,4)	# _269, MEM[base: _690, index: ivtmp.424_669, step: 4, offset: 0B]
# blockquick.h:118:     while (lower >= startL) {
	decq	%rdx	# ivtmp.424
# swap.h:4:   *b = t;
	movl	%r9d, (%rsi)	# t, *_90
# blockquick.h:118:     while (lower >= startL) {
	cmpl	%edx, %r14d	# ivtmp.424, startL
	jle	.L242	#,
	subl	%r10d, %r14d	# _648, tmp415
	leal	-1(%rdi,%r14), %r10d	#, _703
# blockquick.h:121:     swap(&array[pivot_position], &array[low + upper + 1]);
	addl	%r12d, %r10d	# low, high
.L238:
# blockquick.h:121:     swap(&array[pivot_position], &array[low + upper + 1]);
	movslq	%r10d, %rdx	# high, high
# blockquick.h:121:     swap(&array[pivot_position], &array[low + upper + 1]);
	leaq	4(%rbx,%rdx,4), %rdx	#, _100
# swap.h:2:   int t = *a;
	movl	(%rax), %ecx	# *_735, t
# swap.h:3:   *a = *b;
	movl	(%rdx), %esi	# *_100, _271
# blockquick.h:122:     return low + upper + 1;
	leal	1(%r10), %r12d	#, <retval>
# swap.h:3:   *a = *b;
	movl	%esi, (%rax)	# _271, *_735
# swap.h:4:   *b = t;
	movl	%ecx, (%rdx)	# t, *_100
# blockquick.h:122:     return low + upper + 1;
	jmp	.L205	#
.L281:
# blockquick.h:124:     int lower = startR + numR - 1;
	movl	-80(%rbp), %edx	# %sfp, startR
	movl	-68(%rbp), %ecx	# %sfp, numR
# blockquick.h:125:     int upper = high - low;
	movl	%r10d, %edi	# high, upper
# blockquick.h:124:     int lower = startR + numR - 1;
	leal	-1(%rcx,%rdx), %ecx	#, lower
# blockquick.h:125:     int upper = high - low;
	subl	%r12d, %edi	# <retval>, upper
	movslq	%ecx, %rdx	# lower, ivtmp.458
# blockquick.h:126:     while (lower >= startR && offsetsR[lower] == upper) {
	cmpl	%r15d, %ecx	# prephitmp_665, lower
	jge	.L244	#,
	jmp	.L235	#
	.p2align 4,,10
	.p2align 3
.L246:
	decq	%rdx	# ivtmp.458
# blockquick.h:127:       upper--;
	decl	%edi	# upper
# blockquick.h:126:     while (lower >= startR && offsetsR[lower] == upper) {
	cmpl	%edx, %r15d	# ivtmp.458, prephitmp_665
	jg	.L276	#,
.L244:
	movl	%edx, %r9d	# ivtmp.458, _610
# blockquick.h:126:     while (lower >= startR && offsetsR[lower] == upper) {
	cmpl	%edi, (%rsi,%rdx,4)	# upper, MEM[base: offsetsR.1_205, index: ivtmp.458_614, step: 4, offset: 0B]
	je	.L246	#,
# blockquick.h:130:     while (lower >= startR) {
	cmpl	%r15d, %edx	# prephitmp_665, _610
	jl	.L276	#,
	movslq	%edx, %rdx	# _610, lower
	leaq	(%rsi,%rdx,4), %rsi	#, ivtmp.449
	movslq	%r10d, %rcx	# high, high
	movslq	%edi, %rdx	# upper, upper
	movl	%r9d, %r8d	# _610, tmp425
	subq	%rdx, %rcx	# upper, _635
	subl	%r15d, %r8d	# prephitmp_665, tmp425
	leaq	(%rbx,%rcx,4), %rdx	#, ivtmp.450
	addq	%r8, %rcx	# tmp425, tmp426
	leaq	4(%rbx,%rcx,4), %r12	#, _615
	.p2align 4,,10
	.p2align 3
.L248:
# blockquick.h:131:       swap(&array[high - upper--], &array[high - offsetsR[lower--]]);
	movl	%r10d, %ecx	# high, tmp429
	subl	(%rsi), %ecx	# MEM[base: _632, offset: 0B], tmp429
	movslq	%ecx, %rcx	# tmp429, tmp430
# blockquick.h:131:       swap(&array[high - upper--], &array[high - offsetsR[lower--]]);
	leaq	(%rbx,%rcx,4), %rcx	#, _112
# swap.h:3:   *a = *b;
	movl	(%rcx), %r11d	# *_112, _273
# swap.h:2:   int t = *a;
	movl	(%rdx), %r8d	# MEM[base: _631, offset: 0B], t
# swap.h:3:   *a = *b;
	movl	%r11d, (%rdx)	# _273, MEM[base: _631, offset: 0B]
# blockquick.h:130:     while (lower >= startR) {
	addq	$4, %rdx	#, ivtmp.450
# swap.h:4:   *b = t;
	movl	%r8d, (%rcx)	# t, *_112
# blockquick.h:130:     while (lower >= startR) {
	subq	$4, %rsi	#, ivtmp.449
	cmpq	%rdx, %r12	# ivtmp.450, _615
	jne	.L248	#,
	subl	%r9d, %r15d	# _610, tmp433
	leal	-1(%rdi,%r15), %edx	#, _693
# blockquick.h:133:     swap(&array[pivot_position], &array[high - upper]);
	subl	%edx, %r10d	# _693, high
	movl	%r10d, %r12d	# high, <retval>
	jmp	.L235	#
.L254:
# blockquick.h:64:     startR = 0;
	movl	$0, -80(%rbp)	#, %sfp
# blockquick.h:63:     startL = 0;
	movl	$0, -76(%rbp)	#, %sfp
	jmp	.L227	#
.L228:
	movl	%edi, %r11d	# shiftL, shiftL
# blockquick.h:87:     for (int j = 0; j < shiftR; j++) {
	testl	%edi, %edi	# shiftL
	jle	.L230	#,
	movslq	%r10d, %rdx	# high, high
	leaq	(%rbx,%rdx,4), %r8	#, ivtmp.486
	xorl	%edi, %edi	# numR
# blockquick.h:87:     for (int j = 0; j < shiftR; j++) {
	xorl	%edx, %edx	# j
.L231:
# blockquick.h:88:       offsetsR[numR] = j;
	movslq	%edi, %r9	# numR, numR
	movl	%edx, (%rsi,%r9,4)	# j, (*offsetsR.1_205)[numR_336]
# blockquick.h:89:       numR += pivot >= array[high - j];
	xorl	%r9d, %r9d	# tmp386
	cmpl	%eax, (%r8)	# pivot, MEM[base: _559, offset: 0B]
	setle	%r9b	#, tmp386
# blockquick.h:87:     for (int j = 0; j < shiftR; j++) {
	incl	%edx	# j
# blockquick.h:89:       numR += pivot >= array[high - j];
	addl	%r9d, %edi	# tmp386, numR
# blockquick.h:87:     for (int j = 0; j < shiftR; j++) {
	subq	$4, %r8	#, ivtmp.486
	cmpl	%r11d, %edx	# shiftL, j
	jne	.L231	#,
	movl	-84(%rbp), %eax	# %sfp, shiftL
# blockquick.h:86:     startR = 0;
	movl	$0, -80(%rbp)	#, %sfp
	movl	%eax, -88(%rbp)	# shiftL, %sfp
# blockquick.h:89:       numR += pivot >= array[high - j];
	movl	%edi, -68(%rbp)	# numR, %sfp
# blockquick.h:85:     shiftL = blocksize;
	movl	$128, -84(%rbp)	#, %sfp
	jmp	.L227	#
.L275:
# blockquick.h:119:       swap(&array[low + upper--], &array[low + offsetsL[lower--]]);
	leal	(%r12,%rdi), %r10d	#, high
	jmp	.L238	#
.L276:
# blockquick.h:131:       swap(&array[high - upper--], &array[high - offsetsR[lower--]]);
	subl	%edi, %r10d	# upper, high
	movl	%r10d, %r12d	# high, <retval>
	jmp	.L235	#
.L253:
# blockquick.h:65:     for (int j = 0; j < shiftL; j++) {
	movl	$0, -68(%rbp)	#, %sfp
	movl	$0, -72(%rbp)	#, %sfp
	jmp	.L225	#
.L255:
# blockquick.h:77:     shiftR = blocksize;
	movl	$128, -88(%rbp)	#, %sfp
# blockquick.h:78:     startL = 0;
	movl	$0, -76(%rbp)	#, %sfp
	jmp	.L227	#
.L230:
# minmax.h:3: inline int min(int x, int y) { return (x < y) ? x : y; }
	movl	-72(%rbp), %eax	# %sfp, numL
	movl	-68(%rbp), %r14d	# %sfp, numR
# blockquick.h:86:     startR = 0;
	movl	$0, -80(%rbp)	#, %sfp
# minmax.h:3: inline int min(int x, int y) { return (x < y) ? x : y; }
	cmpl	%r14d, %eax	# numR, numL
	cmovle	%eax, %r14d	# numL,, _56
	movl	-84(%rbp), %eax	# %sfp, shiftL
	movl	%r14d, %r15d	# _56, prephitmp_665
	movl	%eax, -88(%rbp)	# shiftL, %sfp
# blockquick.h:85:     shiftL = blocksize;
	movl	$128, -84(%rbp)	#, %sfp
	jmp	.L232	#
.L282:
# blockquick.h:139: }
	call	__stack_chk_fail@PLT	#
	.cfi_endproc
.LFE39:
	.size	partition_quick_block, .-partition_quick_block
	.p2align 4
	.globl	sort_quick_block
	.type	sort_quick_block, @function
sort_quick_block:
.LFB40:
	.cfi_startproc
	endbr64	
	pushq	%r15	#
	.cfi_def_cfa_offset 16
	.cfi_offset 15, -16
	pushq	%r14	#
	.cfi_def_cfa_offset 24
	.cfi_offset 14, -24
	pushq	%r13	#
	.cfi_def_cfa_offset 32
	.cfi_offset 13, -32
	pushq	%r12	#
	.cfi_def_cfa_offset 40
	.cfi_offset 12, -40
	pushq	%rbp	#
	.cfi_def_cfa_offset 48
	.cfi_offset 6, -48
	pushq	%rbx	#
	.cfi_def_cfa_offset 56
	.cfi_offset 3, -56
	subq	$72, %rsp	#,
	.cfi_def_cfa_offset 128
# blockquick.h:141: void sort_quick_block(int array[], int low, int high) {
	movl	%edx, 16(%rsp)	# high, %sfp
# blockquick.h:142:   if (low < high) {
	cmpl	%edx, %esi	# high, low
	jge	.L415	#,
	movl	%edx, %eax	# tmp295, high
# blockquick.h:143:     if (high - low > INSERTION_SORT_THRESH_BLOCK) {
	subl	%esi, %eax	# low, _232
	movq	%rdi, %rbx	# tmp293, array
	movl	%esi, %ebp	# tmp294, low
# blockquick.h:143:     if (high - low > INSERTION_SORT_THRESH_BLOCK) {
	cmpl	$20, %eax	#, _232
	jle	.L286	#,
	movl	%esi, %r12d	# low, low
	movq	%rdi, %rbp	# array, array
.L285:
# blockquick.h:144:       int pi = partition_quick_block(array, low, high);
	movl	16(%rsp), %edx	# %sfp,
	movl	%r12d, %esi	# low,
	movq	%rbp, %rdi	# array,
	call	partition_quick_block	#
	movl	%eax, 40(%rsp)	# pi, %sfp
# blockquick.h:145:       sort_quick_block(array, low, pi - 1);
	decl	%eax	# _2
	movl	%eax, 8(%rsp)	# _2, %sfp
# blockquick.h:142:   if (low < high) {
	cmpl	%r12d, %eax	# low, _2
	jle	.L294	#,
# blockquick.h:143:     if (high - low > INSERTION_SORT_THRESH_BLOCK) {
	subl	%r12d, %eax	# low, _169
# blockquick.h:143:     if (high - low > INSERTION_SORT_THRESH_BLOCK) {
	cmpl	$20, %eax	#, _169
	jle	.L291	#,
	movl	%r12d, %r15d	# low, low
	movq	%rbp, %r12	# array, array
.L290:
# blockquick.h:144:       int pi = partition_quick_block(array, low, high);
	movl	8(%rsp), %edx	# %sfp,
	movl	%r15d, %esi	# low,
	movq	%r12, %rdi	# array,
	call	partition_quick_block	#
	movl	%eax, 44(%rsp)	# pi, %sfp
# blockquick.h:145:       sort_quick_block(array, low, pi - 1);
	decl	%eax	# _22
	movl	%eax, 12(%rsp)	# _22, %sfp
# blockquick.h:142:   if (low < high) {
	cmpl	%r15d, %eax	# low, _22
	jle	.L299	#,
# blockquick.h:143:     if (high - low > INSERTION_SORT_THRESH_BLOCK) {
	subl	%r15d, %eax	# low, _106
	movq	%r12, %r13	# array, array
	movl	%r15d, %r14d	# low, low
# blockquick.h:143:     if (high - low > INSERTION_SORT_THRESH_BLOCK) {
	cmpl	$20, %eax	#, _106
	jle	.L296	#,
.L295:
# blockquick.h:144:       int pi = partition_quick_block(array, low, high);
	movl	12(%rsp), %edx	# %sfp,
	movl	%r14d, %esi	# low,
	movq	%r13, %rdi	# array,
	call	partition_quick_block	#
# blockquick.h:145:       sort_quick_block(array, low, pi - 1);
	leal	-1(%rax), %r15d	#, _31
# blockquick.h:144:       int pi = partition_quick_block(array, low, high);
	movl	%eax, 48(%rsp)	# pi, %sfp
# blockquick.h:142:   if (low < high) {
	cmpl	%r14d, %r15d	# low, _31
	jle	.L304	#,
# blockquick.h:143:     if (high - low > INSERTION_SORT_THRESH_BLOCK) {
	movl	%r15d, %eax	# _31, _69
	subl	%r14d, %eax	# low, _69
# blockquick.h:143:     if (high - low > INSERTION_SORT_THRESH_BLOCK) {
	cmpl	$20, %eax	#, _69
	jle	.L301	#,
	movl	%r15d, 20(%rsp)	# _31, %sfp
	movl	%r14d, %r15d	# low, low
.L300:
# blockquick.h:144:       int pi = partition_quick_block(array, low, high);
	movl	20(%rsp), %edx	# %sfp,
	movl	%r15d, %esi	# low,
	movq	%r13, %rdi	# array,
	call	partition_quick_block	#
# blockquick.h:145:       sort_quick_block(array, low, pi - 1);
	leal	-1(%rax), %r12d	#, _40
# blockquick.h:144:       int pi = partition_quick_block(array, low, high);
	movl	%eax, 52(%rsp)	# pi, %sfp
# blockquick.h:142:   if (low < high) {
	cmpl	%r15d, %r12d	# low, _40
	jle	.L309	#,
# blockquick.h:143:     if (high - low > INSERTION_SORT_THRESH_BLOCK) {
	movl	%r12d, %eax	# _40, _42
	subl	%r15d, %eax	# low, _42
	movl	%r15d, %r14d	# low, low
# blockquick.h:143:     if (high - low > INSERTION_SORT_THRESH_BLOCK) {
	cmpl	$20, %eax	#, _42
	jle	.L306	#,
.L305:
# blockquick.h:144:       int pi = partition_quick_block(array, low, high);
	movl	%r12d, %edx	# _40,
	movl	%r14d, %esi	# low,
	movq	%r13, %rdi	# array,
	call	partition_quick_block	#
# blockquick.h:145:       sort_quick_block(array, low, pi - 1);
	leal	-1(%rax), %r15d	#, _49
# blockquick.h:144:       int pi = partition_quick_block(array, low, high);
	movl	%eax, 56(%rsp)	# pi, %sfp
# blockquick.h:142:   if (low < high) {
	cmpl	%r14d, %r15d	# low, _49
	jle	.L314	#,
# blockquick.h:143:     if (high - low > INSERTION_SORT_THRESH_BLOCK) {
	movl	%r15d, %eax	# _49, _56
	subl	%r14d, %eax	# low, _56
# blockquick.h:143:     if (high - low > INSERTION_SORT_THRESH_BLOCK) {
	cmpl	$20, %eax	#, _56
	jle	.L311	#,
	movl	%r12d, 24(%rsp)	# _40, %sfp
	movl	%r14d, %r12d	# low, low
.L310:
# blockquick.h:144:       int pi = partition_quick_block(array, low, high);
	movl	%r15d, %edx	# _49,
	movl	%r12d, %esi	# low,
	movq	%r13, %rdi	# array,
	call	partition_quick_block	#
# blockquick.h:145:       sort_quick_block(array, low, pi - 1);
	leal	-1(%rax), %ebx	#, _58
# blockquick.h:144:       int pi = partition_quick_block(array, low, high);
	movl	%eax, 60(%rsp)	# pi, %sfp
# blockquick.h:142:   if (low < high) {
	cmpl	%r12d, %ebx	# low, _58
	jle	.L319	#,
# blockquick.h:143:     if (high - low > INSERTION_SORT_THRESH_BLOCK) {
	movl	%ebx, %eax	# _58, _65
	subl	%r12d, %eax	# low, _65
# blockquick.h:143:     if (high - low > INSERTION_SORT_THRESH_BLOCK) {
	cmpl	$20, %eax	#, _65
	jle	.L316	#,
	movl	%r15d, 28(%rsp)	# _49, %sfp
.L315:
# blockquick.h:144:       int pi = partition_quick_block(array, low, high);
	movl	%ebx, %edx	# _58,
	movl	%r12d, %esi	# low,
	movq	%r13, %rdi	# array,
	call	partition_quick_block	#
# blockquick.h:145:       sort_quick_block(array, low, pi - 1);
	leal	-1(%rax), %r15d	#, _67
# blockquick.h:144:       int pi = partition_quick_block(array, low, high);
	movl	%eax, %ebp	# tmp302, pi
# blockquick.h:142:   if (low < high) {
	cmpl	%r12d, %r15d	# low, _67
	jle	.L324	#,
# blockquick.h:143:     if (high - low > INSERTION_SORT_THRESH_BLOCK) {
	movl	%r15d, %eax	# _67, _170
	subl	%r12d, %eax	# low, _170
# blockquick.h:143:     if (high - low > INSERTION_SORT_THRESH_BLOCK) {
	cmpl	$20, %eax	#, _170
	jle	.L321	#,
	movl	%ebx, 32(%rsp)	# _58, %sfp
	movl	%ebp, 36(%rsp)	# pi, %sfp
	movl	%r15d, %ebx	# _67, _67
	movq	%r13, %rbp	# array, array
.L320:
# blockquick.h:144:       int pi = partition_quick_block(array, low, high);
	movl	%ebx, %edx	# _67,
	movl	%r12d, %esi	# low,
	movq	%rbp, %rdi	# array,
	call	partition_quick_block	#
# blockquick.h:145:       sort_quick_block(array, low, pi - 1);
	leal	-1(%rax), %r14d	#, _76
# blockquick.h:144:       int pi = partition_quick_block(array, low, high);
	movl	%eax, %r13d	# tmp303, pi
# blockquick.h:142:   if (low < high) {
	cmpl	%r12d, %r14d	# low, _76
	jle	.L328	#,
.L327:
# blockquick.h:143:     if (high - low > INSERTION_SORT_THRESH_BLOCK) {
	movl	%r14d, %eax	# _76, _83
	subl	%r12d, %eax	# low, _83
# blockquick.h:143:     if (high - low > INSERTION_SORT_THRESH_BLOCK) {
	cmpl	$20, %eax	#, _83
	jle	.L326	#,
# blockquick.h:144:       int pi = partition_quick_block(array, low, high);
	movl	%r12d, %esi	# low,
	movl	%r14d, %edx	# _76,
	movq	%rbp, %rdi	# array,
	call	partition_quick_block	#
	movl	%eax, %r15d	# tmp304, pi
# blockquick.h:145:       sort_quick_block(array, low, pi - 1);
	movl	%r12d, %esi	# low,
	leal	-1(%rax), %edx	#, tmp247
	movq	%rbp, %rdi	# array,
# blockquick.h:146:       sort_quick_block(array, pi + 1, high);
	leal	1(%r15), %r12d	#, low
# blockquick.h:145:       sort_quick_block(array, low, pi - 1);
	call	sort_quick_block	#
# blockquick.h:142:   if (low < high) {
	cmpl	%r12d, %r14d	# low, _76
	jg	.L327	#,
	.p2align 4,,10
	.p2align 3
.L328:
# blockquick.h:146:       sort_quick_block(array, pi + 1, high);
	leal	1(%r13), %r12d	#, low
# blockquick.h:142:   if (low < high) {
	cmpl	%r12d, %ebx	# low, _67
	jle	.L417	#,
# blockquick.h:143:     if (high - low > INSERTION_SORT_THRESH_BLOCK) {
	movl	%ebx, %eax	# _67, _170
	subl	%r12d, %eax	# low, _170
# blockquick.h:143:     if (high - low > INSERTION_SORT_THRESH_BLOCK) {
	cmpl	$20, %eax	#, _170
	jg	.L320	#,
	movq	%rbp, %r13	# array, array
	movl	32(%rsp), %ebx	# %sfp, _58
	movl	36(%rsp), %ebp	# %sfp, pi
.L321:
# blockquick.h:148:       insertionSort(array + low, high - low + 1);
	movslq	%r12d, %r12	# low, low
# blockquick.h:148:       insertionSort(array + low, high - low + 1);
	leaq	0(%r13,%r12,4), %r9	#, _81
	leaq	4(%r9), %rsi	#, ivtmp.691
	cltq
	xorl	%ecx, %ecx	# ivtmp.688
.L336:
	leaq	0(,%rcx,4), %rdx	#, tmp255
	leaq	-4(%rsi), %r8	#, tmp254
# insertionssort.h:6:     element = array[i];
	movl	(%rsi), %r10d	# MEM[base: _360, offset: 0B], element
	subq	%rdx, %r8	# tmp255, _368
	movq	%rsi, %rdx	# ivtmp.691, ivtmp.680
.L333:
# insertionssort.h:9:     while (j >= 0 && array[j] > element) {
	movl	-4(%rdx), %r11d	# MEM[base: _378, offset: -4B], _122
	movq	%rdx, %rdi	# ivtmp.680, _378
# insertionssort.h:9:     while (j >= 0 && array[j] > element) {
	cmpl	%r11d, %r10d	# _122, element
	jge	.L334	#,
# insertionssort.h:10:       array[j + 1] = array[j];
	movl	%r11d, (%rdx)	# _122, MEM[base: _378, offset: 0B]
# insertionssort.h:9:     while (j >= 0 && array[j] > element) {
	leaq	-4(%rdi), %rdx	#, ivtmp.680
	cmpq	%rdx, %r8	# ivtmp.680, _368
	jne	.L333	#,
	movq	%r9, %rdi	# _81, _378
.L334:
# insertionssort.h:5:   for (i = 1; i < n; i++) {
	incq	%rcx	# ivtmp.688
# insertionssort.h:13:     array[j + 1] = element;
	movl	%r10d, (%rdi)	# element, *prephitmp_684
# insertionssort.h:5:   for (i = 1; i < n; i++) {
	addq	$4, %rsi	#, ivtmp.691
	cmpq	%rcx, %rax	# ivtmp.688, _355
	jne	.L336	#,
.L324:
# blockquick.h:146:       sort_quick_block(array, pi + 1, high);
	leal	1(%rbp), %r12d	#, low
# blockquick.h:142:   if (low < high) {
	cmpl	%r12d, %ebx	# low, _58
	jle	.L418	#,
.L318:
# blockquick.h:143:     if (high - low > INSERTION_SORT_THRESH_BLOCK) {
	movl	%ebx, %eax	# _58, _65
	subl	%r12d, %eax	# low, _65
# blockquick.h:143:     if (high - low > INSERTION_SORT_THRESH_BLOCK) {
	cmpl	$20, %eax	#, _65
	jg	.L315	#,
	movl	28(%rsp), %r15d	# %sfp, _49
.L316:
# blockquick.h:148:       insertionSort(array + low, high - low + 1);
	movslq	%r12d, %rsi	# low, low
# blockquick.h:148:       insertionSort(array + low, high - low + 1);
	leaq	0(%r13,%rsi,4), %r9	#, _72
	leaq	4(%r9), %rsi	#, ivtmp.669
	cltq
	xorl	%ecx, %ecx	# ivtmp.666
.L340:
	leaq	0(,%rcx,4), %rdx	#, tmp259
	leaq	-4(%rsi), %r8	#, tmp258
# insertionssort.h:6:     element = array[i];
	movl	(%rsi), %r10d	# MEM[base: _393, offset: 0B], element
	subq	%rdx, %r8	# tmp259, _401
	movq	%rsi, %rdx	# ivtmp.669, ivtmp.658
.L337:
# insertionssort.h:9:     while (j >= 0 && array[j] > element) {
	movl	-4(%rdx), %r11d	# MEM[base: _411, offset: -4B], _143
	movq	%rdx, %rdi	# ivtmp.658, _411
# insertionssort.h:9:     while (j >= 0 && array[j] > element) {
	cmpl	%r11d, %r10d	# _143, element
	jge	.L338	#,
# insertionssort.h:10:       array[j + 1] = array[j];
	movl	%r11d, (%rdx)	# _143, MEM[base: _411, offset: 0B]
# insertionssort.h:9:     while (j >= 0 && array[j] > element) {
	leaq	-4(%rdi), %rdx	#, ivtmp.658
	cmpq	%rdx, %r8	# ivtmp.658, _401
	jne	.L337	#,
	movq	%r9, %rdi	# _72, _411
.L338:
# insertionssort.h:5:   for (i = 1; i < n; i++) {
	incq	%rcx	# ivtmp.666
# insertionssort.h:13:     array[j + 1] = element;
	movl	%r10d, (%rdi)	# element, *prephitmp_709
# insertionssort.h:5:   for (i = 1; i < n; i++) {
	addq	$4, %rsi	#, ivtmp.669
	cmpq	%rcx, %rax	# ivtmp.666, _388
	jne	.L340	#,
.L319:
# blockquick.h:146:       sort_quick_block(array, pi + 1, high);
	movl	60(%rsp), %r12d	# %sfp, pi
	incl	%r12d	# pi
# blockquick.h:142:   if (low < high) {
	cmpl	%r12d, %r15d	# low, _49
	jle	.L419	#,
.L313:
# blockquick.h:143:     if (high - low > INSERTION_SORT_THRESH_BLOCK) {
	movl	%r15d, %eax	# _49, _56
	subl	%r12d, %eax	# low, _56
# blockquick.h:143:     if (high - low > INSERTION_SORT_THRESH_BLOCK) {
	cmpl	$20, %eax	#, _56
	jg	.L310	#,
	movl	%r12d, %r14d	# low, low
	movl	24(%rsp), %r12d	# %sfp, _40
.L311:
# blockquick.h:148:       insertionSort(array + low, high - low + 1);
	movslq	%r14d, %rsi	# low, low
# blockquick.h:148:       insertionSort(array + low, high - low + 1);
	leaq	0(%r13,%rsi,4), %r9	#, _63
	leaq	4(%r9), %rdx	#, ivtmp.647
	cltq
	xorl	%esi, %esi	# ivtmp.644
.L344:
	leaq	0(,%rsi,4), %rcx	#, tmp263
	leaq	-4(%rdx), %r8	#, tmp262
# insertionssort.h:6:     element = array[i];
	movl	(%rdx), %r10d	# MEM[base: _516, offset: 0B], element
	subq	%rcx, %r8	# tmp263, _524
	movq	%rdx, %rcx	# ivtmp.647, ivtmp.636
.L341:
# insertionssort.h:9:     while (j >= 0 && array[j] > element) {
	movl	-4(%rcx), %r11d	# MEM[base: _534, offset: -4B], _164
	movq	%rcx, %rdi	# ivtmp.636, _534
# insertionssort.h:9:     while (j >= 0 && array[j] > element) {
	cmpl	%r11d, %r10d	# _164, element
	jge	.L342	#,
# insertionssort.h:10:       array[j + 1] = array[j];
	movl	%r11d, (%rcx)	# _164, MEM[base: _534, offset: 0B]
# insertionssort.h:9:     while (j >= 0 && array[j] > element) {
	leaq	-4(%rdi), %rcx	#, ivtmp.636
	cmpq	%rcx, %r8	# ivtmp.636, _524
	jne	.L341	#,
	movq	%r9, %rdi	# _63, _534
.L342:
# insertionssort.h:5:   for (i = 1; i < n; i++) {
	incq	%rsi	# ivtmp.644
# insertionssort.h:13:     array[j + 1] = element;
	movl	%r10d, (%rdi)	# element, *prephitmp_734
# insertionssort.h:5:   for (i = 1; i < n; i++) {
	addq	$4, %rdx	#, ivtmp.647
	cmpq	%rsi, %rax	# ivtmp.644, _511
	jne	.L344	#,
.L314:
# blockquick.h:146:       sort_quick_block(array, pi + 1, high);
	movl	56(%rsp), %r14d	# %sfp, pi
	incl	%r14d	# pi
# blockquick.h:142:   if (low < high) {
	cmpl	%r14d, %r12d	# low, _40
	jle	.L309	#,
# blockquick.h:143:     if (high - low > INSERTION_SORT_THRESH_BLOCK) {
	movl	%r12d, %eax	# _40, _42
	subl	%r14d, %eax	# low, _42
# blockquick.h:143:     if (high - low > INSERTION_SORT_THRESH_BLOCK) {
	cmpl	$20, %eax	#, _42
	jg	.L305	#,
	movl	%r14d, %r15d	# low, low
.L306:
# blockquick.h:148:       insertionSort(array + low, high - low + 1);
	movslq	%r15d, %rsi	# low, low
# blockquick.h:148:       insertionSort(array + low, high - low + 1);
	leaq	0(%r13,%rsi,4), %r9	#, _54
	leaq	4(%r9), %rdx	#, ivtmp.625
	cltq
	xorl	%esi, %esi	# ivtmp.622
.L348:
	leaq	0(,%rsi,4), %rcx	#, tmp267
	leaq	-4(%rdx), %r8	#, tmp266
# insertionssort.h:6:     element = array[i];
	movl	(%rdx), %r10d	# MEM[base: _549, offset: 0B], element
	subq	%rcx, %r8	# tmp267, _557
	movq	%rdx, %rcx	# ivtmp.625, ivtmp.614
.L345:
# insertionssort.h:9:     while (j >= 0 && array[j] > element) {
	movl	-4(%rcx), %r11d	# MEM[base: _567, offset: -4B], _185
	movq	%rcx, %rdi	# ivtmp.614, _567
# insertionssort.h:9:     while (j >= 0 && array[j] > element) {
	cmpl	%r11d, %r10d	# _185, element
	jge	.L346	#,
# insertionssort.h:10:       array[j + 1] = array[j];
	movl	%r11d, (%rcx)	# _185, MEM[base: _567, offset: 0B]
# insertionssort.h:9:     while (j >= 0 && array[j] > element) {
	leaq	-4(%rdi), %rcx	#, ivtmp.614
	cmpq	%rcx, %r8	# ivtmp.614, _557
	jne	.L345	#,
	movq	%r9, %rdi	# _54, _567
.L346:
# insertionssort.h:5:   for (i = 1; i < n; i++) {
	incq	%rsi	# ivtmp.622
# insertionssort.h:13:     array[j + 1] = element;
	movl	%r10d, (%rdi)	# element, *prephitmp_759
# insertionssort.h:5:   for (i = 1; i < n; i++) {
	addq	$4, %rdx	#, ivtmp.625
	cmpq	%rsi, %rax	# ivtmp.622, _544
	jne	.L348	#,
.L309:
# blockquick.h:146:       sort_quick_block(array, pi + 1, high);
	movl	52(%rsp), %r15d	# %sfp, pi
	incl	%r15d	# pi
# blockquick.h:142:   if (low < high) {
	cmpl	%r15d, 20(%rsp)	# low, %sfp
	jle	.L304	#,
# blockquick.h:143:     if (high - low > INSERTION_SORT_THRESH_BLOCK) {
	movl	20(%rsp), %eax	# %sfp, _69
	subl	%r15d, %eax	# low, _69
# blockquick.h:143:     if (high - low > INSERTION_SORT_THRESH_BLOCK) {
	cmpl	$20, %eax	#, _69
	jg	.L300	#,
	movl	%r15d, %r14d	# low, low
.L301:
# blockquick.h:148:       insertionSort(array + low, high - low + 1);
	movslq	%r14d, %rsi	# low, low
# blockquick.h:148:       insertionSort(array + low, high - low + 1);
	leaq	0(%r13,%rsi,4), %r9	#, _45
	leaq	4(%r9), %rdx	#, ivtmp.603
	cltq
	xorl	%esi, %esi	# ivtmp.600
.L352:
	leaq	0(,%rsi,4), %rcx	#, tmp271
	leaq	-4(%rdx), %r8	#, tmp270
# insertionssort.h:6:     element = array[i];
	movl	(%rdx), %r10d	# MEM[base: _582, offset: 0B], element
	subq	%rcx, %r8	# tmp271, _590
	movq	%rdx, %rcx	# ivtmp.603, ivtmp.592
.L349:
# insertionssort.h:9:     while (j >= 0 && array[j] > element) {
	movl	-4(%rcx), %r11d	# MEM[base: _600, offset: -4B], _206
	movq	%rcx, %rdi	# ivtmp.592, _600
# insertionssort.h:9:     while (j >= 0 && array[j] > element) {
	cmpl	%r11d, %r10d	# _206, element
	jge	.L350	#,
# insertionssort.h:10:       array[j + 1] = array[j];
	movl	%r11d, (%rcx)	# _206, MEM[base: _600, offset: 0B]
# insertionssort.h:9:     while (j >= 0 && array[j] > element) {
	leaq	-4(%rdi), %rcx	#, ivtmp.592
	cmpq	%rcx, %r8	# ivtmp.592, _590
	jne	.L349	#,
	movq	%r9, %rdi	# _45, _600
.L350:
# insertionssort.h:5:   for (i = 1; i < n; i++) {
	incq	%rsi	# ivtmp.600
# insertionssort.h:13:     array[j + 1] = element;
	movl	%r10d, (%rdi)	# element, *prephitmp_784
# insertionssort.h:5:   for (i = 1; i < n; i++) {
	addq	$4, %rdx	#, ivtmp.603
	cmpq	%rsi, %rax	# ivtmp.600, _577
	jne	.L352	#,
.L304:
# blockquick.h:146:       sort_quick_block(array, pi + 1, high);
	movl	48(%rsp), %r14d	# %sfp, pi
	incl	%r14d	# pi
# blockquick.h:142:   if (low < high) {
	cmpl	%r14d, 12(%rsp)	# low, %sfp
	jle	.L420	#,
# blockquick.h:143:     if (high - low > INSERTION_SORT_THRESH_BLOCK) {
	movl	12(%rsp), %eax	# %sfp, _106
	subl	%r14d, %eax	# low, _106
# blockquick.h:143:     if (high - low > INSERTION_SORT_THRESH_BLOCK) {
	cmpl	$20, %eax	#, _106
	jg	.L295	#,
	movq	%r13, %r12	# array, array
	movl	%r14d, %r15d	# low, low
.L296:
# blockquick.h:148:       insertionSort(array + low, high - low + 1);
	movslq	%r15d, %rsi	# low, low
# blockquick.h:148:       insertionSort(array + low, high - low + 1);
	leaq	(%r12,%rsi,4), %r9	#, _36
	leaq	4(%r9), %rdx	#, ivtmp.581
	cltq
	xorl	%esi, %esi	# ivtmp.578
.L356:
	leaq	0(,%rsi,4), %rcx	#, tmp275
	leaq	-4(%rdx), %r8	#, tmp274
# insertionssort.h:6:     element = array[i];
	movl	(%rdx), %r10d	# MEM[base: _615, offset: 0B], element
	subq	%rcx, %r8	# tmp275, _623
	movq	%rdx, %rcx	# ivtmp.581, ivtmp.570
.L353:
# insertionssort.h:9:     while (j >= 0 && array[j] > element) {
	movl	-4(%rcx), %r11d	# MEM[base: _633, offset: -4B], _227
	movq	%rcx, %rdi	# ivtmp.570, _633
# insertionssort.h:9:     while (j >= 0 && array[j] > element) {
	cmpl	%r11d, %r10d	# _227, element
	jge	.L354	#,
# insertionssort.h:10:       array[j + 1] = array[j];
	movl	%r11d, (%rcx)	# _227, MEM[base: _633, offset: 0B]
# insertionssort.h:9:     while (j >= 0 && array[j] > element) {
	leaq	-4(%rdi), %rcx	#, ivtmp.570
	cmpq	%rcx, %r8	# ivtmp.570, _623
	jne	.L353	#,
	movq	%r9, %rdi	# _36, _633
.L354:
# insertionssort.h:5:   for (i = 1; i < n; i++) {
	incq	%rsi	# ivtmp.578
# insertionssort.h:13:     array[j + 1] = element;
	movl	%r10d, (%rdi)	# element, *prephitmp_809
# insertionssort.h:5:   for (i = 1; i < n; i++) {
	addq	$4, %rdx	#, ivtmp.581
	cmpq	%rsi, %rax	# ivtmp.578, _610
	jne	.L356	#,
.L299:
# blockquick.h:146:       sort_quick_block(array, pi + 1, high);
	movl	44(%rsp), %r15d	# %sfp, pi
	incl	%r15d	# pi
# blockquick.h:142:   if (low < high) {
	cmpl	%r15d, 8(%rsp)	# low, %sfp
	jle	.L421	#,
.L293:
# blockquick.h:143:     if (high - low > INSERTION_SORT_THRESH_BLOCK) {
	movl	8(%rsp), %eax	# %sfp, _169
	subl	%r15d, %eax	# low, _169
# blockquick.h:143:     if (high - low > INSERTION_SORT_THRESH_BLOCK) {
	cmpl	$20, %eax	#, _169
	jg	.L290	#,
	movq	%r12, %rbp	# array, array
	movl	%r15d, %r12d	# low, low
.L291:
# blockquick.h:148:       insertionSort(array + low, high - low + 1);
	movslq	%r12d, %rsi	# low, low
# blockquick.h:148:       insertionSort(array + low, high - low + 1);
	leaq	0(%rbp,%rsi,4), %r9	#, _27
	leaq	4(%r9), %rdx	#, ivtmp.559
	cltq
	xorl	%esi, %esi	# ivtmp.556
.L360:
	leaq	0(,%rsi,4), %rcx	#, tmp279
	leaq	-4(%rdx), %r8	#, tmp278
# insertionssort.h:6:     element = array[i];
	movl	(%rdx), %r10d	# MEM[base: _697, offset: 0B], element
	subq	%rcx, %r8	# tmp279, _724
	movq	%rdx, %rcx	# ivtmp.559, ivtmp.548
.L357:
# insertionssort.h:9:     while (j >= 0 && array[j] > element) {
	movl	-4(%rcx), %r11d	# MEM[base: _772, offset: -4B], _248
	movq	%rcx, %rdi	# ivtmp.548, _772
# insertionssort.h:9:     while (j >= 0 && array[j] > element) {
	cmpl	%r11d, %r10d	# _248, element
	jge	.L358	#,
# insertionssort.h:10:       array[j + 1] = array[j];
	movl	%r11d, (%rcx)	# _248, MEM[base: _772, offset: 0B]
# insertionssort.h:9:     while (j >= 0 && array[j] > element) {
	leaq	-4(%rdi), %rcx	#, ivtmp.548
	cmpq	%rcx, %r8	# ivtmp.548, _724
	jne	.L357	#,
	movq	%r9, %rdi	# _27, _772
.L358:
# insertionssort.h:5:   for (i = 1; i < n; i++) {
	incq	%rsi	# ivtmp.556
# insertionssort.h:13:     array[j + 1] = element;
	movl	%r10d, (%rdi)	# element, *prephitmp_834
# insertionssort.h:5:   for (i = 1; i < n; i++) {
	addq	$4, %rdx	#, ivtmp.559
	cmpq	%rsi, %rax	# ivtmp.556, _673
	jne	.L360	#,
.L294:
# blockquick.h:146:       sort_quick_block(array, pi + 1, high);
	movl	40(%rsp), %r12d	# %sfp, pi
	incl	%r12d	# pi
# blockquick.h:142:   if (low < high) {
	cmpl	16(%rsp), %r12d	# %sfp, low
	jge	.L415	#,
# blockquick.h:143:     if (high - low > INSERTION_SORT_THRESH_BLOCK) {
	movl	16(%rsp), %eax	# %sfp, _232
	subl	%r12d, %eax	# low, _232
# blockquick.h:143:     if (high - low > INSERTION_SORT_THRESH_BLOCK) {
	cmpl	$20, %eax	#, _232
	jg	.L285	#,
	movq	%rbp, %rbx	# array, array
	movl	%r12d, %ebp	# low, low
.L286:
# blockquick.h:148:       insertionSort(array + low, high - low + 1);
	movslq	%ebp, %rsi	# low, low
# blockquick.h:148:       insertionSort(array + low, high - low + 1);
	leaq	(%rbx,%rsi,4), %r9	#, _8
	leaq	4(%r9), %rdx	#, ivtmp.537
	cltq
	xorl	%esi, %esi	# ivtmp.534
.L364:
	leaq	0(,%rsi,4), %rcx	#, tmp283
	leaq	-4(%rdx), %r8	#, tmp282
# insertionssort.h:6:     element = array[i];
	movl	(%rdx), %r10d	# MEM[base: _825, offset: 0B], element
	subq	%rcx, %r8	# tmp283, _852
	movq	%rdx, %rcx	# ivtmp.537, ivtmp.526
.L361:
# insertionssort.h:9:     while (j >= 0 && array[j] > element) {
	movl	-4(%rcx), %r11d	# MEM[base: _14, offset: -4B], _269
	movq	%rcx, %rdi	# ivtmp.526, _14
# insertionssort.h:9:     while (j >= 0 && array[j] > element) {
	cmpl	%r11d, %r10d	# _269, element
	jge	.L362	#,
# insertionssort.h:10:       array[j + 1] = array[j];
	movl	%r11d, (%rcx)	# _269, MEM[base: _14, offset: 0B]
# insertionssort.h:9:     while (j >= 0 && array[j] > element) {
	leaq	-4(%rdi), %rcx	#, ivtmp.526
	cmpq	%r8, %rcx	# _852, ivtmp.526
	jne	.L361	#,
	movq	%r9, %rdi	# _8, _14
.L362:
# insertionssort.h:5:   for (i = 1; i < n; i++) {
	incq	%rsi	# ivtmp.534
# insertionssort.h:13:     array[j + 1] = element;
	movl	%r10d, (%rdi)	# element, *prephitmp_859
# insertionssort.h:5:   for (i = 1; i < n; i++) {
	addq	$4, %rdx	#, ivtmp.537
	cmpq	%rsi, %rax	# ivtmp.534, _801
	jne	.L364	#,
.L415:
# blockquick.h:151: }
	addq	$72, %rsp	#,
	.cfi_remember_state
	.cfi_def_cfa_offset 56
	popq	%rbx	#
	.cfi_def_cfa_offset 48
	popq	%rbp	#
	.cfi_def_cfa_offset 40
	popq	%r12	#
	.cfi_def_cfa_offset 32
	popq	%r13	#
	.cfi_def_cfa_offset 24
	popq	%r14	#
	.cfi_def_cfa_offset 16
	popq	%r15	#
	.cfi_def_cfa_offset 8
	ret	
	.p2align 4,,10
	.p2align 3
.L417:
	.cfi_restore_state
	movq	%rbp, %r13	# array, array
	movl	36(%rsp), %ebp	# %sfp, pi
	movl	32(%rsp), %ebx	# %sfp, _58
# blockquick.h:146:       sort_quick_block(array, pi + 1, high);
	leal	1(%rbp), %r12d	#, low
# blockquick.h:142:   if (low < high) {
	cmpl	%r12d, %ebx	# low, _58
	jg	.L318	#,
.L418:
# blockquick.h:146:       sort_quick_block(array, pi + 1, high);
	movl	60(%rsp), %r12d	# %sfp, pi
	movl	28(%rsp), %r15d	# %sfp, _49
	incl	%r12d	# pi
# blockquick.h:142:   if (low < high) {
	cmpl	%r12d, %r15d	# low, _49
	jg	.L313	#,
.L419:
	movl	24(%rsp), %r12d	# %sfp, _40
	jmp	.L314	#
	.p2align 4,,10
	.p2align 3
.L326:
# blockquick.h:148:       insertionSort(array + low, high - low + 1);
	movslq	%r12d, %r12	# low, low
# blockquick.h:148:       insertionSort(array + low, high - low + 1);
	leaq	0(%rbp,%r12,4), %r12	#, _90
	leaq	4(%r12), %r10	#, ivtmp.713
	movslq	%eax, %r9	# _83, _207
	xorl	%r11d, %r11d	# ivtmp.710
.L332:
	leaq	0(,%r11,4), %rax	#, tmp251
	leaq	-4(%r10), %rcx	#, tmp250
# insertionssort.h:6:     element = array[i];
	movl	(%r10), %esi	# MEM[base: _253, offset: 0B], element
	subq	%rax, %rcx	# tmp251, _296
	movq	%r10, %rax	# ivtmp.713, ivtmp.702
.L329:
# insertionssort.h:9:     while (j >= 0 && array[j] > element) {
	movl	-4(%rax), %edi	# MEM[base: _306, offset: -4B], _101
	movq	%rax, %rdx	# ivtmp.702, _306
# insertionssort.h:9:     while (j >= 0 && array[j] > element) {
	cmpl	%edi, %esi	# _101, element
	jge	.L330	#,
# insertionssort.h:10:       array[j + 1] = array[j];
	movl	%edi, (%rax)	# _101, MEM[base: _306, offset: 0B]
# insertionssort.h:9:     while (j >= 0 && array[j] > element) {
	leaq	-4(%rdx), %rax	#, ivtmp.702
	cmpq	%rax, %rcx	# ivtmp.702, _296
	jne	.L329	#,
	movq	%r12, %rdx	# _90, _306
.L330:
# insertionssort.h:5:   for (i = 1; i < n; i++) {
	incq	%r11	# ivtmp.710
# insertionssort.h:13:     array[j + 1] = element;
	movl	%esi, (%rdx)	# element, *prephitmp_659
# insertionssort.h:5:   for (i = 1; i < n; i++) {
	addq	$4, %r10	#, ivtmp.713
	cmpq	%r11, %r9	# ivtmp.710, _207
	je	.L328	#,
	jmp	.L332	#
.L420:
# blockquick.h:146:       sort_quick_block(array, pi + 1, high);
	movl	44(%rsp), %r15d	# %sfp, pi
	movq	%r13, %r12	# array, array
	incl	%r15d	# pi
# blockquick.h:142:   if (low < high) {
	cmpl	%r15d, 8(%rsp)	# low, %sfp
	jg	.L293	#,
.L421:
	movq	%r12, %rbp	# array, array
	jmp	.L294	#
	.cfi_endproc
.LFE40:
	.size	sort_quick_block, .-sort_quick_block
	.p2align 4
	.globl	sort_quick_hoare
	.type	sort_quick_hoare, @function
sort_quick_hoare:
.LFB5437:
	.cfi_startproc
	endbr64	
# quickuhoare.h:27:   if (low < high) {
	cmpl	%edx, %esi	# high, low
	jge	.L442	#,
# quickuhoare.h:26: void sort_quick_hoare(int array[], int low, int high) {
	pushq	%r14	#
	.cfi_def_cfa_offset 16
	.cfi_offset 14, -16
# quickuhoare.h:28:     if (high - low > 30) {
	movl	%edx, %eax	# high, _1
	subl	%esi, %eax	# low, _1
# quickuhoare.h:26: void sort_quick_hoare(int array[], int low, int high) {
	pushq	%r13	#
	.cfi_def_cfa_offset 24
	.cfi_offset 13, -24
	movl	%esi, %r14d	# tmp125, low
	movq	%rdi, %r13	# tmp124, array
	pushq	%r12	#
	.cfi_def_cfa_offset 32
	.cfi_offset 12, -32
	pushq	%rbp	#
	.cfi_def_cfa_offset 40
	.cfi_offset 6, -40
	pushq	%rbx	#
	.cfi_def_cfa_offset 48
	.cfi_offset 3, -48
	movl	%edx, %ebx	# tmp126, high
# quickuhoare.h:28:     if (high - low > 30) {
	cmpl	$30, %eax	#, _1
	jle	.L436	#,
# quickuhoare.h:15:   int j = high + 1;
	leal	1(%rdx), %ebp	#, _117
.L425:
# quickuhoare.h:12:   int pivot = median_of_three_of_median_of_three(array, low, high);
	movl	%ebx, %edx	# high,
	movl	%r14d, %esi	# low,
	movq	%r13, %rdi	# array,
	call	median_of_three_of_median_of_three	#
	movl	%eax, %esi	# tmp127, pivot
	movslq	%r14d, %r8	# low, ivtmp.760
# quickuhoare.h:15:   int j = high + 1;
	movl	%ebp, %edx	# _117, j
	.p2align 4,,10
	.p2align 3
.L426:
# quickuhoare.h:17:     do {i++;} while (array[i] < pivot);
	movl	0(%r13,%r8,4), %r9d	# MEM[base: array_12(D), index: ivtmp.760_80, step: 4, offset: 0B], _26
# quickuhoare.h:17:     do {i++;} while (array[i] < pivot);
	cmpl	%r9d, %esi	# _26, pivot
	jg	.L427	#,
	movslq	%edx, %rax	# j, j
	leaq	-4(%r13,%rax,4), %rax	#, ivtmp.752
	.p2align 4,,10
	.p2align 3
.L428:
# quickuhoare.h:18:     do {j--;} while (array[j] > pivot);
	movq	%rax, %rdi	# ivtmp.752, _31
	movl	(%rax), %ecx	# MEM[base: _81, offset: 4B], _32
	movslq	%edx, %r12	# j,
# quickuhoare.h:18:     do {j--;} while (array[j] > pivot);
	subq	$4, %rax	#, ivtmp.752
# quickuhoare.h:18:     do {j--;} while (array[j] > pivot);
	decl	%edx	# j
# quickuhoare.h:18:     do {j--;} while (array[j] > pivot);
	cmpl	%ecx, %esi	# _32, pivot
	jl	.L428	#,
# quickuhoare.h:19:     if (i >= j) {
	cmpl	%r8d, %edx	# ivtmp.760, j
	jle	.L445	#,
# swap.h:3:   *a = *b;
	movl	%ecx, 0(%r13,%r8,4)	# _32, MEM[base: array_12(D), index: ivtmp.760_80, step: 4, offset: 0B]
# swap.h:4:   *b = t;
	movl	%r9d, (%rdi)	# _26, *_31
.L427:
	incq	%r8	# ivtmp.760
	jmp	.L426	#
	.p2align 4,,10
	.p2align 3
.L445:
# quickuhoare.h:30:       sort_quick_hoare(array, low, pi);
	movl	%r14d, %esi	# low,
	movq	%r13, %rdi	# array,
	call	sort_quick_hoare	#
# quickuhoare.h:27:   if (low < high) {
	cmpl	%r12d, %ebx	# low, high
	jle	.L440	#,
# quickuhoare.h:28:     if (high - low > 30) {
	movl	%ebx, %eax	# high, _1
	subl	%r12d, %eax	# low, _1
# quickuhoare.h:28:     if (high - low > 30) {
	cmpl	$30, %eax	#, _1
	jle	.L424	#,
	movl	%r12d, %r14d	# low, low
	jmp	.L425	#
.L436:
	movslq	%esi, %r12	# low,
.L424:
# quickuhoare.h:33:       insertionSort(array + low, high - low + 1);
	leaq	0(%r13,%r12,4), %r11	#, _7
	leaq	4(%r11), %r8	#, ivtmp.739
	movslq	%eax, %r10	# _1, _96
	xorl	%r9d, %r9d	# ivtmp.736
	.p2align 4,,10
	.p2align 3
.L435:
	leaq	0(,%r9,4), %rax	#, tmp122
	leaq	-4(%r8), %rsi	#, tmp121
# insertionssort.h:6:     element = array[i];
	movl	(%r8), %edi	# MEM[base: _101, offset: 0B], element
	subq	%rax, %rsi	# tmp122, _109
	movq	%r8, %rax	# ivtmp.739, ivtmp.728
	.p2align 4,,10
	.p2align 3
.L432:
# insertionssort.h:9:     while (j >= 0 && array[j] > element) {
	movl	-4(%rax), %edx	# MEM[base: _123, offset: -4B], _50
	movq	%rax, %rcx	# ivtmp.728, _123
# insertionssort.h:9:     while (j >= 0 && array[j] > element) {
	cmpl	%edx, %edi	# _50, element
	jge	.L433	#,
# insertionssort.h:10:       array[j + 1] = array[j];
	movl	%edx, (%rax)	# _50, MEM[base: _123, offset: 0B]
# insertionssort.h:9:     while (j >= 0 && array[j] > element) {
	leaq	-4(%rcx), %rax	#, ivtmp.728
	cmpq	%rax, %rsi	# ivtmp.728, _109
	jne	.L432	#,
	movq	%r11, %rcx	# _7, _123
.L433:
# insertionssort.h:5:   for (i = 1; i < n; i++) {
	incq	%r9	# ivtmp.736
# insertionssort.h:13:     array[j + 1] = element;
	movl	%edi, (%rcx)	# element, *prephitmp_153
# insertionssort.h:5:   for (i = 1; i < n; i++) {
	addq	$4, %r8	#, ivtmp.739
	cmpq	%r9, %r10	# ivtmp.736, _96
	jne	.L435	#,
.L440:
# quickuhoare.h:36: }
	popq	%rbx	#
	.cfi_def_cfa_offset 40
	popq	%rbp	#
	.cfi_def_cfa_offset 32
	popq	%r12	#
	.cfi_def_cfa_offset 24
	popq	%r13	#
	.cfi_def_cfa_offset 16
	popq	%r14	#
	.cfi_def_cfa_offset 8
	ret	
.L442:
	.cfi_restore 3
	.cfi_restore 6
	.cfi_restore 12
	.cfi_restore 13
	.cfi_restore 14
	ret	
	.cfi_endproc
.LFE5437:
	.size	sort_quick_hoare, .-sort_quick_hoare
	.p2align 4
	.globl	sort_quick_optimized_swap_asm
	.type	sort_quick_optimized_swap_asm, @function
sort_quick_optimized_swap_asm:
.LFB5431:
	.cfi_startproc
	endbr64	
# quickoswapasm.h:55:   if (low < high) {
	cmpl	%edx, %esi	# high, low
	jge	.L460	#,
# quickoswapasm.h:54: void sort_quick_optimized_swap_asm(int array[], int low, int high) {
	pushq	%r15	#
	.cfi_def_cfa_offset 16
	.cfi_offset 15, -16
# quickoswapasm.h:56:     if (high - low > INSERTION_SORT_THRESH) {
	movl	%edx, %eax	# high, _1
	subl	%esi, %eax	# low, _1
# quickoswapasm.h:54: void sort_quick_optimized_swap_asm(int array[], int low, int high) {
	pushq	%r14	#
	.cfi_def_cfa_offset 24
	.cfi_offset 14, -24
	movl	%edx, %r15d	# tmp116, high
	pushq	%r13	#
	.cfi_def_cfa_offset 32
	.cfi_offset 13, -32
	movq	%rdi, %r13	# tmp114, array
	pushq	%r12	#
	.cfi_def_cfa_offset 40
	.cfi_offset 12, -40
	pushq	%rbp	#
	.cfi_def_cfa_offset 48
	.cfi_offset 6, -48
	movl	%esi, %ebp	# tmp115, low
	pushq	%rbx	#
	.cfi_def_cfa_offset 56
	.cfi_offset 3, -56
	subq	$8, %rsp	#,
	.cfi_def_cfa_offset 64
# quickoswapasm.h:56:     if (high - low > INSERTION_SORT_THRESH) {
	cmpl	$20, %eax	#, _1
	jle	.L448	#,
# quickoswapasm.h:57:       int pi = partition_quick_optimized_swap_asm(array, low, high);
	movslq	%edx, %r14	# high, _80
.L449:
# quickoswapasm.h:22:   int pivot = median_of_three_of_median_of_three(array, low, high);
	movl	%r15d, %edx	# high,
	movl	%ebp, %esi	# low,
	movq	%r13, %rdi	# array,
	call	median_of_three_of_median_of_three	#
# quickoswapasm.h:57:       int pi = partition_quick_optimized_swap_asm(array, low, high);
	movslq	%ebp, %rbx	# low, low
# quickoswapasm.h:25:   asm volatile("    movq    %[i], %%r12\n"
#APP
# 25 "quickoswapasm.h" 1
	    movq    %rbx, %r12	# low
1:

    movl     (%r13,%r12,4), %r8d	# array
    movl     (%r13,%rbx,4), %r9d	# array, low
    xorq      %r10, %r10
    cmp      %eax, %r8d	# tmp117
    setl     %r10b
    movl     %r9d, %r11d
    cmovll   %r8d, %r11d
    movl     %r11d, (%r13,%rbx,4)	# array, low
    cmovll   %r9d, %r8d
    movl     %r8d, (%r13,%r12,4)	# array
    addq     %r10, %rbx	# low

    incq     %r12
    cmp      %r12, %r14	# _80
    jne      1b

    movl     (%r13,%rbx,4), %r9d	# array, low
    movl     (%r13,%r14,4), %r8d	# array, _80
    movl     %r9d, (%r13,%r14,4)	# array, _80
    movl     %r8d, (%r13,%rbx,4)	# array, low

# 0 "" 2
# quickoswapasm.h:58:       sort_quick_optimized_swap_asm(array, low, pi - 1);
#NO_APP
	movl	%ebp, %esi	# low,
	leal	-1(%rbx), %edx	#, tmp108
	movq	%r13, %rdi	# array,
# quickoswapasm.h:59:       sort_quick_optimized_swap_asm(array, pi + 1, high);
	leal	1(%rbx), %ebp	#, low
# quickoswapasm.h:58:       sort_quick_optimized_swap_asm(array, low, pi - 1);
	call	sort_quick_optimized_swap_asm	#
# quickoswapasm.h:55:   if (low < high) {
	cmpl	%r15d, %ebp	# high, low
	jge	.L458	#,
# quickoswapasm.h:56:     if (high - low > INSERTION_SORT_THRESH) {
	movl	%r15d, %eax	# high, _1
	subl	%ebp, %eax	# low, _1
# quickoswapasm.h:56:     if (high - low > INSERTION_SORT_THRESH) {
	cmpl	$20, %eax	#, _1
	jg	.L449	#,
.L448:
# quickoswapasm.h:61:       insertionSortOptimized(array + low, high - low + 1);
	movslq	%ebp, %rbp	# low, low
# quickoswapasm.h:61:       insertionSortOptimized(array + low, high - low + 1);
	leaq	0(%r13,%rbp,4), %r11	#, _10
	leaq	4(%r11), %r8	#, ivtmp.784
	movslq	%eax, %r10	# _1, _21
	xorl	%r9d, %r9d	# ivtmp.781
	.p2align 4,,10
	.p2align 3
.L455:
	leaq	0(,%r9,4), %rax	#, tmp112
	leaq	-4(%r8), %rsi	#, tmp111
# insertionssort.h:6:     element = array[i];
	movl	(%r8), %edi	# MEM[base: _47, offset: 0B], element
	subq	%rax, %rsi	# tmp112, _69
	movq	%r8, %rax	# ivtmp.784, ivtmp.773
	.p2align 4,,10
	.p2align 3
.L452:
# insertionssort.h:9:     while (j >= 0 && array[j] > element) {
	movl	-4(%rax), %edx	# MEM[base: _79, offset: -4B], _36
	movq	%rax, %rcx	# ivtmp.773, _79
# insertionssort.h:9:     while (j >= 0 && array[j] > element) {
	cmpl	%edx, %edi	# _36, element
	jge	.L453	#,
# insertionssort.h:10:       array[j + 1] = array[j];
	movl	%edx, (%rax)	# _36, MEM[base: _79, offset: 0B]
# insertionssort.h:9:     while (j >= 0 && array[j] > element) {
	leaq	-4(%rcx), %rax	#, ivtmp.773
	cmpq	%rsi, %rax	# _69, ivtmp.773
	jne	.L452	#,
	movq	%r11, %rcx	# _10, _79
.L453:
# insertionssort.h:5:   for (i = 1; i < n; i++) {
	incq	%r9	# ivtmp.781
# insertionssort.h:13:     array[j + 1] = element;
	movl	%edi, (%rcx)	# element, *prephitmp_104
# insertionssort.h:5:   for (i = 1; i < n; i++) {
	addq	$4, %r8	#, ivtmp.784
	cmpq	%r9, %r10	# ivtmp.781, _21
	jne	.L455	#,
.L458:
# quickoswapasm.h:64: }
	addq	$8, %rsp	#,
	.cfi_def_cfa_offset 56
	popq	%rbx	#
	.cfi_def_cfa_offset 48
	popq	%rbp	#
	.cfi_def_cfa_offset 40
	popq	%r12	#
	.cfi_def_cfa_offset 32
	popq	%r13	#
	.cfi_def_cfa_offset 24
	popq	%r14	#
	.cfi_def_cfa_offset 16
	popq	%r15	#
	.cfi_def_cfa_offset 8
	ret	
.L460:
	.cfi_restore 3
	.cfi_restore 6
	.cfi_restore 12
	.cfi_restore 13
	.cfi_restore 14
	.cfi_restore 15
	ret	
	.cfi_endproc
.LFE5431:
	.size	sort_quick_optimized_swap_asm, .-sort_quick_optimized_swap_asm
	.p2align 4
	.globl	sort_quick_lomuto
	.type	sort_quick_lomuto, @function
sort_quick_lomuto:
.LFB5439:
	.cfi_startproc
	endbr64	
# quickulomuto.h:26:   if (low < high) {
	cmpl	%edx, %esi	# high, low
	jge	.L480	#,
# quickulomuto.h:25: void sort_quick_lomuto(int array[], int low, int high) {
	pushq	%r14	#
	.cfi_def_cfa_offset 16
	.cfi_offset 14, -16
# quickulomuto.h:27:     if (high - low > 30) {
	movl	%edx, %eax	# high, _1
	subl	%esi, %eax	# low, _1
# quickulomuto.h:25: void sort_quick_lomuto(int array[], int low, int high) {
	pushq	%r13	#
	.cfi_def_cfa_offset 24
	.cfi_offset 13, -24
	movl	%esi, %r14d	# tmp132, low
	pushq	%r12	#
	.cfi_def_cfa_offset 32
	.cfi_offset 12, -32
	movl	%edx, %r12d	# tmp133, high
	pushq	%rbp	#
	.cfi_def_cfa_offset 40
	.cfi_offset 6, -40
	pushq	%rbx	#
	.cfi_def_cfa_offset 48
	.cfi_offset 3, -48
	movq	%rdi, %rbx	# tmp131, array
# quickulomuto.h:27:     if (high - low > 30) {
	cmpl	$30, %eax	#, _1
	jle	.L465	#,
# quickulomuto.h:21:   swap(&array[i + 1], &array[high]);
	movslq	%edx, %rax	# high, high
# quickulomuto.h:21:   swap(&array[i + 1], &array[high]);
	leaq	(%rdi,%rax,4), %r13	#, _35
.L466:
# quickulomuto.h:12:   int pivot = median_of_three_of_median_of_three(array, low, high); //
	movl	%r14d, %esi	# low,
	movl	%r12d, %edx	# high,
	movq	%rbx, %rdi	# array,
	call	median_of_three_of_median_of_three	#
	movl	%eax, %esi	# tmp134, pivot
# quickulomuto.h:14:   int i = (low - 1);
	leal	-1(%r14), %ebp	#, i
	movslq	%r14d, %rax	# low, ivtmp.820
	.p2align 4,,10
	.p2align 3
.L468:
# quickulomuto.h:16:     if (array[j] <= pivot) {
	movl	(%rbx,%rax,4), %edx	# MEM[base: array_13(D), index: ivtmp.820_105, step: 4, offset: 0B], _131
# quickulomuto.h:16:     if (array[j] <= pivot) {
	cmpl	%edx, %esi	# _131, pivot
	jl	.L467	#,
# quickulomuto.h:17:       i++;
	incl	%ebp	# i
# quickulomuto.h:18:       swap(&array[i], &array[j]);
	movslq	%ebp, %rcx	# i, i
# quickulomuto.h:18:       swap(&array[i], &array[j]);
	leaq	(%rbx,%rcx,4), %rcx	#, _127
# swap.h:2:   int t = *a;
	movl	(%rcx), %edi	# *_127, t
# swap.h:3:   *a = *b;
	movl	%edx, (%rcx)	# _131, *_127
# swap.h:4:   *b = t;
	movl	%edi, (%rbx,%rax,4)	# t, MEM[base: array_13(D), index: ivtmp.820_105, step: 4, offset: 0B]
.L467:
# quickulomuto.h:15:   for (int j = low; j < high; j++) {
	incq	%rax	# ivtmp.820
	cmpl	%eax, %r12d	# ivtmp.820, high
	jg	.L468	#,
# quickulomuto.h:21:   swap(&array[i + 1], &array[high]);
	movslq	%ebp, %rax	# i, i
# quickulomuto.h:21:   swap(&array[i + 1], &array[high]);
	leaq	4(%rbx,%rax,4), %rax	#, _40
# swap.h:2:   int t = *a;
	movl	(%rax), %edx	# *_40, t
# swap.h:3:   *a = *b;
	movl	0(%r13), %ecx	# *_35, _42
# quickulomuto.h:29:       sort_quick_lomuto(array, low, pi - 1);
	movl	%r14d, %esi	# low,
# swap.h:3:   *a = *b;
	movl	%ecx, (%rax)	# _42, *_40
# swap.h:4:   *b = t;
	movl	%edx, 0(%r13)	# t, *_35
# quickulomuto.h:29:       sort_quick_lomuto(array, low, pi - 1);
	movq	%rbx, %rdi	# array,
	movl	%ebp, %edx	# i,
# quickulomuto.h:30:       sort_quick_lomuto(array, pi + 1, high);
	leal	2(%rbp), %r14d	#, low
# quickulomuto.h:29:       sort_quick_lomuto(array, low, pi - 1);
	call	sort_quick_lomuto	#
# quickulomuto.h:26:   if (low < high) {
	cmpl	%r12d, %r14d	# high, low
	jge	.L478	#,
# quickulomuto.h:27:     if (high - low > 30) {
	movl	%r12d, %eax	# high, _1
	subl	%r14d, %eax	# low, _1
# quickulomuto.h:27:     if (high - low > 30) {
	cmpl	$30, %eax	#, _1
	jg	.L466	#,
.L465:
# quickulomuto.h:32:       insertionSort(array + low, high - low + 1);
	movslq	%r14d, %r14	# low, low
# quickulomuto.h:32:       insertionSort(array + low, high - low + 1);
	leaq	(%rbx,%r14,4), %r11	#, _8
	leaq	4(%r11), %r8	#, ivtmp.811
	movslq	%eax, %r10	# _1, _107
	xorl	%r9d, %r9d	# ivtmp.808
	.p2align 4,,10
	.p2align 3
.L474:
	leaq	0(,%r9,4), %rax	#, tmp129
	leaq	-4(%r8), %rsi	#, tmp128
# insertionssort.h:6:     element = array[i];
	movl	(%r8), %edi	# MEM[base: _112, offset: 0B], element
	subq	%rax, %rsi	# tmp129, _32
	movq	%r8, %rax	# ivtmp.811, ivtmp.800
	.p2align 4,,10
	.p2align 3
.L471:
# insertionssort.h:9:     while (j >= 0 && array[j] > element) {
	movl	-4(%rax), %edx	# MEM[base: _25, offset: -4B], _55
	movq	%rax, %rcx	# ivtmp.800, _25
# insertionssort.h:9:     while (j >= 0 && array[j] > element) {
	cmpl	%edx, %edi	# _55, element
	jge	.L472	#,
# insertionssort.h:10:       array[j + 1] = array[j];
	movl	%edx, (%rax)	# _55, MEM[base: _25, offset: 0B]
# insertionssort.h:9:     while (j >= 0 && array[j] > element) {
	leaq	-4(%rcx), %rax	#, ivtmp.800
	cmpq	%rax, %rsi	# ivtmp.800, _32
	jne	.L471	#,
	movq	%r11, %rcx	# _8, _25
.L472:
# insertionssort.h:5:   for (i = 1; i < n; i++) {
	incq	%r9	# ivtmp.808
# insertionssort.h:13:     array[j + 1] = element;
	movl	%edi, (%rcx)	# element, *prephitmp_155
# insertionssort.h:5:   for (i = 1; i < n; i++) {
	addq	$4, %r8	#, ivtmp.811
	cmpq	%r9, %r10	# ivtmp.808, _107
	jne	.L474	#,
.L478:
# quickulomuto.h:35: }
	popq	%rbx	#
	.cfi_def_cfa_offset 40
	popq	%rbp	#
	.cfi_def_cfa_offset 32
	popq	%r12	#
	.cfi_def_cfa_offset 24
	popq	%r13	#
	.cfi_def_cfa_offset 16
	popq	%r14	#
	.cfi_def_cfa_offset 8
	ret	
.L480:
	.cfi_restore 3
	.cfi_restore 6
	.cfi_restore 12
	.cfi_restore 13
	.cfi_restore 14
	ret	
	.cfi_endproc
.LFE5439:
	.size	sort_quick_lomuto, .-sort_quick_lomuto
	.p2align 4
	.globl	sort_quick_optimized_swap_array
	.type	sort_quick_optimized_swap_array, @function
sort_quick_optimized_swap_array:
.LFB5429:
	.cfi_startproc
	endbr64	
# quickoswaparray.h:38:   if (low < high) {
	cmpl	%edx, %esi	# high, low
	jge	.L499	#,
# quickoswaparray.h:37: void sort_quick_optimized_swap_array(int array[], int low, int high) {
	pushq	%r15	#
	.cfi_def_cfa_offset 16
	.cfi_offset 15, -16
# quickoswaparray.h:39:     if (high - low > INSERTION_SORT_THRESH) {
	movl	%edx, %eax	# high, _1
	subl	%esi, %eax	# low, _1
# quickoswaparray.h:37: void sort_quick_optimized_swap_array(int array[], int low, int high) {
	pushq	%r14	#
	.cfi_def_cfa_offset 24
	.cfi_offset 14, -24
	movl	%esi, %r8d	# tmp149, low
	movl	%edx, %r14d	# tmp150, high
	pushq	%r13	#
	.cfi_def_cfa_offset 32
	.cfi_offset 13, -32
	pushq	%r12	#
	.cfi_def_cfa_offset 40
	.cfi_offset 12, -40
	pushq	%rbp	#
	.cfi_def_cfa_offset 48
	.cfi_offset 6, -48
	pushq	%rbx	#
	.cfi_def_cfa_offset 56
	.cfi_offset 3, -56
	movq	%rdi, %rbx	# tmp148, array
	subq	$24, %rsp	#,
	.cfi_def_cfa_offset 80
# quickoswaparray.h:39:     if (high - low > INSERTION_SORT_THRESH) {
	cmpl	$20, %eax	#, _1
	jle	.L485	#,
# quickoswaparray.h:33:   swap(&array[i], &array[high]);
	movslq	%edx, %rax	# high, high
# quickoswaparray.h:33:   swap(&array[i], &array[high]);
	leaq	(%rdi,%rax,4), %rbp	#, _40
	leaq	x(%rip), %r13	#, tmp146
# quickoswaparray.h:29:     array[j] = x[1 - c];
	movl	$1, %r15d	#, tmp135
.L486:
# quickoswaparray.h:22:   int pivot = median_of_three_of_median_of_three(array, low, high);
	movl	%r8d, %esi	# low,
	movq	%rbx, %rdi	# array,
	movl	%r14d, %edx	# high,
	movl	%r8d, 12(%rsp)	# low, %sfp
	call	median_of_three_of_median_of_three	#
	movl	%eax, %edi	# tmp151, pivot
	movslq	12(%rsp), %rax	# %sfp,
	movq	%rax, %r8	#,
	movl	%eax, %r12d	# low, i
	.p2align 4,,10
	.p2align 3
.L487:
# quickoswaparray.h:27:     x[0] = array[i];
	movslq	%r12d, %rcx	# i, i
	leaq	(%rbx,%rcx,4), %rsi	#, _30
	movl	(%rsi), %ecx	# *_30, _31
# quickoswaparray.h:26:     int c = pivot > array[j];
	xorl	%edx, %edx	# tmp127
	cmpl	(%rbx,%rax,4), %edi	# MEM[base: array_13(D), index: ivtmp.853_108, step: 4, offset: 0B], pivot
# quickoswaparray.h:27:     x[0] = array[i];
	movl	%ecx, 0(%r13)	# _31, x[0]
# quickoswaparray.h:26:     int c = pivot > array[j];
	setg	%dl	#, tmp127
# quickoswaparray.h:31:     i += c;
	addl	%edx, %r12d	# tmp127, i
# quickoswaparray.h:28:     x[1] = array[j];
	movl	(%rbx,%rax,4), %ecx	# MEM[base: array_13(D), index: ivtmp.853_108, step: 4, offset: 0B], _32
# quickoswaparray.h:28:     x[1] = array[j];
	movl	%ecx, 4+x(%rip)	# _32, x[1]
# quickoswaparray.h:29:     array[j] = x[1 - c];
	movl	%r15d, %ecx	# tmp135, tmp134
	subl	%edx, %ecx	# tmp127, tmp134
# quickoswaparray.h:29:     array[j] = x[1 - c];
	movslq	%ecx, %rcx	# tmp134, tmp136
	movl	0(%r13,%rcx,4), %ecx	# x[_33], _34
# quickoswaparray.h:29:     array[j] = x[1 - c];
	movl	%ecx, (%rbx,%rax,4)	# _34, MEM[base: array_13(D), index: ivtmp.853_108, step: 4, offset: 0B]
# quickoswaparray.h:30:     array[i] = x[c];
	movslq	%edx, %rcx	# tmp127, c
# quickoswaparray.h:25:   for (int j = low; j < high; j++) {
	incq	%rax	# ivtmp.853
# quickoswaparray.h:30:     array[i] = x[c];
	movl	0(%r13,%rcx,4), %ecx	# x[c_26], _35
# quickoswaparray.h:30:     array[i] = x[c];
	movl	%ecx, (%rsi)	# _35, *_30
# quickoswaparray.h:25:   for (int j = low; j < high; j++) {
	cmpl	%eax, %r14d	# ivtmp.853, high
	jg	.L487	#,
# quickoswaparray.h:33:   swap(&array[i], &array[high]);
	movslq	%r12d, %rax	# i, i
# quickoswaparray.h:33:   swap(&array[i], &array[high]);
	leaq	(%rbx,%rax,4), %rax	#, _44
# swap.h:2:   int t = *a;
	movl	(%rax), %edx	# *_44, t
# swap.h:3:   *a = *b;
	movl	0(%rbp), %ecx	# *_40, _46
# quickoswaparray.h:41:       sort_quick_optimized_swap_array(array, low, pi - 1);
	movl	%r8d, %esi	# low,
# swap.h:3:   *a = *b;
	movl	%ecx, (%rax)	# _46, *_44
# swap.h:4:   *b = t;
	movl	%edx, 0(%rbp)	# t, *_40
# quickoswaparray.h:41:       sort_quick_optimized_swap_array(array, low, pi - 1);
	movq	%rbx, %rdi	# array,
	leal	-1(%r12), %edx	#, tmp141
	call	sort_quick_optimized_swap_array	#
# quickoswaparray.h:42:       sort_quick_optimized_swap_array(array, pi + 1, high);
	leal	1(%r12), %r8d	#, low
# quickoswaparray.h:38:   if (low < high) {
	cmpl	%r14d, %r8d	# high, low
	jge	.L497	#,
# quickoswaparray.h:39:     if (high - low > INSERTION_SORT_THRESH) {
	movl	%r14d, %eax	# high, _1
	subl	%r8d, %eax	# low, _1
# quickoswaparray.h:39:     if (high - low > INSERTION_SORT_THRESH) {
	cmpl	$20, %eax	#, _1
	jg	.L486	#,
.L485:
# quickoswaparray.h:44:       insertionSortOptimized(array + low, high - low + 1);
	movslq	%r8d, %r8	# low, low
# quickoswaparray.h:44:       insertionSortOptimized(array + low, high - low + 1);
	leaq	(%rbx,%r8,4), %r11	#, _8
	leaq	4(%r11), %r8	#, ivtmp.844
	movslq	%eax, %r10	# _1, _110
	xorl	%r9d, %r9d	# ivtmp.841
	.p2align 4,,10
	.p2align 3
.L493:
	leaq	0(,%r9,4), %rax	#, tmp145
	leaq	-4(%r8), %rsi	#, tmp144
# insertionssort.h:6:     element = array[i];
	movl	(%r8), %edi	# MEM[base: _115, offset: 0B], element
	subq	%rax, %rsi	# tmp145, _123
	movq	%r8, %rax	# ivtmp.844, ivtmp.833
	.p2align 4,,10
	.p2align 3
.L490:
# insertionssort.h:9:     while (j >= 0 && array[j] > element) {
	movl	-4(%rax), %edx	# MEM[base: _151, offset: -4B], _57
	movq	%rax, %rcx	# ivtmp.833, _151
# insertionssort.h:9:     while (j >= 0 && array[j] > element) {
	cmpl	%edx, %edi	# _57, element
	jge	.L491	#,
# insertionssort.h:10:       array[j + 1] = array[j];
	movl	%edx, (%rax)	# _57, MEM[base: _151, offset: 0B]
# insertionssort.h:9:     while (j >= 0 && array[j] > element) {
	leaq	-4(%rcx), %rax	#, ivtmp.833
	cmpq	%rax, %rsi	# ivtmp.833, _123
	jne	.L490	#,
	movq	%r11, %rcx	# _8, _151
.L491:
# insertionssort.h:5:   for (i = 1; i < n; i++) {
	incq	%r9	# ivtmp.841
# insertionssort.h:13:     array[j + 1] = element;
	movl	%edi, (%rcx)	# element, *prephitmp_158
# insertionssort.h:5:   for (i = 1; i < n; i++) {
	addq	$4, %r8	#, ivtmp.844
	cmpq	%r9, %r10	# ivtmp.841, _110
	jne	.L493	#,
.L497:
# quickoswaparray.h:47: }
	addq	$24, %rsp	#,
	.cfi_def_cfa_offset 56
	popq	%rbx	#
	.cfi_def_cfa_offset 48
	popq	%rbp	#
	.cfi_def_cfa_offset 40
	popq	%r12	#
	.cfi_def_cfa_offset 32
	popq	%r13	#
	.cfi_def_cfa_offset 24
	popq	%r14	#
	.cfi_def_cfa_offset 16
	popq	%r15	#
	.cfi_def_cfa_offset 8
	ret	
.L499:
	.cfi_restore 3
	.cfi_restore 6
	.cfi_restore 12
	.cfi_restore 13
	.cfi_restore 14
	.cfi_restore 15
	ret	
	.cfi_endproc
.LFE5429:
	.size	sort_quick_optimized_swap_array, .-sort_quick_optimized_swap_array
	.p2align 4
	.globl	sort_quick_optimized_swap_cmov
	.type	sort_quick_optimized_swap_cmov, @function
sort_quick_optimized_swap_cmov:
.LFB5433:
	.cfi_startproc
	endbr64	
# quickoswapcmov.h:37:   if (low < high) {
	cmpl	%edx, %esi	# high, low
	jge	.L522	#,
# quickoswapcmov.h:36: void sort_quick_optimized_swap_cmov(int array[], int low, int high) {
	pushq	%r14	#
	.cfi_def_cfa_offset 16
	.cfi_offset 14, -16
# quickoswapcmov.h:38:     if (high - low > INSERTION_SORT_THRESH) {
	movl	%edx, %eax	# high, _1
	subl	%esi, %eax	# low, _1
# quickoswapcmov.h:36: void sort_quick_optimized_swap_cmov(int array[], int low, int high) {
	pushq	%r13	#
	.cfi_def_cfa_offset 24
	.cfi_offset 13, -24
	movl	%esi, %r14d	# tmp134, low
	movl	%edx, %r13d	# tmp135, high
	pushq	%r12	#
	.cfi_def_cfa_offset 32
	.cfi_offset 12, -32
	pushq	%rbp	#
	.cfi_def_cfa_offset 40
	.cfi_offset 6, -40
	pushq	%rbx	#
	.cfi_def_cfa_offset 48
	.cfi_offset 3, -48
	movq	%rdi, %rbx	# tmp133, array
# quickoswapcmov.h:38:     if (high - low > INSERTION_SORT_THRESH) {
	cmpl	$20, %eax	#, _1
	jle	.L504	#,
# quickosimple.h:24:   swap(&array[i], &array[high]);
	movslq	%edx, %rax	# high, high
# quickosimple.h:24:   swap(&array[i], &array[high]);
	leaq	(%rdi,%rax,4), %r12	#, _38
.L505:
# quickosimple.h:14:   int pivot = median_of_three_of_median_of_three(array, low, high);
	movl	%r14d, %esi	# low,
	movl	%r13d, %edx	# high,
	movq	%rbx, %rdi	# array,
	call	median_of_three_of_median_of_three	#
	movl	%eax, %r8d	# tmp136, pivot
	movslq	%r14d, %rax	# low, ivtmp.887
	movl	%r14d, %ebp	# low, i
	movq	%rax, %rsi	# ivtmp.887, i
	.p2align 4,,10
	.p2align 3
.L509:
# quickosimple.h:17:     int c = pivot > array[j];
	movl	(%rbx,%rax,4), %ecx	# MEM[base: array_13(D), index: ivtmp.887_84, step: 4, offset: 0B], _126
# quickosimple.h:18:     int y = array[i];
	leaq	(%rbx,%rsi,4), %rdx	#, _121
# quickosimple.h:18:     int y = array[i];
	movl	(%rdx), %edi	# *_121, y
# quickosimple.h:20:     array[i] = c ? z : y;
	cmpl	%ecx, %r8d	# _126, pivot
	jg	.L506	#,
# quickosimple.h:16:   for (int j = low; j < high; j++) {
	incq	%rax	# ivtmp.887
	cmpl	%eax, %r13d	# ivtmp.887, high
	jg	.L509	#,
.L508:
# quickosimple.h:24:   swap(&array[i], &array[high]);
	leaq	(%rbx,%rsi,4), %rax	#, _42
# swap.h:2:   int t = *a;
	movl	(%rax), %edx	# *_42, t
# swap.h:3:   *a = *b;
	movl	(%r12), %ecx	# *_38, _44
# quickoswapcmov.h:40:       sort_quick_optimized_swap_cmov(array, low, pi - 1);
	movl	%r14d, %esi	# low,
# swap.h:3:   *a = *b;
	movl	%ecx, (%rax)	# _44, *_42
# swap.h:4:   *b = t;
	movl	%edx, (%r12)	# t, *_38
# quickoswapcmov.h:40:       sort_quick_optimized_swap_cmov(array, low, pi - 1);
	movq	%rbx, %rdi	# array,
	leal	-1(%rbp), %edx	#, tmp126
# quickoswapcmov.h:41:       sort_quick_optimized_swap_cmov(array, pi + 1, high);
	leal	1(%rbp), %r14d	#, low
# quickoswapcmov.h:40:       sort_quick_optimized_swap_cmov(array, low, pi - 1);
	call	sort_quick_optimized_swap_cmov	#
# quickoswapcmov.h:37:   if (low < high) {
	cmpl	%r13d, %r14d	# high, low
	jge	.L520	#,
# quickoswapcmov.h:38:     if (high - low > INSERTION_SORT_THRESH) {
	movl	%r13d, %eax	# high, _1
	subl	%r14d, %eax	# low, _1
# quickoswapcmov.h:38:     if (high - low > INSERTION_SORT_THRESH) {
	cmpl	$20, %eax	#, _1
	jg	.L505	#,
.L504:
# quickoswapcmov.h:43:       insertionSortOptimized(array + low, high - low + 1);
	movslq	%r14d, %r14	# low, low
# quickoswapcmov.h:43:       insertionSortOptimized(array + low, high - low + 1);
	leaq	(%rbx,%r14,4), %r11	#, _8
	leaq	4(%r11), %r8	#, ivtmp.878
	movslq	%eax, %r10	# _1, _86
	xorl	%r9d, %r9d	# ivtmp.875
	.p2align 4,,10
	.p2align 3
.L515:
	leaq	0(,%r9,4), %rax	#, tmp130
	leaq	-4(%r8), %rsi	#, tmp129
# insertionssort.h:6:     element = array[i];
	movl	(%r8), %edi	# MEM[base: _91, offset: 0B], element
	subq	%rax, %rsi	# tmp130, _76
	movq	%r8, %rax	# ivtmp.878, ivtmp.867
	.p2align 4,,10
	.p2align 3
.L512:
# insertionssort.h:9:     while (j >= 0 && array[j] > element) {
	movl	-4(%rax), %edx	# MEM[base: _24, offset: -4B], _55
	movq	%rax, %rcx	# ivtmp.867, _24
# insertionssort.h:9:     while (j >= 0 && array[j] > element) {
	cmpl	%edx, %edi	# _55, element
	jge	.L513	#,
# insertionssort.h:10:       array[j + 1] = array[j];
	movl	%edx, (%rax)	# _55, MEM[base: _24, offset: 0B]
# insertionssort.h:9:     while (j >= 0 && array[j] > element) {
	leaq	-4(%rcx), %rax	#, ivtmp.867
	cmpq	%rax, %rsi	# ivtmp.867, _76
	jne	.L512	#,
	movq	%r11, %rcx	# _8, _24
.L513:
# insertionssort.h:5:   for (i = 1; i < n; i++) {
	incq	%r9	# ivtmp.875
# insertionssort.h:13:     array[j + 1] = element;
	movl	%edi, (%rcx)	# element, *prephitmp_150
# insertionssort.h:5:   for (i = 1; i < n; i++) {
	addq	$4, %r8	#, ivtmp.878
	cmpq	%r9, %r10	# ivtmp.875, _86
	jne	.L515	#,
.L520:
# quickoswapcmov.h:46: }
	popq	%rbx	#
	.cfi_remember_state
	.cfi_def_cfa_offset 40
	popq	%rbp	#
	.cfi_def_cfa_offset 32
	popq	%r12	#
	.cfi_def_cfa_offset 24
	popq	%r13	#
	.cfi_def_cfa_offset 16
	popq	%r14	#
	.cfi_def_cfa_offset 8
	ret	
	.p2align 4,,10
	.p2align 3
.L506:
	.cfi_restore_state
	movl	%ecx, (%rdx)	# _126, *_121
# quickosimple.h:22:     i += c;
	incl	%ebp	# i
# quickosimple.h:21:     array[j] = c ? y : z;
	movl	%edi, (%rbx,%rax,4)	# y, MEM[base: array_13(D), index: ivtmp.887_84, step: 4, offset: 0B]
# quickosimple.h:16:   for (int j = low; j < high; j++) {
	incq	%rax	# ivtmp.887
	movslq	%ebp, %rsi	# i, i
	cmpl	%eax, %r13d	# ivtmp.887, high
	jg	.L509	#,
	jmp	.L508	#
.L522:
	.cfi_def_cfa_offset 8
	.cfi_restore 3
	.cfi_restore 6
	.cfi_restore 12
	.cfi_restore 13
	.cfi_restore 14
	ret	
	.cfi_endproc
.LFE5433:
	.size	sort_quick_optimized_swap_cmov, .-sort_quick_optimized_swap_cmov
	.p2align 4
	.globl	sort_indexes_opti
	.type	sort_indexes_opti, @function
sort_indexes_opti:
.LFB60:
	.cfi_startproc
	endbr64	
# median.h:141:   int y = *i2;
	movslq	(%rdx), %r9	# *i2_17(D),
# median.h:139: void sort_indexes_opti(int array[], int *i1, int *i2, int *sorted) {
	movq	%rdi, %r8	# array, tmp108
# median.h:140:   int x = *i1;
	movslq	(%rsi), %r10	# *i1_15(D),
# median.h:142:   int c = array[*i1] <= array[*i2];
	movl	(%r8,%r9,4), %r11d	# *_7, tmp115
# median.h:140:   int x = *i1;
	movq	%r10, %rax	#,
# median.h:142:   int c = array[*i1] <= array[*i2];
	cmpl	%r11d, (%r8,%r10,4)	# tmp115, *_3
# median.h:142:   int c = array[*i1] <= array[*i2];
	setle	%r8b	#, c
# median.h:141:   int y = *i2;
	movq	%r9, %rdi	#,
# median.h:142:   int c = array[*i1] <= array[*i2];
	movzbl	%r8b, %r8d	# c, c
# median.h:143:   *i1 = c ? x : y;
	jg	.L526	#,
# median.h:144:   *i2 = c ? y : x;
	movl	%edi, %eax	# y, x
# median.h:143:   *i1 = c ? x : y;
	movl	%r10d, %edi	# x, y
.L526:
	movl	%edi, (%rsi)	# y, *i1_15(D)
# median.h:144:   *i2 = c ? y : x;
	movl	%eax, (%rdx)	# x, *i2_17(D)
# median.h:145:   *sorted += c;
	addl	%r8d, (%rcx)	# c, *sorted_23(D)
# median.h:146: }
	ret	
	.cfi_endproc
.LFE60:
	.size	sort_indexes_opti, .-sort_indexes_opti
	.p2align 4
	.globl	median_of_three_opti
	.type	median_of_three_opti, @function
median_of_three_opti:
.LFB61:
	.cfi_startproc
	endbr64	
# median.h:150:     return array[high];
	movslq	%edx, %rax	# high, high
	leaq	(%rdi,%rax,4), %r9	#, prephitmp_59
# median.h:149:   if (high - low < 2) {
	movl	%edx, %eax	# high, tmp115
	subl	%esi, %eax	# low, tmp115
# median.h:149:   if (high - low < 2) {
	cmpl	$1, %eax	#, tmp115
	jle	.L533	#,
# median.h:154:   int m = (low + high) / 2;
	leal	(%rdx,%rsi), %eax	#, tmp116
# median.h:154:   int m = (low + high) / 2;
	movl	%eax, %r8d	# tmp116, tmp117
	shrl	$31, %r8d	#, tmp117
	addl	%eax, %r8d	# tmp116, tmp118
	sarl	%r8d	# tmp119
# median.h:142:   int c = array[*i1] <= array[*i2];
	movslq	%esi, %r10	# low, low
# median.h:142:   int c = array[*i1] <= array[*i2];
	leaq	(%rdi,%r10,4), %r11	#, _37
# median.h:142:   int c = array[*i1] <= array[*i2];
	movslq	%r8d, %r10	# <retval>, <retval>
# median.h:142:   int c = array[*i1] <= array[*i2];
	leaq	(%rdi,%r10,4), %r10	#, _41
# median.h:142:   int c = array[*i1] <= array[*i2];
	movl	(%r10), %edi	# *_41, tmp158
# median.h:154:   int m = (low + high) / 2;
	movl	%r8d, %eax	# tmp119, <retval>
# median.h:142:   int c = array[*i1] <= array[*i2];
	cmpl	%edi, (%r11)	# tmp158, *_37
# median.h:142:   int c = array[*i1] <= array[*i2];
	setle	%dil	#, c
	movzbl	%dil, %edi	# c, c
# median.h:143:   *i1 = c ? x : y;
	jg	.L534	#,
.L530:
# median.h:145:   *sorted += c;
	addl	(%rcx), %edi	# *sorted_13(D), _48
	movl	%edi, (%rcx)	# _48, *sorted_13(D)
# median.h:142:   int c = array[*i1] <= array[*i2];
	movl	(%r9), %r8d	# *_62, tmp159
	cmpl	%r8d, (%r10)	# tmp159, *prephitmp_52
# median.h:142:   int c = array[*i1] <= array[*i2];
	setle	%r8b	#, c
	movzbl	%r8b, %r8d	# c, c
# median.h:143:   *i1 = c ? x : y;
	cmovle	%r10, %r9	# prephitmp_59,, _41, prephitmp_59
	cmovg	%edx, %eax	# high,, <retval>
# median.h:145:   *sorted += c;
	addl	%r8d, %edi	# c, tmp129
	movl	%edi, (%rcx)	# tmp129, *sorted_13(D)
# median.h:9:   *i2 = c ? y : x;
	movl	(%r9), %ecx	# *prephitmp_59, tmp160
	cmpl	%ecx, (%r11)	# tmp160, *prephitmp_45
	cmovg	%esi, %eax	# <retval>,, low, <retval>
# median.h:164: }
	ret	
	.p2align 4,,10
	.p2align 3
.L534:
# median.h:143:   *i1 = c ? x : y;
	movq	%r11, %rax	# _37, _37
	movq	%r10, %r11	# _41, _37
	movq	%rax, %r10	# _37, _41
# median.h:144:   *i2 = c ? y : x;
	movl	%esi, %eax	# low, <retval>
# median.h:143:   *i1 = c ? x : y;
	movl	%r8d, %esi	# tmp119, low
	jmp	.L530	#
	.p2align 4,,10
	.p2align 3
.L533:
# median.h:150:     return array[high];
	movl	(%r9), %eax	# *_62, <retval>
	ret	
	.cfi_endproc
.LFE61:
	.size	median_of_three_opti, .-median_of_three_opti
	.p2align 4
	.globl	median_of_three_of_median_of_three_opti
	.type	median_of_three_of_median_of_three_opti, @function
median_of_three_of_median_of_three_opti:
.LFB62:
	.cfi_startproc
	endbr64	
	movl	%edx, %r8d	# tmp269, high
# median.h:167:   if (high - low < 50) {
	subl	%esi, %edx	# low, _1
# median.h:167:   if (high - low < 50) {
	cmpl	$49, %edx	#, _1
	jle	.L556	#,
# median.h:166: int median_of_three_of_median_of_three_opti(int array[], int low, int high, int *sorted) {
	pushq	%r14	#
	.cfi_def_cfa_offset 16
	.cfi_offset 14, -16
# median.h:170:     int offset = (high - low) / 9;
	movslq	%edx, %rax	# _1, _1
	imulq	$954437177, %rax, %rax	#, _1, tmp170
# median.h:166: int median_of_three_of_median_of_three_opti(int array[], int low, int high, int *sorted) {
	pushq	%r13	#
	.cfi_def_cfa_offset 24
	.cfi_offset 13, -24
# median.h:170:     int offset = (high - low) / 9;
	sarl	$31, %edx	#, tmp173
	sarq	$33, %rax	#, tmp172
# median.h:166: int median_of_three_of_median_of_three_opti(int array[], int low, int high, int *sorted) {
	pushq	%r12	#
	.cfi_def_cfa_offset 32
	.cfi_offset 12, -32
# median.h:170:     int offset = (high - low) / 9;
	subl	%edx, %eax	# tmp173, offset
# median.h:173:     int b = low + offset;
	leal	(%rsi,%rax), %r9d	#, <retval>
# median.h:166: int median_of_three_of_median_of_three_opti(int array[], int low, int high, int *sorted) {
	pushq	%rbp	#
	.cfi_def_cfa_offset 40
	.cfi_offset 6, -40
# median.h:142:   int c = array[*i1] <= array[*i2];
	movslq	%esi, %r10	# low, low
# median.h:142:   int c = array[*i1] <= array[*i2];
	leaq	(%rdi,%r10,4), %r11	#, _144
# median.h:166: int median_of_three_of_median_of_three_opti(int array[], int low, int high, int *sorted) {
	pushq	%rbx	#
	.cfi_def_cfa_offset 48
	.cfi_offset 3, -48
# median.h:142:   int c = array[*i1] <= array[*i2];
	movslq	%r9d, %r10	# <retval>, <retval>
# median.h:142:   int c = array[*i1] <= array[*i2];
	leaq	(%rdi,%r10,4), %r10	#, _148
# median.h:142:   int c = array[*i1] <= array[*i2];
	movl	(%r10), %ebx	# *_148, tmp303
# median.h:142:   int c = array[*i1] <= array[*i2];
	xorl	%r13d, %r13d	# c
	cmpl	%ebx, (%r11)	# tmp303, *_144
# median.h:174:     int c = low + offset * 2;
	leal	(%r9,%rax), %edx	#, _4
# median.h:142:   int c = array[*i1] <= array[*i2];
	setle	%r13b	#, c
# median.h:143:   *i1 = c ? x : y;
	jg	.L557	#,
.L537:
# median.h:145:   *sorted += c;
	addl	(%rcx), %r13d	# *sorted_22(D), _155
	movl	%r13d, (%rcx)	# _155, *sorted_22(D)
# median.h:142:   int c = array[*i1] <= array[*i2];
	movslq	%edx, %rbx	# _4, _4
# median.h:142:   int c = array[*i1] <= array[*i2];
	leaq	(%rdi,%rbx,4), %rbp	#, prephitmp_42
# median.h:142:   int c = array[*i1] <= array[*i2];
	movl	0(%rbp), %ebx	# *_136, tmp304
	cmpl	%ebx, (%r10)	# tmp304, *prephitmp_180
# median.h:142:   int c = array[*i1] <= array[*i2];
	setle	%bl	#, c
	movzbl	%bl, %ebx	# c, c
# median.h:143:   *i1 = c ? x : y;
	cmovle	%r10, %rbp	# prephitmp_42,, _148, prephitmp_42
	cmovg	%edx, %r9d	# _4,, <retval>
# median.h:145:   *sorted += c;
	addl	%ebx, %r13d	# c, _141
	movl	%r13d, (%rcx)	# _141, *sorted_22(D)
# median.h:9:   *i2 = c ? y : x;
	movl	0(%rbp), %ebx	# *prephitmp_42, tmp305
	cmpl	%ebx, (%r11)	# tmp305, *prephitmp_184
	jg	.L558	#,
.L539:
# median.h:179:     int d = low + offset * 3;
	addl	%eax, %edx	# offset, _6
# median.h:180:     int e = low + offset * 4;
	leal	(%rdx,%rax), %r11d	#, iftmp.14_95
# median.h:142:   int c = array[*i1] <= array[*i2];
	movslq	%edx, %rsi	# _6, _6
# median.h:142:   int c = array[*i1] <= array[*i2];
	leaq	(%rdi,%rsi,4), %r14	#, prephitmp_39
# median.h:142:   int c = array[*i1] <= array[*i2];
	movslq	%r11d, %rsi	# iftmp.14_95, iftmp.14_95
# median.h:142:   int c = array[*i1] <= array[*i2];
	leaq	(%rdi,%rsi,4), %r12	#, prephitmp_36
# median.h:142:   int c = array[*i1] <= array[*i2];
	movl	(%r12), %ebx	# *_114, tmp306
# median.h:142:   int c = array[*i1] <= array[*i2];
	xorl	%esi, %esi	# c
	cmpl	%ebx, (%r14)	# tmp306, *_110
# median.h:181:     int f = low + offset * 5;
	leal	(%r11,%rax), %r10d	#, _10
# median.h:142:   int c = array[*i1] <= array[*i2];
	setle	%sil	#, c
# median.h:143:   *i1 = c ? x : y;
	jg	.L559	#,
.L540:
# median.h:145:   *sorted += c;
	addl	%r13d, %esi	# _141, _120
	movl	%esi, (%rcx)	# _120, *sorted_22(D)
# median.h:142:   int c = array[*i1] <= array[*i2];
	movslq	%r10d, %rbx	# _10, _10
# median.h:142:   int c = array[*i1] <= array[*i2];
	leaq	(%rdi,%rbx,4), %rbx	#, prephitmp_174
# median.h:142:   int c = array[*i1] <= array[*i2];
	movl	(%rbx), %r13d	# *_102, tmp307
	cmpl	%r13d, (%r12)	# tmp307, *prephitmp_36
# median.h:142:   int c = array[*i1] <= array[*i2];
	setle	%r13b	#, c
	movzbl	%r13b, %r13d	# c, c
# median.h:143:   *i1 = c ? x : y;
	cmovle	%r12, %rbx	# prephitmp_174,, prephitmp_36, prephitmp_174
	cmovg	%r10d, %r11d	# _10,, iftmp.14_95
# median.h:145:   *sorted += c;
	addl	%esi, %r13d	# _120, _107
	movl	%r13d, (%rcx)	# _107, *sorted_22(D)
# median.h:9:   *i2 = c ? y : x;
	movl	(%rbx), %esi	# *prephitmp_168, tmp308
	cmpl	%esi, (%r14)	# tmp308, *prephitmp_39
	jg	.L560	#,
.L542:
# median.h:186:     int g = low + offset * 6;
	addl	%eax, %r10d	# offset, _12
# median.h:187:     int h = low + offset * 7;
	addl	%r10d, %eax	# _12, _14
# median.h:142:   int c = array[*i1] <= array[*i2];
	movslq	%r10d, %rdx	# _12, _12
# median.h:142:   int c = array[*i1] <= array[*i2];
	leaq	(%rdi,%rdx,4), %r12	#, _76
# median.h:142:   int c = array[*i1] <= array[*i2];
	movslq	%eax, %rdx	# _14, _14
# median.h:142:   int c = array[*i1] <= array[*i2];
	leaq	(%rdi,%rdx,4), %r14	#, _80
# median.h:142:   int c = array[*i1] <= array[*i2];
	movl	(%r14), %esi	# *_80, tmp309
	cmpl	%esi, (%r12)	# tmp309, *_76
# median.h:142:   int c = array[*i1] <= array[*i2];
	setle	%sil	#, c
	movzbl	%sil, %esi	# c, c
# median.h:143:   *i1 = c ? x : y;
	jg	.L543	#,
	movq	%r14, %rdx	# _80, _80
	movq	%r12, %r14	# _76, _80
	movq	%rdx, %r12	# _80, _76
	movl	%r10d, %edx	# _12, _12
# median.h:144:   *i2 = c ? y : x;
	movl	%eax, %r10d	# _14, _12
# median.h:143:   *i1 = c ? x : y;
	movl	%edx, %eax	# _12, _14
.L543:
# median.h:145:   *sorted += c;
	addl	%r13d, %esi	# _107, _86
	movl	%esi, (%rcx)	# _86, *sorted_22(D)
# median.h:142:   int c = array[*i1] <= array[*i2];
	movslq	%r8d, %rdx	# high, high
# median.h:142:   int c = array[*i1] <= array[*i2];
	leaq	(%rdi,%rdx,4), %rdx	#, _68
# median.h:142:   int c = array[*i1] <= array[*i2];
	movl	(%rdx), %edi	# *_68, tmp310
	cmpl	%edi, (%r12)	# tmp310, *prephitmp_176
# median.h:142:   int c = array[*i1] <= array[*i2];
	setle	%dil	#, c
	movzbl	%dil, %edi	# c, c
# median.h:143:   *i1 = c ? x : y;
	cmovle	%r12, %rdx	# _68,, _76, _68
	cmovle	%r10d, %r8d	# high,, _12, high
# median.h:145:   *sorted += c;
	addl	%edi, %esi	# c, tmp207
	movl	%esi, (%rcx)	# tmp207, *sorted_22(D)
# median.h:7:   int c = array[*i1] <= array[*i2];
	movl	(%r14), %ecx	# *prephitmp_177, _56
# median.h:7:   int c = array[*i1] <= array[*i2];
	movl	(%rdx), %edx	# *prephitmp_192, _60
# median.h:9:   *i2 = c ? y : x;
	cmpl	%edx, %ecx	# _60, _56
	jg	.L545	#,
	movl	%edx, %ecx	# _60, _56
	movl	%r8d, %eax	# high, _14
.L545:
# median.h:7:   int c = array[*i1] <= array[*i2];
	movl	0(%rbp), %edx	# *prephitmp_52, _46
# median.h:7:   int c = array[*i1] <= array[*i2];
	movl	(%rbx), %esi	# *prephitmp_174, _50
# median.h:8:   *i1 = c ? x : y;
	cmpl	%esi, %edx	# _50, _46
	jg	.L547	#,
	movl	%esi, %edx	# _50, _46
	movl	%r9d, %esi	# <retval>, <retval>
	movq	%rbp, %rbx	# prephitmp_42, prephitmp_174
# median.h:9:   *i2 = c ? y : x;
	movl	%r11d, %r9d	# iftmp.14_95, <retval>
# median.h:8:   *i1 = c ? x : y;
	movl	%esi, %r11d	# <retval>, iftmp.14_95
.L547:
	cmpl	%edx, %ecx	# _46, _56
	jge	.L535	#,
# median.h:9:   *i2 = c ? y : x;
	cmpl	%ecx, (%rbx)	# _56, *prephitmp_203
	jle	.L552	#,
	movl	%r11d, %r9d	# iftmp.14_95, <retval>
.L535:
# median.h:201: }
	popq	%rbx	#
	.cfi_remember_state
	.cfi_def_cfa_offset 40
	popq	%rbp	#
	.cfi_def_cfa_offset 32
	popq	%r12	#
	.cfi_def_cfa_offset 24
	popq	%r13	#
	.cfi_def_cfa_offset 16
	movl	%r9d, %eax	# <retval>,
	popq	%r14	#
	.cfi_def_cfa_offset 8
	ret	
	.p2align 4,,10
	.p2align 3
.L560:
	.cfi_restore_state
# median.h:9:   *i2 = c ? y : x;
	movq	%r14, %rbx	# prephitmp_39, prephitmp_174
	movl	%edx, %r11d	# _6, iftmp.14_95
	jmp	.L542	#
	.p2align 4,,10
	.p2align 3
.L559:
# median.h:143:   *i1 = c ? x : y;
	movq	%r14, %rbx	# prephitmp_39, prephitmp_39
	movq	%r12, %r14	# prephitmp_36, prephitmp_39
	movq	%rbx, %r12	# prephitmp_39, prephitmp_36
	movl	%r11d, %ebx	# iftmp.14_95, iftmp.14_95
# median.h:144:   *i2 = c ? y : x;
	movl	%edx, %r11d	# _6, iftmp.14_95
# median.h:143:   *i1 = c ? x : y;
	movl	%ebx, %edx	# iftmp.14_95, _6
	jmp	.L540	#
	.p2align 4,,10
	.p2align 3
.L558:
# median.h:9:   *i2 = c ? y : x;
	movq	%r11, %rbp	# _144, prephitmp_42
	movl	%esi, %r9d	# low, <retval>
	jmp	.L539	#
	.p2align 4,,10
	.p2align 3
.L557:
# median.h:143:   *i1 = c ? x : y;
	movq	%r11, %rbx	# _144, _144
	movq	%r10, %r11	# _148, _144
	movq	%rbx, %r10	# _144, _148
	movl	%r9d, %ebx	# <retval>, <retval>
# median.h:144:   *i2 = c ? y : x;
	movl	%esi, %r9d	# low, <retval>
# median.h:143:   *i1 = c ? x : y;
	movl	%ebx, %esi	# <retval>, low
	jmp	.L537	#
	.p2align 4,,10
	.p2align 3
.L556:
	.cfi_def_cfa_offset 8
	.cfi_restore 3
	.cfi_restore 6
	.cfi_restore 12
	.cfi_restore 13
	.cfi_restore 14
# median.h:168:     return median_of_three_opti(array, low, high, sorted);
	movl	%r8d, %edx	# high,
	jmp	median_of_three_opti	#
.L552:
	.cfi_def_cfa_offset 48
	.cfi_offset 3, -48
	.cfi_offset 6, -40
	.cfi_offset 12, -32
	.cfi_offset 13, -24
	.cfi_offset 14, -16
# median.h:8:   *i1 = c ? x : y;
	movl	%eax, %r9d	# _14, <retval>
	jmp	.L535	#
	.cfi_endproc
.LFE62:
	.size	median_of_three_of_median_of_three_opti, .-median_of_three_of_median_of_three_opti
	.p2align 4
	.globl	sign
	.type	sign, @function
sign:
.LFB5399:
	.cfi_startproc
	endbr64	
# mergeo.h:13: int sign(int x) { return (x >> (CHAR_BIT * sizeof(x) - 1)) | (!!x); }
	movl	%edi, %eax	# x, tmp88
	sarl	$31, %eax	#, tmp88
# mergeo.h:13: int sign(int x) { return (x >> (CHAR_BIT * sizeof(x) - 1)) | (!!x); }
	xorl	%edx, %edx	# tmp89
	testl	%edi, %edi	# x
	setne	%dl	#, tmp89
# mergeo.h:13: int sign(int x) { return (x >> (CHAR_BIT * sizeof(x) - 1)) | (!!x); }
	orl	%edx, %eax	# tmp89, tmp87
# mergeo.h:13: int sign(int x) { return (x >> (CHAR_BIT * sizeof(x) - 1)) | (!!x); }
	ret	
	.cfi_endproc
.LFE5399:
	.size	sign, .-sign
	.p2align 4
	.globl	merging_optimized
	.type	merging_optimized, @function
merging_optimized:
.LFB5400:
	.cfi_startproc
	endbr64	
	pushq	%rbp	#
	.cfi_def_cfa_offset 16
	.cfi_offset 6, -16
# mergeo.h:18:   l2 = mid + 1;
	leal	1(%rdx), %eax	#, tmp384
# mergeo.h:15: void merging_optimized(int a[], int low, int mid, int high, int *b) {
	movl	%edx, %r9d	# tmp387, mid
	movq	%rsp, %rbp	#,
	.cfi_def_cfa_register 6
	pushq	%r15	#
	.cfi_offset 15, -24
	movl	%esi, %r15d	# tmp386, low
	pushq	%r14	#
	pushq	%r13	#
	pushq	%r12	#
	pushq	%rbx	#
	andq	$-32, %rsp	#,
	.cfi_offset 14, -32
	.cfi_offset 13, -40
	.cfi_offset 12, -48
	.cfi_offset 3, -56
# mergeo.h:18:   l2 = mid + 1;
	movl	%eax, -12(%rsp)	# tmp384, %sfp
# mergeo.h:21:   for (i = low; l1 <= mid && l2 <= high; i++) {
	cmpl	%edx, %esi	# mid, low
	jg	.L592	#,
	cmpl	%ecx, %eax	# high, tmp384
	jg	.L592	#,
	leal	1(%rsi), %r10d	#, tmp300
	movslq	%r10d, %r10	# tmp300, ivtmp.1026
# mergeo.h:24:     l1 += 1 - c;
	movl	$1, %ebx	#, tmp307
	.p2align 4,,10
	.p2align 3
.L564:
# mergeo.h:22:     int c = a[l1] > a[l2];
	movslq	%esi, %rdx	# tmp.961, tmp.961
# mergeo.h:22:     int c = a[l1] > a[l2];
	movslq	%eax, %r11	# tmp.941, tmp.941
# mergeo.h:22:     int c = a[l1] > a[l2];
	movl	(%rdi,%rdx,4), %edx	# *_3, _4
# mergeo.h:22:     int c = a[l1] > a[l2];
	movl	(%rdi,%r11,4), %r11d	# *_7, _8
# mergeo.h:22:     int c = a[l1] > a[l2];
	xorl	%r12d, %r12d	# tmp303
	cmpl	%r11d, %edx	# _8, _4
# mergeo.h:23:     b[i] = c ? a[l2] : a[l1];
	cmovg	%r11d, %edx	# _4,, _8, tmp305
# mergeo.h:22:     int c = a[l1] > a[l2];
	setg	%r12b	#, tmp303
# mergeo.h:23:     b[i] = c ? a[l2] : a[l1];
	movl	%edx, -4(%r8,%r10,4)	# tmp305, MEM[base: b_57(D), index: ivtmp.1026_342, step: 4, offset: -4B]
# mergeo.h:24:     l1 += 1 - c;
	movl	%ebx, %edx	# tmp307, tmp306
	subl	%r12d, %edx	# tmp303, tmp306
# mergeo.h:24:     l1 += 1 - c;
	addl	%edx, %esi	# tmp306, tmp.961
# mergeo.h:25:     l2 += c;
	addl	%r12d, %eax	# tmp303, tmp.941
# mergeo.h:21:   for (i = low; l1 <= mid && l2 <= high; i++) {
	movl	%r10d, %edx	# ivtmp.1026, tmp.942
# mergeo.h:21:   for (i = low; l1 <= mid && l2 <= high; i++) {
	incq	%r10	# ivtmp.1026
	cmpl	%esi, %r9d	# tmp.961, mid
	jl	.L566	#,
	cmpl	%eax, %ecx	# tmp.941, high
	jge	.L564	#,
.L563:
# mergeo.h:28:   while (l1 <= mid) {
	cmpl	%esi, %r9d	# tmp.961, mid
	jl	.L566	#,
	movslq	%edx, %r14	# tmp.942, _351
	movl	%r9d, %ebx	# mid, _349
	movslq	%esi, %r10	# tmp.961, ivtmp.1007
	subl	%esi, %ebx	# tmp.961, _349
	leaq	0(,%r14,4), %r12	#, _352
	leaq	1(%r10), %r11	#, ivtmp.1007
	leaq	0(,%r11,4), %r13	#, _356
	movl	%ebx, -8(%rsp)	# _349, %sfp
	leaq	(%r8,%r12), %rbx	#, _353
	movq	%r14, -24(%rsp)	# _351, %sfp
	movq	%r13, -32(%rsp)	# _356, %sfp
	movq	%rbx, %r14	# _353, tmp314
	addq	%rdi, %r13	# a, tmp313
	subq	%r13, %r14	# tmp313, tmp314
	movl	%esi, -16(%rsp)	# tmp.961, %sfp
	cmpq	$24, %r14	#, tmp314
	jbe	.L567	#,
	cmpl	$2, -8(%rsp)	#, %sfp
	jbe	.L567	#,
	movl	-12(%rsp), %r14d	# %sfp, niters.948
	subl	%esi, %r14d	# tmp.961, niters.948
	cmpl	$6, -8(%rsp)	#, %sfp
	movl	%r14d, %r13d	# niters.948, niters.948
	jbe	.L593	#,
	movq	-32(%rsp), %r14	# %sfp, _356
	movl	%r13d, %r12d	# niters.948, bnd.949
	shrl	$3, %r12d	#,
	leaq	-4(%rdi,%r14), %r14	#, vectp.954
	salq	$5, %r12	#, _202
	xorl	%r11d, %r11d	# ivtmp.1019
	.p2align 4,,10
	.p2align 3
.L569:
# mergeo.h:29:     b[i++] = a[l1++];
	vmovdqu	(%r14,%r11), %ymm1	# MEM[base: vectp.954_410, index: ivtmp.1019_205, offset: 0B], tmp471
	vmovdqu	%ymm1, (%rbx,%r11)	# tmp471, MEM[base: _353, index: ivtmp.1019_205, offset: 0B]
	addq	$32, %r11	#, ivtmp.1019
	cmpq	%r11, %r12	# ivtmp.1019, _202
	jne	.L569	#,
	movl	%r13d, %r11d	# niters.948, niters_vector_mult_vf.950
	andl	$-8, %r11d	#,
	addl	%r11d, %esi	# niters_vector_mult_vf.950, tmp.961
	leal	(%rdx,%r11), %ebx	#, tmp.962
	cmpl	%r11d, %r13d	# niters_vector_mult_vf.950, niters.948
	je	.L574	#,
	movl	-8(%rsp), %r12d	# %sfp, _349
	subl	%r11d, %r13d	# niters_vector_mult_vf.950, niters.948
	subl	%r11d, %r12d	# niters_vector_mult_vf.950, _349
	cmpl	$2, %r12d	#, tmp324
	jbe	.L571	#,
.L568:
# mergeo.h:29:     b[i++] = a[l1++];
	addq	%r11, %r10	# _460, tmp325
	vmovdqu	(%rdi,%r10,4), %xmm0	# MEM <vector(4) int> [(int *)vectp.964_458], MEM <vector(4) int> [(int *)vectp.964_458]
	movl	%r13d, %r10d	# niters.948, niters_vector_mult_vf.960
	andl	$-4, %r10d	#, niters_vector_mult_vf.960
# mergeo.h:29:     b[i++] = a[l1++];
	addq	-24(%rsp), %r11	# %sfp, tmp327
	vmovdqu	%xmm0, (%r8,%r11,4)	# MEM <vector(4) int> [(int *)vectp.964_458], MEM <vector(4) int> [(int *)vectp.967_466]
	addl	%r10d, %esi	# niters_vector_mult_vf.960, tmp.961
	addl	%r10d, %ebx	# niters_vector_mult_vf.960, tmp.962
	cmpl	%r10d, %r13d	# niters_vector_mult_vf.960, niters.948
	je	.L574	#,
.L571:
# mergeo.h:29:     b[i++] = a[l1++];
	movslq	%esi, %r12	# tmp.961, tmp.961
# mergeo.h:29:     b[i++] = a[l1++];
	movl	(%rdi,%r12,4), %r12d	# *_35, _115
# mergeo.h:29:     b[i++] = a[l1++];
	leal	1(%rbx), %r11d	#, i
# mergeo.h:29:     b[i++] = a[l1++];
	leal	1(%rsi), %r10d	#, l1
# mergeo.h:29:     b[i++] = a[l1++];
	movslq	%ebx, %rbx	# tmp.962, tmp.962
# mergeo.h:29:     b[i++] = a[l1++];
	movl	%r12d, (%r8,%rbx,4)	# _115, *_306
# mergeo.h:28:   while (l1 <= mid) {
	cmpl	%r10d, %r9d	# l1, mid
	jl	.L574	#,
# mergeo.h:29:     b[i++] = a[l1++];
	movslq	%r10d, %r10	# l1, l1
# mergeo.h:29:     b[i++] = a[l1++];
	movl	(%rdi,%r10,4), %r10d	# *_172, _157
# mergeo.h:29:     b[i++] = a[l1++];
	movslq	%r11d, %r11	# i, i
# mergeo.h:29:     b[i++] = a[l1++];
	addl	$2, %esi	#, l1
# mergeo.h:29:     b[i++] = a[l1++];
	movl	%r10d, (%r8,%r11,4)	# _157, *_239
# mergeo.h:29:     b[i++] = a[l1++];
	leaq	0(,%r11,4), %rbx	#, _287
# mergeo.h:28:   while (l1 <= mid) {
	cmpl	%esi, %r9d	# l1, mid
	jl	.L574	#,
# mergeo.h:29:     b[i++] = a[l1++];
	movslq	%esi, %rsi	# l1, l1
# mergeo.h:29:     b[i++] = a[l1++];
	movl	(%rdi,%rsi,4), %esi	# *_436, _441
# mergeo.h:29:     b[i++] = a[l1++];
	movl	%esi, 4(%r8,%rbx)	# _441, *_440
.L574:
	addl	-12(%rsp), %edx	# %sfp, tmp338
# mergeo.h:29:     b[i++] = a[l1++];
	subl	-16(%rsp), %edx	# %sfp, tmp.942
.L566:
# mergeo.h:32:   while (l2 <= high) {
	cmpl	%eax, %ecx	# tmp.941, high
	jl	.L575	#,
	movslq	%edx, %r11	# tmp.942, _215
	movslq	%eax, %rsi	# tmp.941, ivtmp.988
	leaq	1(%rsi), %r14	#, ivtmp.988
	leaq	0(,%r11,4), %r13	#, _216
	leaq	(%r8,%r13), %r10	#, _217
	leaq	0(,%r14,4), %r12	#, _220
	movq	%r14, -8(%rsp)	# ivtmp.988, %sfp
	movq	%r10, %r9	# _217, tmp341
	leaq	(%rdi,%r12), %r14	#, tmp340
	movl	%ecx, %ebx	# high, _213
	subq	%r14, %r9	# tmp340, tmp341
	subl	%eax, %ebx	# tmp.941, _213
	cmpq	$24, %r9	#, tmp341
	jbe	.L576	#,
	cmpl	$2, %ebx	#, _213
	jbe	.L576	#,
	leal	1(%rcx), %r13d	#, tmp346
	subl	%eax, %r13d	# tmp.941, niters.928
	cmpl	$6, %ebx	#, _213
	jbe	.L594	#,
	leaq	-4(%rdi,%r12), %r14	#, vectp.934
	movl	%r13d, %r12d	# niters.928, bnd.929
	shrl	$3, %r12d	#,
	salq	$5, %r12	#, _345
	xorl	%r9d, %r9d	# ivtmp.1000
	.p2align 4,,10
	.p2align 3
.L578:
# mergeo.h:33:     b[i++] = a[l2++];
	vmovdqu	(%r14,%r9), %ymm2	# MEM[base: vectp.934_273, index: ivtmp.1000_189, offset: 0B], tmp480
	vmovdqu	%ymm2, (%r10,%r9)	# tmp480, MEM[base: _217, index: ivtmp.1000_189, offset: 0B]
	addq	$32, %r9	#, ivtmp.1000
	cmpq	%r12, %r9	# _345, ivtmp.1000
	jne	.L578	#,
	movl	%r13d, %r9d	# niters.928, niters_vector_mult_vf.930
	andl	$-8, %r9d	#,
	addl	%r9d, %eax	# niters_vector_mult_vf.930, tmp.941
	addl	%r9d, %edx	# niters_vector_mult_vf.930, tmp.942
	cmpl	%r9d, %r13d	# niters_vector_mult_vf.930, niters.928
	je	.L575	#,
	subl	%r9d, %ebx	# niters_vector_mult_vf.930, tmp351
	subl	%r9d, %r13d	# niters_vector_mult_vf.930, niters.928
	cmpl	$2, %ebx	#, tmp351
	jbe	.L580	#,
.L577:
# mergeo.h:33:     b[i++] = a[l2++];
	addq	%r9, %rsi	# _323, tmp352
	vmovdqu	(%rdi,%rsi,4), %xmm0	# MEM <vector(4) int> [(int *)vectp.944_321], MEM <vector(4) int> [(int *)vectp.944_321]
	movl	%r13d, %esi	# niters.928, niters_vector_mult_vf.940
	andl	$-4, %esi	#, niters_vector_mult_vf.940
# mergeo.h:33:     b[i++] = a[l2++];
	addq	%r11, %r9	# _215, tmp354
	vmovdqu	%xmm0, (%r8,%r9,4)	# MEM <vector(4) int> [(int *)vectp.944_321], MEM <vector(4) int> [(int *)vectp.947_329]
	addl	%esi, %eax	# niters_vector_mult_vf.940, tmp.941
	addl	%esi, %edx	# niters_vector_mult_vf.940, tmp.942
	cmpl	%esi, %r13d	# niters_vector_mult_vf.940, niters.928
	je	.L575	#,
.L580:
# mergeo.h:33:     b[i++] = a[l2++];
	movslq	%eax, %r10	# tmp.941, tmp.941
# mergeo.h:33:     b[i++] = a[l2++];
	movl	(%rdi,%r10,4), %r10d	# *_89, _62
# mergeo.h:33:     b[i++] = a[l2++];
	leal	1(%rdx), %r9d	#, i
# mergeo.h:33:     b[i++] = a[l2++];
	leal	1(%rax), %esi	#, l2
# mergeo.h:33:     b[i++] = a[l2++];
	movslq	%edx, %rdx	# tmp.942, tmp.942
# mergeo.h:33:     b[i++] = a[l2++];
	movl	%r10d, (%r8,%rdx,4)	# _62, *_28
# mergeo.h:32:   while (l2 <= high) {
	cmpl	%esi, %ecx	# l2, high
	jl	.L575	#,
# mergeo.h:33:     b[i++] = a[l2++];
	movslq	%esi, %rsi	# l2, l2
# mergeo.h:33:     b[i++] = a[l2++];
	movl	(%rdi,%rsi,4), %esi	# *_247, _252
# mergeo.h:33:     b[i++] = a[l2++];
	movslq	%r9d, %rdx	# i, i
# mergeo.h:33:     b[i++] = a[l2++];
	addl	$2, %eax	#, l2
# mergeo.h:33:     b[i++] = a[l2++];
	movl	%esi, (%r8,%rdx,4)	# _252, *_251
# mergeo.h:33:     b[i++] = a[l2++];
	leaq	0(,%rdx,4), %r9	#, _250
# mergeo.h:32:   while (l2 <= high) {
	cmpl	%eax, %ecx	# l2, high
	jl	.L575	#,
# mergeo.h:33:     b[i++] = a[l2++];
	cltq
# mergeo.h:33:     b[i++] = a[l2++];
	movl	(%rdi,%rax,4), %eax	# *_299, _304
# mergeo.h:33:     b[i++] = a[l2++];
	movl	%eax, 4(%r8,%r9)	# _304, *_303
.L575:
# mergeo.h:36:   for (i = low; i <= high; i++) {
	cmpl	%ecx, %r15d	# high, low
	jg	.L634	#,
	movslq	%r15d, %rdx	# low, ivtmp.971
	leaq	0(,%rdx,4), %rsi	#, _139
	leaq	(%rdi,%rsi), %rbx	#, _138
	leaq	4(%r8,%rsi), %r9	#, tmp365
	movq	%rbx, %rax	# _138, tmp366
	movl	%ecx, %r11d	# high, _142
	subq	%r9, %rax	# tmp365, tmp366
	subl	%r15d, %r11d	# low, _142
	cmpq	$24, %rax	#, tmp366
	jbe	.L614	#,
	cmpl	$2, %r11d	#, _142
	jbe	.L614	#,
	leal	1(%rcx), %r9d	#, tmp371
	subl	%r15d, %r9d	# low, niters.910
	cmpl	$6, %r11d	#, _142
	jbe	.L595	#,
	movl	%r9d, %r10d	# niters.910, bnd.911
	shrl	$3, %r10d	#,
	addq	%r8, %rsi	# b, vectp.915
	salq	$5, %r10	#, _391
	xorl	%eax, %eax	# ivtmp.982
	.p2align 4,,10
	.p2align 3
.L587:
# mergeo.h:37:     a[i] = b[i];
	vmovdqu	(%rsi,%rax), %ymm3	# MEM[base: vectp.915_50, index: ivtmp.982_471, offset: 0B], tmp487
	vmovdqu	%ymm3, (%rbx,%rax)	# tmp487, MEM[base: _138, index: ivtmp.982_471, offset: 0B]
	addq	$32, %rax	#, ivtmp.982
	cmpq	%rax, %r10	# ivtmp.982, _391
	jne	.L587	#,
	movl	%r9d, %eax	# niters.910, niters_vector_mult_vf.912
	andl	$-8, %eax	#,
	addl	%eax, %r15d	# niters_vector_mult_vf.912, low
	cmpl	%r9d, %eax	# niters.910, niters_vector_mult_vf.912
	je	.L634	#,
	subl	%eax, %r11d	# niters_vector_mult_vf.912, tmp375
	subl	%eax, %r9d	# niters_vector_mult_vf.912, niters.910
	cmpl	$2, %r11d	#, tmp375
	jbe	.L589	#,
.L586:
	addq	%rax, %rdx	# niters_vector_mult_vf.912, tmp377
# mergeo.h:37:     a[i] = b[i];
	vmovdqu	(%r8,%rdx,4), %xmm4	# MEM <vector(4) int> [(int *)vectp.924_184], tmp489
	movl	%r9d, %eax	# niters.910, niters_vector_mult_vf.921
	andl	$-4, %eax	#, niters_vector_mult_vf.921
	vmovdqu	%xmm4, (%rdi,%rdx,4)	# tmp489, MEM <vector(4) int> [(int *)vectp.927_192]
	addl	%eax, %r15d	# niters_vector_mult_vf.921, low
	cmpl	%r9d, %eax	# niters.910, niters_vector_mult_vf.921
	je	.L634	#,
.L589:
# mergeo.h:37:     a[i] = b[i];
	movslq	%r15d, %rax	# low, low
	movl	(%r8,%rax,4), %edx	# *_20, _65
# mergeo.h:37:     a[i] = b[i];
	movl	%edx, (%rdi,%rax,4)	# _65, *_21
# mergeo.h:36:   for (i = low; i <= high; i++) {
	leal	1(%r15), %eax	#, i
# mergeo.h:36:   for (i = low; i <= high; i++) {
	cmpl	%ecx, %eax	# high, i
	jg	.L634	#,
# mergeo.h:37:     a[i] = b[i];
	cltq
	movl	(%r8,%rax,4), %edx	# *_384, _386
# mergeo.h:36:   for (i = low; i <= high; i++) {
	leal	2(%r15), %esi	#, i
# mergeo.h:37:     a[i] = b[i];
	movl	%edx, (%rdi,%rax,4)	# _386, *_385
# mergeo.h:36:   for (i = low; i <= high; i++) {
	cmpl	%esi, %ecx	# i, high
	jl	.L634	#,
# mergeo.h:37:     a[i] = b[i];
	movslq	%esi, %rsi	# i, i
	movl	(%r8,%rsi,4), %eax	# *_167, _169
# mergeo.h:37:     a[i] = b[i];
	movl	%eax, (%rdi,%rsi,4)	# _169, *_168
.L634:
	vzeroupper
# mergeo.h:39: }
	leaq	-40(%rbp), %rsp	#,
	popq	%rbx	#
	popq	%r12	#
	popq	%r13	#
	popq	%r14	#
	popq	%r15	#
	popq	%rbp	#
	.cfi_remember_state
	.cfi_def_cfa 7, 8
	ret	
	.p2align 4,,10
	.p2align 3
.L614:
	.cfi_restore_state
# mergeo.h:37:     a[i] = b[i];
	movl	(%r8,%rdx,4), %eax	# MEM[base: b_57(D), index: ivtmp.971_257, step: 4, offset: 0B], _123
# mergeo.h:37:     a[i] = b[i];
	movl	%eax, (%rdi,%rdx,4)	# _123, MEM[base: a_58(D), index: ivtmp.971_257, step: 4, offset: 0B]
# mergeo.h:36:   for (i = low; i <= high; i++) {
	incq	%rdx	# ivtmp.971
	cmpl	%edx, %ecx	# ivtmp.971, high
	jl	.L634	#,
# mergeo.h:37:     a[i] = b[i];
	movl	(%r8,%rdx,4), %eax	# MEM[base: b_57(D), index: ivtmp.971_257, step: 4, offset: 0B], _123
# mergeo.h:37:     a[i] = b[i];
	movl	%eax, (%rdi,%rdx,4)	# _123, MEM[base: a_58(D), index: ivtmp.971_257, step: 4, offset: 0B]
# mergeo.h:36:   for (i = low; i <= high; i++) {
	incq	%rdx	# ivtmp.971
	cmpl	%edx, %ecx	# ivtmp.971, high
	jge	.L614	#,
	jmp	.L634	#
	.p2align 4,,10
	.p2align 3
.L576:
	movq	%rsi, %rax	# ivtmp.988, tmp361
	negq	%rax	# tmp361
	leaq	0(%r13,%rax,4), %rdx	#, tmp363
	movq	-8(%rsp), %r9	# %sfp, ivtmp.988
	addq	%r8, %rdx	# b, _200
	jmp	.L582	#
	.p2align 4,,10
	.p2align 3
.L637:
	incq	%r9	# ivtmp.988
.L582:
# mergeo.h:33:     b[i++] = a[l2++];
	movl	(%rdi,%rsi,4), %eax	# MEM[base: a_58(D), index: ivtmp.988_390, step: 4, offset: 0B], _237
# mergeo.h:33:     b[i++] = a[l2++];
	movl	%eax, (%rdx,%rsi,4)	# _237, MEM[base: _200, index: ivtmp.988_390, step: 4, offset: 0B]
# mergeo.h:32:   while (l2 <= high) {
	movq	%r9, %rsi	# ivtmp.988, ivtmp.988
	cmpl	%r9d, %ecx	# ivtmp.988, high
	jge	.L637	#,
	jmp	.L575	#
	.p2align 4,,10
	.p2align 3
.L567:
	movq	%r10, %rsi	# ivtmp.1007, tmp334
	negq	%rsi	# tmp334
	leaq	(%r12,%rsi,4), %rbx	#, tmp336
	addq	%r8, %rbx	# b, _103
	jmp	.L573	#
	.p2align 4,,10
	.p2align 3
.L638:
	incq	%r11	# ivtmp.1007
.L573:
# mergeo.h:29:     b[i++] = a[l1++];
	movl	(%rdi,%r10,4), %esi	# MEM[base: a_58(D), index: ivtmp.1007_344, step: 4, offset: 0B], _373
# mergeo.h:29:     b[i++] = a[l1++];
	movl	%esi, (%rbx,%r10,4)	# _373, MEM[base: _103, index: ivtmp.1007_344, step: 4, offset: 0B]
# mergeo.h:28:   while (l1 <= mid) {
	movq	%r11, %r10	# ivtmp.1007, ivtmp.1007
	cmpl	%r11d, %r9d	# ivtmp.1007, mid
	jge	.L638	#,
	jmp	.L574	#
	.p2align 4,,10
	.p2align 3
.L592:
# mergeo.h:21:   for (i = low; l1 <= mid && l2 <= high; i++) {
	movl	%r15d, %edx	# low, tmp.942
	movl	%r15d, %esi	# low, tmp.961
	jmp	.L563	#
.L593:
# mergeo.h:28:   while (l1 <= mid) {
	movl	%edx, %ebx	# tmp.942, tmp.962
	xorl	%r11d, %r11d	#
	jmp	.L568	#
.L595:
# mergeo.h:36:   for (i = low; i <= high; i++) {
	xorl	%eax, %eax	#
	jmp	.L586	#
.L594:
# mergeo.h:32:   while (l2 <= high) {
	xorl	%r9d, %r9d	#
	jmp	.L577	#
	.cfi_endproc
.LFE5400:
	.size	merging_optimized, .-merging_optimized
	.p2align 4
	.type	sort_merge_o.part.0, @function
sort_merge_o.part.0:
.LFB5712:
	.cfi_startproc
	pushq	%r15	#
	.cfi_def_cfa_offset 16
	.cfi_offset 15, -16
# mergeo.h:45:     mid = (low + high) / 2;
	leal	(%rsi,%rdx), %eax	#, tmp107
# mergeo.h:41: void sort_merge_o(int a[], int low, int high, int *b) {
	pushq	%r14	#
	.cfi_def_cfa_offset 24
	.cfi_offset 14, -24
	movq	%rdi, %r14	# tmp135, a
	pushq	%r13	#
	.cfi_def_cfa_offset 32
	.cfi_offset 13, -32
	movl	%edx, %r13d	# tmp137, high
	pushq	%r12	#
	.cfi_def_cfa_offset 40
	.cfi_offset 12, -40
# mergeo.h:45:     mid = (low + high) / 2;
	movl	%eax, %r12d	# tmp107, tmp108
	shrl	$31, %r12d	#, tmp108
# mergeo.h:41: void sort_merge_o(int a[], int low, int high, int *b) {
	pushq	%rbp	#
	.cfi_def_cfa_offset 48
	.cfi_offset 6, -48
# mergeo.h:45:     mid = (low + high) / 2;
	addl	%eax, %r12d	# tmp107, tmp109
	sarl	%r12d	# tmp110
# mergeo.h:41: void sort_merge_o(int a[], int low, int high, int *b) {
	pushq	%rbx	#
	.cfi_def_cfa_offset 56
	.cfi_offset 3, -56
	movl	%esi, %ebp	# tmp136, low
	movq	%rcx, %rbx	# tmp138, b
	subq	$24, %rsp	#,
	.cfi_def_cfa_offset 80
# mergeo.h:44:   if (low < high) {
	cmpl	%r12d, %esi	# tmp110, low
	jl	.L655	#,
# mergeo.h:47:     sort_merge_o(a, mid + 1, high, b);
	leal	1(%r12), %r15d	#, _7
# mergeo.h:44:   if (low < high) {
	cmpl	%r15d, %r13d	# _7, high
	jg	.L656	#,
.L647:
# mergeo.h:50: }
	addq	$24, %rsp	#,
	.cfi_remember_state
	.cfi_def_cfa_offset 56
# mergeo.h:48:     merging_optimized(a, low, mid, high, b);
	movq	%rbx, %r8	# b,
# mergeo.h:50: }
	popq	%rbx	#
	.cfi_def_cfa_offset 48
# mergeo.h:48:     merging_optimized(a, low, mid, high, b);
	movl	%ebp, %esi	# low,
# mergeo.h:50: }
	popq	%rbp	#
	.cfi_def_cfa_offset 40
# mergeo.h:48:     merging_optimized(a, low, mid, high, b);
	movl	%r12d, %edx	# tmp110,
# mergeo.h:50: }
	popq	%r12	#
	.cfi_def_cfa_offset 32
# mergeo.h:48:     merging_optimized(a, low, mid, high, b);
	movl	%r13d, %ecx	# high,
# mergeo.h:50: }
	popq	%r13	#
	.cfi_def_cfa_offset 24
# mergeo.h:48:     merging_optimized(a, low, mid, high, b);
	movq	%r14, %rdi	# a,
# mergeo.h:50: }
	popq	%r14	#
	.cfi_def_cfa_offset 16
	popq	%r15	#
	.cfi_def_cfa_offset 8
# mergeo.h:48:     merging_optimized(a, low, mid, high, b);
	jmp	merging_optimized	#
	.p2align 4,,10
	.p2align 3
.L655:
	.cfi_restore_state
# mergeo.h:45:     mid = (low + high) / 2;
	leal	(%rsi,%r12), %eax	#, tmp111
# mergeo.h:45:     mid = (low + high) / 2;
	movl	%eax, %r15d	# tmp111, tmp112
	shrl	$31, %r15d	#, tmp112
	addl	%eax, %r15d	# tmp111, tmp113
	sarl	%r15d	# tmp114
# mergeo.h:44:   if (low < high) {
	cmpl	%r15d, %esi	# tmp114, low
	jl	.L657	#,
# mergeo.h:47:     sort_merge_o(a, mid + 1, high, b);
	leal	1(%r15), %r9d	#, _14
# mergeo.h:44:   if (low < high) {
	cmpl	%r9d, %r12d	# _14, tmp110
	jg	.L658	#,
.L644:
# mergeo.h:48:     merging_optimized(a, low, mid, high, b);
	movl	%r15d, %edx	# tmp114,
	movq	%rbx, %r8	# b,
	movl	%r12d, %ecx	# tmp110,
	movl	%ebp, %esi	# low,
	movq	%r14, %rdi	# a,
# mergeo.h:47:     sort_merge_o(a, mid + 1, high, b);
	leal	1(%r12), %r15d	#, _7
# mergeo.h:48:     merging_optimized(a, low, mid, high, b);
	call	merging_optimized	#
# mergeo.h:44:   if (low < high) {
	cmpl	%r15d, %r13d	# _7, high
	jle	.L647	#,
.L656:
# mergeo.h:45:     mid = (low + high) / 2;
	leal	0(%r13,%r15), %eax	#, tmp123
# mergeo.h:45:     mid = (low + high) / 2;
	movl	%eax, %r9d	# tmp123, tmp124
	shrl	$31, %r9d	#, tmp124
	addl	%eax, %r9d	# tmp123, tmp125
	sarl	%r9d	# tmp126
# mergeo.h:44:   if (low < high) {
	cmpl	%r9d, %r15d	# tmp126, _7
	jl	.L659	#,
.L648:
# mergeo.h:47:     sort_merge_o(a, mid + 1, high, b);
	leal	1(%r9), %r10d	#, _23
# mergeo.h:44:   if (low < high) {
	cmpl	%r10d, %r13d	# _23, high
	jg	.L660	#,
.L651:
# mergeo.h:48:     merging_optimized(a, low, mid, high, b);
	movq	%rbx, %r8	# b,
	movl	%r13d, %ecx	# high,
	movl	%r9d, %edx	# tmp126,
	movl	%r15d, %esi	# _7,
	movq	%r14, %rdi	# a,
	call	merging_optimized	#
	jmp	.L647	#
	.p2align 4,,10
	.p2align 3
.L657:
# mergeo.h:45:     mid = (low + high) / 2;
	leal	(%rsi,%r15), %eax	#, tmp115
# mergeo.h:45:     mid = (low + high) / 2;
	movl	%eax, %r9d	# tmp115, tmp116
	shrl	$31, %r9d	#, tmp116
	addl	%eax, %r9d	# tmp115, tmp117
	sarl	%r9d	# tmp118
# mergeo.h:44:   if (low < high) {
	cmpl	%r9d, %esi	# tmp118, low
	jl	.L661	#,
.L642:
# mergeo.h:47:     sort_merge_o(a, mid + 1, high, b);
	leal	1(%r9), %esi	#, _17
# mergeo.h:44:   if (low < high) {
	cmpl	%esi, %r15d	# _17, tmp114
	jg	.L662	#,
.L643:
# mergeo.h:48:     merging_optimized(a, low, mid, high, b);
	movl	%r9d, %edx	# tmp118,
	movq	%rbx, %r8	# b,
	movl	%r15d, %ecx	# tmp114,
	movl	%ebp, %esi	# low,
	movq	%r14, %rdi	# a,
	call	merging_optimized	#
# mergeo.h:47:     sort_merge_o(a, mid + 1, high, b);
	leal	1(%r15), %r9d	#, _14
# mergeo.h:44:   if (low < high) {
	cmpl	%r9d, %r12d	# _14, tmp110
	jle	.L644	#,
.L658:
# mergeo.h:45:     mid = (low + high) / 2;
	leal	(%r12,%r9), %eax	#, tmp119
# mergeo.h:45:     mid = (low + high) / 2;
	movl	%eax, %r10d	# tmp119, tmp120
	shrl	$31, %r10d	#, tmp120
	addl	%eax, %r10d	# tmp119, tmp121
	sarl	%r10d	# tmp122
# mergeo.h:44:   if (low < high) {
	cmpl	%r10d, %r9d	# tmp122, _14
	jl	.L663	#,
.L645:
# mergeo.h:47:     sort_merge_o(a, mid + 1, high, b);
	leal	1(%r10), %esi	#, _20
# mergeo.h:44:   if (low < high) {
	cmpl	%esi, %r12d	# _20, tmp110
	jg	.L664	#,
.L646:
# mergeo.h:48:     merging_optimized(a, low, mid, high, b);
	movq	%rbx, %r8	# b,
	movl	%r12d, %ecx	# tmp110,
	movl	%r10d, %edx	# tmp122,
	movl	%r9d, %esi	# _14,
	movq	%r14, %rdi	# a,
	call	merging_optimized	#
	jmp	.L644	#
	.p2align 4,,10
	.p2align 3
.L660:
# mergeo.h:45:     mid = (low + high) / 2;
	leal	0(%r13,%r10), %eax	#, tmp131
# mergeo.h:45:     mid = (low + high) / 2;
	movl	%eax, %r11d	# tmp131, tmp132
	shrl	$31, %r11d	#, tmp132
	addl	%eax, %r11d	# tmp131, tmp133
	sarl	%r11d	# tmp134
# mergeo.h:44:   if (low < high) {
	cmpl	%r11d, %r10d	# tmp134, _23
	jl	.L665	#,
.L652:
# mergeo.h:47:     sort_merge_o(a, mid + 1, high, b);
	leal	1(%r11), %esi	#, _29
# mergeo.h:44:   if (low < high) {
	cmpl	%esi, %r13d	# _29, high
	jg	.L666	#,
.L653:
# mergeo.h:48:     merging_optimized(a, low, mid, high, b);
	movq	%rbx, %r8	# b,
	movl	%r13d, %ecx	# high,
	movl	%r11d, %edx	# tmp134,
	movl	%r10d, %esi	# _23,
	movq	%r14, %rdi	# a,
	movl	%r9d, 4(%rsp)	# tmp126, %sfp
	call	merging_optimized	#
	movl	4(%rsp), %r9d	# %sfp, tmp126
	jmp	.L651	#
	.p2align 4,,10
	.p2align 3
.L659:
# mergeo.h:45:     mid = (low + high) / 2;
	leal	(%r15,%r9), %eax	#, tmp127
# mergeo.h:45:     mid = (low + high) / 2;
	movl	%eax, %r10d	# tmp127, tmp128
	shrl	$31, %r10d	#, tmp128
	addl	%eax, %r10d	# tmp127, tmp129
	sarl	%r10d	# tmp130
# mergeo.h:44:   if (low < high) {
	cmpl	%r10d, %r15d	# tmp130, _7
	jl	.L667	#,
.L649:
# mergeo.h:47:     sort_merge_o(a, mid + 1, high, b);
	leal	1(%r10), %esi	#, _26
# mergeo.h:44:   if (low < high) {
	cmpl	%esi, %r9d	# _26, tmp126
	jg	.L668	#,
.L650:
# mergeo.h:48:     merging_optimized(a, low, mid, high, b);
	movl	%r9d, %ecx	# tmp126,
	movq	%rbx, %r8	# b,
	movl	%r10d, %edx	# tmp130,
	movl	%r15d, %esi	# _7,
	movq	%r14, %rdi	# a,
	movl	%r9d, 4(%rsp)	# tmp126, %sfp
	call	merging_optimized	#
	movl	4(%rsp), %r9d	# %sfp, tmp126
	jmp	.L648	#
	.p2align 4,,10
	.p2align 3
.L661:
	movl	%r9d, %edx	# tmp118,
	movl	%r9d, 4(%rsp)	# tmp118, %sfp
	call	sort_merge_o.part.0	#
	movl	4(%rsp), %r9d	# %sfp, tmp118
	jmp	.L642	#
	.p2align 4,,10
	.p2align 3
.L664:
	movq	%rbx, %rcx	# b,
	movl	%r12d, %edx	# tmp110,
	movq	%r14, %rdi	# a,
	movl	%r10d, 8(%rsp)	# tmp122, %sfp
	movl	%r9d, 4(%rsp)	# _14, %sfp
	call	sort_merge_o.part.0	#
	movl	8(%rsp), %r10d	# %sfp, tmp122
	movl	4(%rsp), %r9d	# %sfp, _14
	jmp	.L646	#
	.p2align 4,,10
	.p2align 3
.L663:
	movl	%r10d, %edx	# tmp122,
	movl	%r9d, %esi	# _14,
	movq	%rbx, %rcx	# b,
	movq	%r14, %rdi	# a,
	movl	%r10d, 8(%rsp)	# tmp122, %sfp
	movl	%r9d, 4(%rsp)	# _14, %sfp
	call	sort_merge_o.part.0	#
	movl	8(%rsp), %r10d	# %sfp, tmp122
	movl	4(%rsp), %r9d	# %sfp, _14
	jmp	.L645	#
	.p2align 4,,10
	.p2align 3
.L668:
	movl	%r9d, %edx	# tmp126,
	movq	%rbx, %rcx	# b,
	movq	%r14, %rdi	# a,
	movl	%r10d, 8(%rsp)	# tmp130, %sfp
	movl	%r9d, 4(%rsp)	# tmp126, %sfp
	call	sort_merge_o.part.0	#
	movl	8(%rsp), %r10d	# %sfp, tmp130
	movl	4(%rsp), %r9d	# %sfp, tmp126
	jmp	.L650	#
	.p2align 4,,10
	.p2align 3
.L667:
	movl	%r10d, %edx	# tmp130,
	movq	%rbx, %rcx	# b,
	movl	%r15d, %esi	# _7,
	movq	%r14, %rdi	# a,
	movl	%r9d, 8(%rsp)	# tmp126, %sfp
	movl	%r10d, 4(%rsp)	# tmp130, %sfp
	call	sort_merge_o.part.0	#
	movl	8(%rsp), %r9d	# %sfp, tmp126
	movl	4(%rsp), %r10d	# %sfp, tmp130
	jmp	.L649	#
	.p2align 4,,10
	.p2align 3
.L666:
	movq	%rbx, %rcx	# b,
	movl	%r13d, %edx	# high,
	movq	%r14, %rdi	# a,
	movl	%r11d, 12(%rsp)	# tmp134, %sfp
	movl	%r9d, 8(%rsp)	# tmp126, %sfp
	movl	%r10d, 4(%rsp)	# _23, %sfp
	call	sort_merge_o.part.0	#
	movl	12(%rsp), %r11d	# %sfp, tmp134
	movl	8(%rsp), %r9d	# %sfp, tmp126
	movl	4(%rsp), %r10d	# %sfp, _23
	jmp	.L653	#
	.p2align 4,,10
	.p2align 3
.L665:
	movl	%r11d, %edx	# tmp134,
	movl	%r10d, %esi	# _23,
	movq	%rbx, %rcx	# b,
	movq	%r14, %rdi	# a,
	movl	%r9d, 12(%rsp)	# tmp126, %sfp
	movl	%r11d, 8(%rsp)	# tmp134, %sfp
	movl	%r10d, 4(%rsp)	# _23, %sfp
	call	sort_merge_o.part.0	#
	movl	12(%rsp), %r9d	# %sfp, tmp126
	movl	8(%rsp), %r11d	# %sfp, tmp134
	movl	4(%rsp), %r10d	# %sfp, _23
	jmp	.L652	#
	.p2align 4,,10
	.p2align 3
.L662:
	movq	%rbx, %rcx	# b,
	movl	%r15d, %edx	# tmp114,
	movq	%r14, %rdi	# a,
	movl	%r9d, 4(%rsp)	# tmp118, %sfp
	call	sort_merge_o.part.0	#
	movl	4(%rsp), %r9d	# %sfp, tmp118
	jmp	.L643	#
	.cfi_endproc
.LFE5712:
	.size	sort_merge_o.part.0, .-sort_merge_o.part.0
	.p2align 4
	.globl	sort_merge_optimized
	.type	sort_merge_optimized, @function
sort_merge_optimized:
.LFB5402:
	.cfi_startproc
	endbr64	
	pushq	%r15	#
	.cfi_def_cfa_offset 16
	.cfi_offset 15, -16
	pushq	%r14	#
	.cfi_def_cfa_offset 24
	.cfi_offset 14, -24
	pushq	%r13	#
	.cfi_def_cfa_offset 32
	.cfi_offset 13, -32
	movl	%edx, %r13d	# tmp118, high
	pushq	%r12	#
	.cfi_def_cfa_offset 40
	.cfi_offset 12, -40
	movq	%rdi, %r12	# tmp116, a
# mergeo.h:53:   int *b = (int*) malloc(sizeof(int32_t) * (high - low + 1));
	movl	%edx, %edi	# high, tmp99
# mergeo.h:52: void sort_merge_optimized(int a[], int low, int high) {
	pushq	%rbp	#
	.cfi_def_cfa_offset 48
	.cfi_offset 6, -48
# mergeo.h:53:   int *b = (int*) malloc(sizeof(int32_t) * (high - low + 1));
	subl	%esi, %edi	# low, tmp99
# mergeo.h:53:   int *b = (int*) malloc(sizeof(int32_t) * (high - low + 1));
	incl	%edi	# tmp100
# mergeo.h:52: void sort_merge_optimized(int a[], int low, int high) {
	pushq	%rbx	#
	.cfi_def_cfa_offset 56
	.cfi_offset 3, -56
# mergeo.h:53:   int *b = (int*) malloc(sizeof(int32_t) * (high - low + 1));
	movslq	%edi, %rdi	# tmp100, tmp101
# mergeo.h:53:   int *b = (int*) malloc(sizeof(int32_t) * (high - low + 1));
	salq	$2, %rdi	#, tmp102
# mergeo.h:52: void sort_merge_optimized(int a[], int low, int high) {
	subq	$24, %rsp	#,
	.cfi_def_cfa_offset 80
# mergeo.h:52: void sort_merge_optimized(int a[], int low, int high) {
	movl	%esi, %ebp	# tmp117, low
# mergeo.h:53:   int *b = (int*) malloc(sizeof(int32_t) * (high - low + 1));
	call	malloc@PLT	#
	movq	%rax, %r14	# tmp119, b
# mergeo.h:44:   if (low < high) {
	cmpl	%ebp, %r13d	# low, high
	jg	.L678	#,
.L670:
# mergeo.h:56: }
	addq	$24, %rsp	#,
	.cfi_remember_state
	.cfi_def_cfa_offset 56
	popq	%rbx	#
	.cfi_def_cfa_offset 48
	popq	%rbp	#
	.cfi_def_cfa_offset 40
	popq	%r12	#
	.cfi_def_cfa_offset 32
	popq	%r13	#
	.cfi_def_cfa_offset 24
# mergeo.h:55:   free(b);
	movq	%r14, %rdi	# b,
# mergeo.h:56: }
	popq	%r14	#
	.cfi_def_cfa_offset 16
	popq	%r15	#
	.cfi_def_cfa_offset 8
# mergeo.h:55:   free(b);
	jmp	free@PLT	#
	.p2align 4,,10
	.p2align 3
.L678:
	.cfi_restore_state
# mergeo.h:45:     mid = (low + high) / 2;
	leal	0(%r13,%rbp), %eax	#, tmp104
# mergeo.h:45:     mid = (low + high) / 2;
	movl	%eax, %r15d	# tmp104, tmp105
	shrl	$31, %r15d	#, tmp105
	addl	%eax, %r15d	# tmp104, tmp106
	sarl	%r15d	# tmp107
# mergeo.h:44:   if (low < high) {
	cmpl	%r15d, %ebp	# tmp107, low
	jl	.L679	#,
# mergeo.h:47:     sort_merge_o(a, mid + 1, high, b);
	leal	1(%r15), %ebx	#, _16
# mergeo.h:44:   if (low < high) {
	cmpl	%ebx, %r13d	# _16, high
	jg	.L680	#,
.L674:
# mergeo.h:48:     merging_optimized(a, low, mid, high, b);
	movq	%r14, %r8	# b,
	movl	%r13d, %ecx	# high,
	movl	%r15d, %edx	# tmp107,
	movl	%ebp, %esi	# low,
	movq	%r12, %rdi	# a,
	call	merging_optimized	#
	jmp	.L670	#
	.p2align 4,,10
	.p2align 3
.L679:
# mergeo.h:45:     mid = (low + high) / 2;
	leal	0(%rbp,%r15), %eax	#, tmp108
# mergeo.h:45:     mid = (low + high) / 2;
	movl	%eax, %ebx	# tmp108, tmp109
	shrl	$31, %ebx	#, tmp109
	addl	%eax, %ebx	# tmp108, tmp110
	sarl	%ebx	# tmp111
# mergeo.h:44:   if (low < high) {
	cmpl	%ebx, %ebp	# tmp111, low
	jl	.L681	#,
.L672:
# mergeo.h:47:     sort_merge_o(a, mid + 1, high, b);
	leal	1(%rbx), %esi	#, _19
# mergeo.h:44:   if (low < high) {
	cmpl	%esi, %r15d	# _19, tmp107
	jg	.L682	#,
.L673:
# mergeo.h:48:     merging_optimized(a, low, mid, high, b);
	movl	%ebx, %edx	# tmp111,
	movq	%r14, %r8	# b,
	movl	%r15d, %ecx	# tmp107,
	movl	%ebp, %esi	# low,
	movq	%r12, %rdi	# a,
# mergeo.h:47:     sort_merge_o(a, mid + 1, high, b);
	leal	1(%r15), %ebx	#, _16
# mergeo.h:48:     merging_optimized(a, low, mid, high, b);
	call	merging_optimized	#
# mergeo.h:44:   if (low < high) {
	cmpl	%ebx, %r13d	# _16, high
	jle	.L674	#,
.L680:
# mergeo.h:45:     mid = (low + high) / 2;
	leal	0(%r13,%rbx), %eax	#, tmp112
# mergeo.h:45:     mid = (low + high) / 2;
	movl	%eax, %r9d	# tmp112, tmp113
	shrl	$31, %r9d	#, tmp113
	addl	%eax, %r9d	# tmp112, tmp114
	sarl	%r9d	# tmp115
# mergeo.h:44:   if (low < high) {
	cmpl	%r9d, %ebx	# tmp115, _16
	jl	.L683	#,
.L675:
# mergeo.h:47:     sort_merge_o(a, mid + 1, high, b);
	leal	1(%r9), %esi	#, _22
# mergeo.h:44:   if (low < high) {
	cmpl	%esi, %r13d	# _22, high
	jg	.L684	#,
.L676:
# mergeo.h:48:     merging_optimized(a, low, mid, high, b);
	movq	%r14, %r8	# b,
	movl	%r13d, %ecx	# high,
	movl	%r9d, %edx	# tmp115,
	movl	%ebx, %esi	# _16,
	movq	%r12, %rdi	# a,
	call	merging_optimized	#
	jmp	.L674	#
	.p2align 4,,10
	.p2align 3
.L681:
	movq	%r14, %rcx	# b,
	movl	%ebx, %edx	# tmp111,
	movl	%ebp, %esi	# low,
	movq	%r12, %rdi	# a,
	call	sort_merge_o.part.0	#
	jmp	.L672	#
	.p2align 4,,10
	.p2align 3
.L684:
	movq	%r14, %rcx	# b,
	movl	%r13d, %edx	# high,
	movq	%r12, %rdi	# a,
	movl	%r9d, 12(%rsp)	# tmp115, %sfp
	call	sort_merge_o.part.0	#
	movl	12(%rsp), %r9d	# %sfp, tmp115
	jmp	.L676	#
	.p2align 4,,10
	.p2align 3
.L683:
	movl	%r9d, %edx	# tmp115,
	movq	%r14, %rcx	# b,
	movl	%ebx, %esi	# _16,
	movq	%r12, %rdi	# a,
	movl	%r9d, 12(%rsp)	# tmp115, %sfp
	call	sort_merge_o.part.0	#
	movl	12(%rsp), %r9d	# %sfp, tmp115
	jmp	.L675	#
	.p2align 4,,10
	.p2align 3
.L682:
	movq	%r14, %rcx	# b,
	movl	%r15d, %edx	# tmp107,
	movq	%r12, %rdi	# a,
	call	sort_merge_o.part.0	#
	jmp	.L673	#
	.cfi_endproc
.LFE5402:
	.size	sort_merge_optimized, .-sort_merge_optimized
	.p2align 4
	.globl	sort_merge_o
	.type	sort_merge_o, @function
sort_merge_o:
.LFB5401:
	.cfi_startproc
	endbr64	
# mergeo.h:44:   if (low < high) {
	cmpl	%edx, %esi	# high, low
	jl	.L697	#,
	ret	
	.p2align 4,,10
	.p2align 3
.L697:
# mergeo.h:41: void sort_merge_o(int a[], int low, int high, int *b) {
	pushq	%r15	#
	.cfi_def_cfa_offset 16
	.cfi_offset 15, -16
# mergeo.h:45:     mid = (low + high) / 2;
	leal	(%rsi,%rdx), %eax	#, tmp95
# mergeo.h:41: void sort_merge_o(int a[], int low, int high, int *b) {
	pushq	%r14	#
	.cfi_def_cfa_offset 24
	.cfi_offset 14, -24
	pushq	%r13	#
	.cfi_def_cfa_offset 32
	.cfi_offset 13, -32
# mergeo.h:45:     mid = (low + high) / 2;
	movl	%eax, %r13d	# tmp95, tmp96
	shrl	$31, %r13d	#, tmp96
# mergeo.h:41: void sort_merge_o(int a[], int low, int high, int *b) {
	pushq	%r12	#
	.cfi_def_cfa_offset 40
	.cfi_offset 12, -40
# mergeo.h:45:     mid = (low + high) / 2;
	addl	%eax, %r13d	# tmp95, tmp97
	sarl	%r13d	# tmp98
# mergeo.h:41: void sort_merge_o(int a[], int low, int high, int *b) {
	pushq	%rbp	#
	.cfi_def_cfa_offset 48
	.cfi_offset 6, -48
	movl	%edx, %r12d	# tmp109, high
	movl	%esi, %ebp	# tmp108, low
	pushq	%rbx	#
	.cfi_def_cfa_offset 56
	.cfi_offset 3, -56
	movq	%rcx, %rbx	# tmp110, b
	subq	$24, %rsp	#,
	.cfi_def_cfa_offset 80
# mergeo.h:44:   if (low < high) {
	cmpl	%r13d, %esi	# tmp98, low
	jl	.L698	#,
# mergeo.h:47:     sort_merge_o(a, mid + 1, high, b);
	leal	1(%r13), %r14d	#, _10
# mergeo.h:44:   if (low < high) {
	cmpl	%r14d, %r12d	# _10, high
	jg	.L699	#,
.L690:
# mergeo.h:50: }
	addq	$24, %rsp	#,
	.cfi_remember_state
	.cfi_def_cfa_offset 56
# mergeo.h:48:     merging_optimized(a, low, mid, high, b);
	movq	%rbx, %r8	# b,
# mergeo.h:50: }
	popq	%rbx	#
	.cfi_restore 3
	.cfi_def_cfa_offset 48
# mergeo.h:48:     merging_optimized(a, low, mid, high, b);
	movl	%ebp, %esi	# low,
# mergeo.h:50: }
	popq	%rbp	#
	.cfi_restore 6
	.cfi_def_cfa_offset 40
# mergeo.h:48:     merging_optimized(a, low, mid, high, b);
	movl	%r12d, %ecx	# high,
# mergeo.h:50: }
	popq	%r12	#
	.cfi_restore 12
	.cfi_def_cfa_offset 32
# mergeo.h:48:     merging_optimized(a, low, mid, high, b);
	movl	%r13d, %edx	# tmp98,
# mergeo.h:50: }
	popq	%r13	#
	.cfi_restore 13
	.cfi_def_cfa_offset 24
	popq	%r14	#
	.cfi_restore 14
	.cfi_def_cfa_offset 16
	popq	%r15	#
	.cfi_restore 15
	.cfi_def_cfa_offset 8
# mergeo.h:48:     merging_optimized(a, low, mid, high, b);
	jmp	merging_optimized	#
	.p2align 4,,10
	.p2align 3
.L698:
	.cfi_restore_state
# mergeo.h:45:     mid = (low + high) / 2;
	leal	(%rsi,%r13), %eax	#, tmp99
# mergeo.h:45:     mid = (low + high) / 2;
	movl	%eax, %r14d	# tmp99, tmp100
	shrl	$31, %r14d	#, tmp100
	addl	%eax, %r14d	# tmp99, tmp101
	sarl	%r14d	# tmp102
# mergeo.h:44:   if (low < high) {
	cmpl	%r14d, %esi	# tmp102, low
	jl	.L700	#,
.L688:
# mergeo.h:47:     sort_merge_o(a, mid + 1, high, b);
	leal	1(%r14), %esi	#, _13
# mergeo.h:44:   if (low < high) {
	cmpl	%esi, %r13d	# _13, tmp98
	jg	.L701	#,
.L689:
# mergeo.h:48:     merging_optimized(a, low, mid, high, b);
	movl	%r14d, %edx	# tmp102,
	movq	%rbx, %r8	# b,
	movl	%r13d, %ecx	# tmp98,
	movl	%ebp, %esi	# low,
# mergeo.h:47:     sort_merge_o(a, mid + 1, high, b);
	leal	1(%r13), %r14d	#, _10
# mergeo.h:48:     merging_optimized(a, low, mid, high, b);
	call	merging_optimized	#
# mergeo.h:44:   if (low < high) {
	cmpl	%r14d, %r12d	# _10, high
	jle	.L690	#,
.L699:
# mergeo.h:45:     mid = (low + high) / 2;
	leal	(%r12,%r14), %eax	#, tmp103
# mergeo.h:45:     mid = (low + high) / 2;
	movl	%eax, %r15d	# tmp103, tmp104
	shrl	$31, %r15d	#, tmp104
	addl	%eax, %r15d	# tmp103, tmp105
	sarl	%r15d	# tmp106
# mergeo.h:44:   if (low < high) {
	cmpl	%r15d, %r14d	# tmp106, _10
	jl	.L702	#,
.L691:
# mergeo.h:47:     sort_merge_o(a, mid + 1, high, b);
	leal	1(%r15), %esi	#, _16
# mergeo.h:44:   if (low < high) {
	cmpl	%esi, %r12d	# _16, high
	jg	.L703	#,
.L692:
# mergeo.h:48:     merging_optimized(a, low, mid, high, b);
	movq	%rbx, %r8	# b,
	movl	%r12d, %ecx	# high,
	movl	%r15d, %edx	# tmp106,
	movl	%r14d, %esi	# _10,
	call	merging_optimized	#
	jmp	.L690	#
	.p2align 4,,10
	.p2align 3
.L700:
	movl	%r14d, %edx	# tmp102,
	movq	%rdi, 8(%rsp)	# a, %sfp
	call	sort_merge_o.part.0	#
	movq	8(%rsp), %rdi	# %sfp, a
	jmp	.L688	#
	.p2align 4,,10
	.p2align 3
.L703:
	movq	%rbx, %rcx	# b,
	movl	%r12d, %edx	# high,
	movq	%rdi, 8(%rsp)	# a, %sfp
	call	sort_merge_o.part.0	#
	movq	8(%rsp), %rdi	# %sfp, a
	jmp	.L692	#
	.p2align 4,,10
	.p2align 3
.L702:
	movq	%rbx, %rcx	# b,
	movl	%r15d, %edx	# tmp106,
	movl	%r14d, %esi	# _10,
	movq	%rdi, 8(%rsp)	# a, %sfp
	call	sort_merge_o.part.0	#
	movq	8(%rsp), %rdi	# %sfp, a
	jmp	.L691	#
	.p2align 4,,10
	.p2align 3
.L701:
	movq	%rbx, %rcx	# b,
	movl	%r13d, %edx	# tmp98,
	movq	%rdi, 8(%rsp)	# a, %sfp
	call	sort_merge_o.part.0	#
	movq	8(%rsp), %rdi	# %sfp, a
	jmp	.L689	#
	.cfi_endproc
.LFE5401:
	.size	sort_merge_o, .-sort_merge_o
	.p2align 4
	.globl	merging_standard
	.type	merging_standard, @function
merging_standard:
.LFB5403:
	.cfi_startproc
	endbr64	
	pushq	%rbp	#
	.cfi_def_cfa_offset 16
	.cfi_offset 6, -16
# mergeu.h:7:   for (l1 = low, l2 = mid + 1, i = low; l1 <= mid && l2 <= high; i++) {
	leal	1(%rdx), %eax	#, tmp375
# mergeu.h:4: void merging_standard(int a[], int low, int mid, int high, int *b) {
	movl	%edx, %r9d	# tmp378, mid
	movq	%rsp, %rbp	#,
	.cfi_def_cfa_register 6
	pushq	%r15	#
	.cfi_offset 15, -24
	movl	%esi, %r15d	# tmp377, low
	pushq	%r14	#
	pushq	%r13	#
	pushq	%r12	#
	pushq	%rbx	#
	andq	$-32, %rsp	#,
	.cfi_offset 14, -32
	.cfi_offset 13, -40
	.cfi_offset 12, -48
	.cfi_offset 3, -56
# mergeu.h:7:   for (l1 = low, l2 = mid + 1, i = low; l1 <= mid && l2 <= high; i++) {
	movl	%eax, -12(%rsp)	# tmp375, %sfp
# mergeu.h:7:   for (l1 = low, l2 = mid + 1, i = low; l1 <= mid && l2 <= high; i++) {
	cmpl	%edx, %esi	# mid, low
	jg	.L740	#,
	cmpl	%ecx, %eax	# high, tmp375
	jg	.L740	#,
	leal	1(%rsi), %r10d	#, tmp296
	movslq	%r10d, %r10	# tmp296, ivtmp.1164
	jmp	.L708	#
	.p2align 4,,10
	.p2align 3
.L787:
# mergeu.h:9:       b[i] = a[l1];
	movl	%r11d, -4(%r8,%r10,4)	# _131, MEM[base: b_60(D), index: ivtmp.1164_150, step: 4, offset: -4B]
# mergeu.h:7:   for (l1 = low, l2 = mid + 1, i = low; l1 <= mid && l2 <= high; i++) {
	movl	%r10d, %edx	# ivtmp.1164, tmp.1080
# mergeu.h:10:       l1++;
	incl	%esi	# tmp.1099
# mergeu.h:7:   for (l1 = low, l2 = mid + 1, i = low; l1 <= mid && l2 <= high; i++) {
	incq	%r10	# ivtmp.1164
	cmpl	%eax, %ecx	# tmp.1079, high
	jl	.L705	#,
.L788:
	cmpl	%esi, %r9d	# tmp.1099, mid
	jl	.L710	#,
.L708:
# mergeu.h:8:     if (a[l1] <= a[l2]) {
	movslq	%esi, %rdx	# tmp.1099, tmp.1099
	movl	(%rdi,%rdx,4), %r11d	# *_132, _131
# mergeu.h:8:     if (a[l1] <= a[l2]) {
	movslq	%eax, %rdx	# tmp.1079, tmp.1079
	movl	(%rdi,%rdx,4), %edx	# *_128, _127
# mergeu.h:8:     if (a[l1] <= a[l2]) {
	cmpl	%r11d, %edx	# _131, _127
	jge	.L787	#,
# mergeu.h:13:       l2++;
	incl	%eax	# tmp.1079
# mergeu.h:12:       b[i] = a[l2];
	movl	%edx, -4(%r8,%r10,4)	# _127, MEM[base: b_60(D), index: ivtmp.1164_150, step: 4, offset: -4B]
# mergeu.h:7:   for (l1 = low, l2 = mid + 1, i = low; l1 <= mid && l2 <= high; i++) {
	movl	%r10d, %edx	# ivtmp.1164, tmp.1080
# mergeu.h:7:   for (l1 = low, l2 = mid + 1, i = low; l1 <= mid && l2 <= high; i++) {
	incq	%r10	# ivtmp.1164
	cmpl	%eax, %ecx	# tmp.1079, high
	jge	.L788	#,
.L705:
# mergeu.h:17:   while (l1 <= mid)
	cmpl	%esi, %r9d	# tmp.1099, mid
	jl	.L710	#,
	movslq	%edx, %r14	# tmp.1080, _383
	movl	%r9d, %ebx	# mid, _381
	movslq	%esi, %r10	# tmp.1099, ivtmp.1145
	subl	%esi, %ebx	# tmp.1099, _381
	leaq	0(,%r14,4), %r12	#, _384
	leaq	1(%r10), %r11	#, ivtmp.1145
	leaq	0(,%r11,4), %r13	#, _388
	movl	%ebx, -8(%rsp)	# _381, %sfp
	leaq	(%r8,%r12), %rbx	#, _385
	movq	%r14, -24(%rsp)	# _383, %sfp
	movq	%r13, -32(%rsp)	# _388, %sfp
	movq	%rbx, %r14	# _385, tmp305
	addq	%rdi, %r13	# a, tmp304
	subq	%r13, %r14	# tmp304, tmp305
	movl	%esi, -16(%rsp)	# tmp.1099, %sfp
	cmpq	$24, %r14	#, tmp305
	jbe	.L711	#,
	cmpl	$2, -8(%rsp)	#, %sfp
	jbe	.L711	#,
	movl	-12(%rsp), %r14d	# %sfp, niters.1086
	subl	%esi, %r14d	# tmp.1099, niters.1086
	cmpl	$6, -8(%rsp)	#, %sfp
	movl	%r14d, %r13d	# niters.1086, niters.1086
	jbe	.L741	#,
	movq	-32(%rsp), %r14	# %sfp, _388
	movl	%r13d, %r12d	# niters.1086, bnd.1087
	shrl	$3, %r12d	#,
	leaq	-4(%rdi,%r14), %r14	#, vectp.1092
	salq	$5, %r12	#, _149
	xorl	%r11d, %r11d	# ivtmp.1157
	.p2align 4,,10
	.p2align 3
.L713:
# mergeu.h:18:     b[i++] = a[l1++];
	vmovdqu	(%r14,%r11), %ymm1	# MEM[base: vectp.1092_442, index: ivtmp.1157_7, offset: 0B], tmp461
	vmovdqu	%ymm1, (%rbx,%r11)	# tmp461, MEM[base: _385, index: ivtmp.1157_7, offset: 0B]
	addq	$32, %r11	#, ivtmp.1157
	cmpq	%r12, %r11	# _149, ivtmp.1157
	jne	.L713	#,
	movl	%r13d, %r11d	# niters.1086, niters_vector_mult_vf.1088
	andl	$-8, %r11d	#,
	addl	%r11d, %esi	# niters_vector_mult_vf.1088, tmp.1099
	leal	(%rdx,%r11), %ebx	#, tmp.1100
	cmpl	%r11d, %r13d	# niters_vector_mult_vf.1088, niters.1086
	je	.L719	#,
	movl	-8(%rsp), %r12d	# %sfp, _381
	subl	%r11d, %r13d	# niters_vector_mult_vf.1088, niters.1086
	subl	%r11d, %r12d	# niters_vector_mult_vf.1088, _381
	cmpl	$2, %r12d	#, tmp317
	jbe	.L716	#,
.L712:
# mergeu.h:18:     b[i++] = a[l1++];
	addq	%r11, %r10	# _492, tmp318
	vmovdqu	(%rdi,%r10,4), %xmm0	# MEM <vector(4) int> [(int *)vectp.1102_490], MEM <vector(4) int> [(int *)vectp.1102_490]
	movl	%r13d, %r10d	# niters.1086, niters_vector_mult_vf.1098
	andl	$-4, %r10d	#, niters_vector_mult_vf.1098
# mergeu.h:18:     b[i++] = a[l1++];
	addq	-24(%rsp), %r11	# %sfp, tmp320
	vmovdqu	%xmm0, (%r8,%r11,4)	# MEM <vector(4) int> [(int *)vectp.1102_490], MEM <vector(4) int> [(int *)vectp.1105_498]
	addl	%r10d, %esi	# niters_vector_mult_vf.1098, tmp.1099
	addl	%r10d, %ebx	# niters_vector_mult_vf.1098, tmp.1100
	cmpl	%r10d, %r13d	# niters_vector_mult_vf.1098, niters.1086
	je	.L719	#,
.L716:
# mergeu.h:18:     b[i++] = a[l1++];
	movslq	%esi, %r12	# tmp.1099, tmp.1099
# mergeu.h:18:     b[i++] = a[l1++];
	movl	(%rdi,%r12,4), %r12d	# *_33, _63
# mergeu.h:18:     b[i++] = a[l1++];
	leal	1(%rbx), %r11d	#, i
# mergeu.h:18:     b[i++] = a[l1++];
	leal	1(%rsi), %r10d	#, l1
# mergeu.h:18:     b[i++] = a[l1++];
	movslq	%ebx, %rbx	# tmp.1100, tmp.1100
# mergeu.h:18:     b[i++] = a[l1++];
	movl	%r12d, (%r8,%rbx,4)	# _63, *_39
# mergeu.h:17:   while (l1 <= mid)
	cmpl	%r10d, %r9d	# l1, mid
	jl	.L719	#,
# mergeu.h:18:     b[i++] = a[l1++];
	movslq	%r10d, %r10	# l1, l1
# mergeu.h:18:     b[i++] = a[l1++];
	movl	(%rdi,%r10,4), %r10d	# *_161, _319
# mergeu.h:18:     b[i++] = a[l1++];
	movslq	%r11d, %r11	# i, i
# mergeu.h:18:     b[i++] = a[l1++];
	addl	$2, %esi	#, l1
# mergeu.h:18:     b[i++] = a[l1++];
	movl	%r10d, (%r8,%r11,4)	# _319, *_412
# mergeu.h:18:     b[i++] = a[l1++];
	leaq	0(,%r11,4), %rbx	#, _456
# mergeu.h:17:   while (l1 <= mid)
	cmpl	%esi, %r9d	# l1, mid
	jl	.L719	#,
# mergeu.h:18:     b[i++] = a[l1++];
	movslq	%esi, %rsi	# l1, l1
# mergeu.h:18:     b[i++] = a[l1++];
	movl	(%rdi,%rsi,4), %esi	# *_468, _473
# mergeu.h:18:     b[i++] = a[l1++];
	movl	%esi, 4(%r8,%rbx)	# _473, *_472
.L719:
	addl	-12(%rsp), %edx	# %sfp, tmp316
# mergeu.h:18:     b[i++] = a[l1++];
	subl	-16(%rsp), %edx	# %sfp, tmp.1080
.L710:
# mergeu.h:20:   while (l2 <= high)
	cmpl	%eax, %ecx	# tmp.1079, high
	jl	.L727	#,
	movslq	%edx, %r11	# tmp.1080, _247
	movslq	%eax, %rsi	# tmp.1079, ivtmp.1126
	leaq	1(%rsi), %r14	#, ivtmp.1126
	leaq	0(,%r11,4), %r13	#, _248
	leaq	(%r8,%r13), %r10	#, _249
	leaq	0(,%r14,4), %r12	#, _252
	movq	%r14, -8(%rsp)	# ivtmp.1126, %sfp
	movq	%r10, %r9	# _249, tmp332
	leaq	(%rdi,%r12), %r14	#, tmp331
	movl	%ecx, %ebx	# high, _245
	subq	%r14, %r9	# tmp331, tmp332
	subl	%eax, %ebx	# tmp.1079, _245
	cmpq	$24, %r9	#, tmp332
	jbe	.L723	#,
	cmpl	$2, %ebx	#, _245
	jbe	.L723	#,
	leal	1(%rcx), %r13d	#, tmp337
	subl	%eax, %r13d	# tmp.1079, niters.1066
	cmpl	$6, %ebx	#, _245
	jbe	.L742	#,
	leaq	-4(%rdi,%r12), %r14	#, vectp.1072
	movl	%r13d, %r12d	# niters.1066, bnd.1067
	shrl	$3, %r12d	#,
	salq	$5, %r12	#, _14
	xorl	%r9d, %r9d	# ivtmp.1138
	.p2align 4,,10
	.p2align 3
.L725:
# mergeu.h:21:     b[i++] = a[l2++];
	vmovdqu	(%r14,%r9), %ymm2	# MEM[base: vectp.1072_305, index: ivtmp.1138_221, offset: 0B], tmp470
	vmovdqu	%ymm2, (%r10,%r9)	# tmp470, MEM[base: _249, index: ivtmp.1138_221, offset: 0B]
	addq	$32, %r9	#, ivtmp.1138
	cmpq	%r9, %r12	# ivtmp.1138, _14
	jne	.L725	#,
	movl	%r13d, %r9d	# niters.1066, niters_vector_mult_vf.1068
	andl	$-8, %r9d	#,
	addl	%r9d, %eax	# niters_vector_mult_vf.1068, tmp.1079
	addl	%r9d, %edx	# niters_vector_mult_vf.1068, tmp.1080
	cmpl	%r9d, %r13d	# niters_vector_mult_vf.1068, niters.1066
	je	.L727	#,
	subl	%r9d, %ebx	# niters_vector_mult_vf.1068, tmp342
	subl	%r9d, %r13d	# niters_vector_mult_vf.1068, niters.1066
	cmpl	$2, %ebx	#, tmp342
	jbe	.L729	#,
.L724:
# mergeu.h:21:     b[i++] = a[l2++];
	addq	%r9, %rsi	# _355, tmp343
	vmovdqu	(%rdi,%rsi,4), %xmm0	# MEM <vector(4) int> [(int *)vectp.1082_353], MEM <vector(4) int> [(int *)vectp.1082_353]
	movl	%r13d, %esi	# niters.1066, niters_vector_mult_vf.1078
	andl	$-4, %esi	#, niters_vector_mult_vf.1078
# mergeu.h:21:     b[i++] = a[l2++];
	addq	%r11, %r9	# _247, tmp345
	vmovdqu	%xmm0, (%r8,%r9,4)	# MEM <vector(4) int> [(int *)vectp.1082_353], MEM <vector(4) int> [(int *)vectp.1085_361]
	addl	%esi, %eax	# niters_vector_mult_vf.1078, tmp.1079
	addl	%esi, %edx	# niters_vector_mult_vf.1078, tmp.1080
	cmpl	%r13d, %esi	# niters.1066, niters_vector_mult_vf.1078
	je	.L727	#,
.L729:
# mergeu.h:21:     b[i++] = a[l2++];
	movslq	%eax, %r10	# tmp.1079, tmp.1079
# mergeu.h:21:     b[i++] = a[l2++];
	movl	(%rdi,%r10,4), %r10d	# *_426, _27
# mergeu.h:21:     b[i++] = a[l2++];
	leal	1(%rdx), %r9d	#, i
# mergeu.h:21:     b[i++] = a[l2++];
	leal	1(%rax), %esi	#, l2
# mergeu.h:21:     b[i++] = a[l2++];
	movslq	%edx, %rdx	# tmp.1080, tmp.1080
# mergeu.h:21:     b[i++] = a[l2++];
	movl	%r10d, (%r8,%rdx,4)	# _27, *_26
# mergeu.h:20:   while (l2 <= high)
	cmpl	%esi, %ecx	# l2, high
	jl	.L727	#,
# mergeu.h:21:     b[i++] = a[l2++];
	movslq	%esi, %rsi	# l2, l2
# mergeu.h:21:     b[i++] = a[l2++];
	movl	(%rdi,%rsi,4), %esi	# *_277, _282
# mergeu.h:21:     b[i++] = a[l2++];
	movslq	%r9d, %rdx	# i, i
# mergeu.h:21:     b[i++] = a[l2++];
	addl	$2, %eax	#, l2
# mergeu.h:21:     b[i++] = a[l2++];
	movl	%esi, (%r8,%rdx,4)	# _282, *_281
# mergeu.h:21:     b[i++] = a[l2++];
	leaq	0(,%rdx,4), %r9	#, _280
# mergeu.h:20:   while (l2 <= high)
	cmpl	%ecx, %eax	# high, l2
	jg	.L727	#,
# mergeu.h:21:     b[i++] = a[l2++];
	cltq
# mergeu.h:21:     b[i++] = a[l2++];
	movl	(%rdi,%rax,4), %eax	# *_331, _336
# mergeu.h:21:     b[i++] = a[l2++];
	movl	%eax, 4(%r8,%r9)	# _336, *_335
.L727:
# mergeu.h:23:   for (i = low; i <= high; i++)
	cmpl	%ecx, %r15d	# high, low
	jg	.L783	#,
	movslq	%r15d, %rdx	# low, ivtmp.1109
	leaq	0(,%rdx,4), %rsi	#, _77
	leaq	(%rdi,%rsi), %rbx	#, _76
	leaq	4(%r8,%rsi), %r9	#, tmp356
	movq	%rbx, %rax	# _76, tmp357
	movl	%ecx, %r11d	# high, _80
	subq	%r9, %rax	# tmp356, tmp357
	subl	%r15d, %r11d	# low, _80
	cmpq	$24, %rax	#, tmp357
	jbe	.L762	#,
	cmpl	$2, %r11d	#, _80
	jbe	.L762	#,
	leal	1(%rcx), %r9d	#, tmp362
	subl	%r15d, %r9d	# low, niters.1048
	cmpl	$6, %r11d	#, _80
	jbe	.L743	#,
	movl	%r9d, %r10d	# niters.1048, bnd.1049
	shrl	$3, %r10d	#,
	addq	%r8, %rsi	# b, vectp.1053
	salq	$5, %r10	#, _421
	xorl	%eax, %eax	# ivtmp.1119
	.p2align 4,,10
	.p2align 3
.L735:
# mergeu.h:24:     a[i] = b[i];
	vmovdqu	(%rsi,%rax), %ymm3	# MEM[base: vectp.1053_175, index: ivtmp.1119_503, offset: 0B], tmp477
	vmovdqu	%ymm3, (%rbx,%rax)	# tmp477, MEM[base: _76, index: ivtmp.1119_503, offset: 0B]
	addq	$32, %rax	#, ivtmp.1119
	cmpq	%rax, %r10	# ivtmp.1119, _421
	jne	.L735	#,
	movl	%r9d, %eax	# niters.1048, niters_vector_mult_vf.1050
	andl	$-8, %eax	#,
	addl	%eax, %r15d	# niters_vector_mult_vf.1050, low
	cmpl	%eax, %r9d	# niters_vector_mult_vf.1050, niters.1048
	je	.L783	#,
	subl	%eax, %r11d	# niters_vector_mult_vf.1050, tmp366
	subl	%eax, %r9d	# niters_vector_mult_vf.1050, niters.1048
	cmpl	$2, %r11d	#, tmp366
	jbe	.L737	#,
.L734:
	addq	%rax, %rdx	# niters_vector_mult_vf.1050, tmp368
# mergeu.h:24:     a[i] = b[i];
	vmovdqu	(%r8,%rdx,4), %xmm4	# MEM <vector(4) int> [(int *)vectp.1062_216], tmp479
	movl	%r9d, %eax	# niters.1048, niters_vector_mult_vf.1059
	andl	$-4, %eax	#, niters_vector_mult_vf.1059
	vmovdqu	%xmm4, (%rdi,%rdx,4)	# tmp479, MEM <vector(4) int> [(int *)vectp.1065_224]
	addl	%eax, %r15d	# niters_vector_mult_vf.1059, low
	cmpl	%eax, %r9d	# niters_vector_mult_vf.1059, niters.1048
	je	.L783	#,
.L737:
# mergeu.h:24:     a[i] = b[i];
	movslq	%r15d, %rax	# low, low
	movl	(%r8,%rax,4), %edx	# *_67, _20
# mergeu.h:24:     a[i] = b[i];
	movl	%edx, (%rdi,%rax,4)	# _20, *_19
# mergeu.h:23:   for (i = low; i <= high; i++)
	leal	1(%r15), %eax	#, i
# mergeu.h:23:   for (i = low; i <= high; i++)
	cmpl	%eax, %ecx	# i, high
	jl	.L783	#,
# mergeu.h:24:     a[i] = b[i];
	cltq
	movl	(%r8,%rax,4), %edx	# *_414, _416
# mergeu.h:23:   for (i = low; i <= high; i++)
	leal	2(%r15), %esi	#, i
# mergeu.h:24:     a[i] = b[i];
	movl	%edx, (%rdi,%rax,4)	# _416, *_413
# mergeu.h:23:   for (i = low; i <= high; i++)
	cmpl	%esi, %ecx	# i, high
	jl	.L783	#,
# mergeu.h:24:     a[i] = b[i];
	movslq	%esi, %rsi	# i, i
	movl	(%r8,%rsi,4), %eax	# *_199, _201
# mergeu.h:24:     a[i] = b[i];
	movl	%eax, (%rdi,%rsi,4)	# _201, *_200
.L783:
	vzeroupper
# mergeu.h:25: }
	leaq	-40(%rbp), %rsp	#,
	popq	%rbx	#
	popq	%r12	#
	popq	%r13	#
	popq	%r14	#
	popq	%r15	#
	popq	%rbp	#
	.cfi_remember_state
	.cfi_def_cfa 7, 8
	ret	
	.p2align 4,,10
	.p2align 3
.L762:
	.cfi_restore_state
# mergeu.h:24:     a[i] = b[i];
	movl	(%r8,%rdx,4), %eax	# MEM[base: b_60(D), index: ivtmp.1109_286, step: 4, offset: 0B], _36
# mergeu.h:24:     a[i] = b[i];
	movl	%eax, (%rdi,%rdx,4)	# _36, MEM[base: a_61(D), index: ivtmp.1109_286, step: 4, offset: 0B]
# mergeu.h:23:   for (i = low; i <= high; i++)
	incq	%rdx	# ivtmp.1109
	cmpl	%edx, %ecx	# ivtmp.1109, high
	jl	.L783	#,
# mergeu.h:24:     a[i] = b[i];
	movl	(%r8,%rdx,4), %eax	# MEM[base: b_60(D), index: ivtmp.1109_286, step: 4, offset: 0B], _36
# mergeu.h:24:     a[i] = b[i];
	movl	%eax, (%rdi,%rdx,4)	# _36, MEM[base: a_61(D), index: ivtmp.1109_286, step: 4, offset: 0B]
# mergeu.h:23:   for (i = low; i <= high; i++)
	incq	%rdx	# ivtmp.1109
	cmpl	%edx, %ecx	# ivtmp.1109, high
	jge	.L762	#,
	jmp	.L783	#
	.p2align 4,,10
	.p2align 3
.L711:
	movq	%r10, %rsi	# ivtmp.1145, tmp327
	negq	%rsi	# tmp327
	leaq	(%r12,%rsi,4), %rbx	#, tmp329
	addq	%r8, %rbx	# b, _5
	jmp	.L718	#
	.p2align 4,,10
	.p2align 3
.L789:
	incq	%r11	# ivtmp.1145
.L718:
# mergeu.h:18:     b[i++] = a[l1++];
	movl	(%rdi,%r10,4), %esi	# MEM[base: a_61(D), index: ivtmp.1145_99, step: 4, offset: 0B], _405
# mergeu.h:18:     b[i++] = a[l1++];
	movl	%esi, (%rbx,%r10,4)	# _405, MEM[base: _5, index: ivtmp.1145_99, step: 4, offset: 0B]
# mergeu.h:17:   while (l1 <= mid)
	movq	%r11, %r10	# ivtmp.1145, ivtmp.1145
	cmpl	%r11d, %r9d	# ivtmp.1145, mid
	jge	.L789	#,
	addl	-12(%rsp), %edx	# %sfp, tmp316
# mergeu.h:18:     b[i++] = a[l1++];
	subl	-16(%rsp), %edx	# %sfp, tmp.1080
	jmp	.L710	#
	.p2align 4,,10
	.p2align 3
.L723:
	movq	%rsi, %rax	# ivtmp.1126, tmp352
	negq	%rax	# tmp352
	leaq	0(%r13,%rax,4), %rdx	#, tmp354
	movq	-8(%rsp), %r9	# %sfp, ivtmp.1126
	addq	%r8, %rdx	# b, _232
	jmp	.L731	#
	.p2align 4,,10
	.p2align 3
.L790:
	incq	%r9	# ivtmp.1126
.L731:
# mergeu.h:21:     b[i++] = a[l2++];
	movl	(%rdi,%rsi,4), %eax	# MEM[base: a_61(D), index: ivtmp.1126_420, step: 4, offset: 0B], _269
# mergeu.h:21:     b[i++] = a[l2++];
	movl	%eax, (%rdx,%rsi,4)	# _269, MEM[base: _232, index: ivtmp.1126_420, step: 4, offset: 0B]
# mergeu.h:20:   while (l2 <= high)
	movq	%r9, %rsi	# ivtmp.1126, ivtmp.1126
	cmpl	%r9d, %ecx	# ivtmp.1126, high
	jge	.L790	#,
	jmp	.L727	#
	.p2align 4,,10
	.p2align 3
.L740:
# mergeu.h:7:   for (l1 = low, l2 = mid + 1, i = low; l1 <= mid && l2 <= high; i++) {
	movl	%r15d, %edx	# low, tmp.1080
	movl	%r15d, %esi	# low, tmp.1099
	jmp	.L705	#
.L742:
# mergeu.h:20:   while (l2 <= high)
	xorl	%r9d, %r9d	#
	jmp	.L724	#
.L743:
# mergeu.h:23:   for (i = low; i <= high; i++)
	xorl	%eax, %eax	#
	jmp	.L734	#
.L741:
# mergeu.h:17:   while (l1 <= mid)
	movl	%edx, %ebx	# tmp.1080, tmp.1100
	xorl	%r11d, %r11d	#
	jmp	.L712	#
	.cfi_endproc
.LFE5403:
	.size	merging_standard, .-merging_standard
	.p2align 4
	.type	sort_merge_standard_h.part.0, @function
sort_merge_standard_h.part.0:
.LFB5713:
	.cfi_startproc
	pushq	%r15	#
	.cfi_def_cfa_offset 16
	.cfi_offset 15, -16
# mergeu.h:29:     int mid = (low + high) / 2;
	leal	(%rsi,%rdx), %eax	#, tmp107
# mergeu.h:27: void sort_merge_standard_h(int a[], int low, int high, int *b) {
	pushq	%r14	#
	.cfi_def_cfa_offset 24
	.cfi_offset 14, -24
	movq	%rdi, %r14	# tmp135, a
	pushq	%r13	#
	.cfi_def_cfa_offset 32
	.cfi_offset 13, -32
	movl	%edx, %r13d	# tmp137, high
	pushq	%r12	#
	.cfi_def_cfa_offset 40
	.cfi_offset 12, -40
# mergeu.h:29:     int mid = (low + high) / 2;
	movl	%eax, %r12d	# tmp107, tmp108
	shrl	$31, %r12d	#, tmp108
# mergeu.h:27: void sort_merge_standard_h(int a[], int low, int high, int *b) {
	pushq	%rbp	#
	.cfi_def_cfa_offset 48
	.cfi_offset 6, -48
# mergeu.h:29:     int mid = (low + high) / 2;
	addl	%eax, %r12d	# tmp107, tmp109
	sarl	%r12d	# tmp110
# mergeu.h:27: void sort_merge_standard_h(int a[], int low, int high, int *b) {
	pushq	%rbx	#
	.cfi_def_cfa_offset 56
	.cfi_offset 3, -56
	movl	%esi, %ebp	# tmp136, low
	movq	%rcx, %rbx	# tmp138, b
	subq	$24, %rsp	#,
	.cfi_def_cfa_offset 80
# mergeu.h:28:   if (low < high) {
	cmpl	%r12d, %esi	# tmp110, low
	jl	.L807	#,
# mergeu.h:31:     sort_merge_standard_h(a, mid + 1, high, b);
	leal	1(%r12), %r15d	#, _7
# mergeu.h:28:   if (low < high) {
	cmpl	%r15d, %r13d	# _7, high
	jg	.L808	#,
.L799:
# mergeu.h:34: }
	addq	$24, %rsp	#,
	.cfi_remember_state
	.cfi_def_cfa_offset 56
# mergeu.h:32:     merging_standard(a, low, mid, high, b);
	movq	%rbx, %r8	# b,
# mergeu.h:34: }
	popq	%rbx	#
	.cfi_def_cfa_offset 48
# mergeu.h:32:     merging_standard(a, low, mid, high, b);
	movl	%ebp, %esi	# low,
# mergeu.h:34: }
	popq	%rbp	#
	.cfi_def_cfa_offset 40
# mergeu.h:32:     merging_standard(a, low, mid, high, b);
	movl	%r12d, %edx	# tmp110,
# mergeu.h:34: }
	popq	%r12	#
	.cfi_def_cfa_offset 32
# mergeu.h:32:     merging_standard(a, low, mid, high, b);
	movl	%r13d, %ecx	# high,
# mergeu.h:34: }
	popq	%r13	#
	.cfi_def_cfa_offset 24
# mergeu.h:32:     merging_standard(a, low, mid, high, b);
	movq	%r14, %rdi	# a,
# mergeu.h:34: }
	popq	%r14	#
	.cfi_def_cfa_offset 16
	popq	%r15	#
	.cfi_def_cfa_offset 8
# mergeu.h:32:     merging_standard(a, low, mid, high, b);
	jmp	merging_standard	#
	.p2align 4,,10
	.p2align 3
.L807:
	.cfi_restore_state
# mergeu.h:29:     int mid = (low + high) / 2;
	leal	(%rsi,%r12), %eax	#, tmp111
# mergeu.h:29:     int mid = (low + high) / 2;
	movl	%eax, %r15d	# tmp111, tmp112
	shrl	$31, %r15d	#, tmp112
	addl	%eax, %r15d	# tmp111, tmp113
	sarl	%r15d	# tmp114
# mergeu.h:28:   if (low < high) {
	cmpl	%r15d, %esi	# tmp114, low
	jl	.L809	#,
# mergeu.h:31:     sort_merge_standard_h(a, mid + 1, high, b);
	leal	1(%r15), %r9d	#, _14
# mergeu.h:28:   if (low < high) {
	cmpl	%r9d, %r12d	# _14, tmp110
	jg	.L810	#,
.L796:
# mergeu.h:32:     merging_standard(a, low, mid, high, b);
	movl	%r15d, %edx	# tmp114,
	movq	%rbx, %r8	# b,
	movl	%r12d, %ecx	# tmp110,
	movl	%ebp, %esi	# low,
	movq	%r14, %rdi	# a,
# mergeu.h:31:     sort_merge_standard_h(a, mid + 1, high, b);
	leal	1(%r12), %r15d	#, _7
# mergeu.h:32:     merging_standard(a, low, mid, high, b);
	call	merging_standard	#
# mergeu.h:28:   if (low < high) {
	cmpl	%r15d, %r13d	# _7, high
	jle	.L799	#,
.L808:
# mergeu.h:29:     int mid = (low + high) / 2;
	leal	0(%r13,%r15), %eax	#, tmp123
# mergeu.h:29:     int mid = (low + high) / 2;
	movl	%eax, %r9d	# tmp123, tmp124
	shrl	$31, %r9d	#, tmp124
	addl	%eax, %r9d	# tmp123, tmp125
	sarl	%r9d	# tmp126
# mergeu.h:28:   if (low < high) {
	cmpl	%r9d, %r15d	# tmp126, _7
	jl	.L811	#,
.L800:
# mergeu.h:31:     sort_merge_standard_h(a, mid + 1, high, b);
	leal	1(%r9), %r10d	#, _23
# mergeu.h:28:   if (low < high) {
	cmpl	%r10d, %r13d	# _23, high
	jg	.L812	#,
.L803:
# mergeu.h:32:     merging_standard(a, low, mid, high, b);
	movq	%rbx, %r8	# b,
	movl	%r13d, %ecx	# high,
	movl	%r9d, %edx	# tmp126,
	movl	%r15d, %esi	# _7,
	movq	%r14, %rdi	# a,
	call	merging_standard	#
	jmp	.L799	#
	.p2align 4,,10
	.p2align 3
.L809:
# mergeu.h:29:     int mid = (low + high) / 2;
	leal	(%rsi,%r15), %eax	#, tmp115
# mergeu.h:29:     int mid = (low + high) / 2;
	movl	%eax, %r9d	# tmp115, tmp116
	shrl	$31, %r9d	#, tmp116
	addl	%eax, %r9d	# tmp115, tmp117
	sarl	%r9d	# tmp118
# mergeu.h:28:   if (low < high) {
	cmpl	%r9d, %esi	# tmp118, low
	jl	.L813	#,
.L794:
# mergeu.h:31:     sort_merge_standard_h(a, mid + 1, high, b);
	leal	1(%r9), %esi	#, _17
# mergeu.h:28:   if (low < high) {
	cmpl	%esi, %r15d	# _17, tmp114
	jg	.L814	#,
.L795:
# mergeu.h:32:     merging_standard(a, low, mid, high, b);
	movl	%r9d, %edx	# tmp118,
	movq	%rbx, %r8	# b,
	movl	%r15d, %ecx	# tmp114,
	movl	%ebp, %esi	# low,
	movq	%r14, %rdi	# a,
	call	merging_standard	#
# mergeu.h:31:     sort_merge_standard_h(a, mid + 1, high, b);
	leal	1(%r15), %r9d	#, _14
# mergeu.h:28:   if (low < high) {
	cmpl	%r9d, %r12d	# _14, tmp110
	jle	.L796	#,
.L810:
# mergeu.h:29:     int mid = (low + high) / 2;
	leal	(%r12,%r9), %eax	#, tmp119
# mergeu.h:29:     int mid = (low + high) / 2;
	movl	%eax, %r10d	# tmp119, tmp120
	shrl	$31, %r10d	#, tmp120
	addl	%eax, %r10d	# tmp119, tmp121
	sarl	%r10d	# tmp122
# mergeu.h:28:   if (low < high) {
	cmpl	%r10d, %r9d	# tmp122, _14
	jl	.L815	#,
.L797:
# mergeu.h:31:     sort_merge_standard_h(a, mid + 1, high, b);
	leal	1(%r10), %esi	#, _20
# mergeu.h:28:   if (low < high) {
	cmpl	%esi, %r12d	# _20, tmp110
	jg	.L816	#,
.L798:
# mergeu.h:32:     merging_standard(a, low, mid, high, b);
	movq	%rbx, %r8	# b,
	movl	%r12d, %ecx	# tmp110,
	movl	%r10d, %edx	# tmp122,
	movl	%r9d, %esi	# _14,
	movq	%r14, %rdi	# a,
	call	merging_standard	#
	jmp	.L796	#
	.p2align 4,,10
	.p2align 3
.L812:
# mergeu.h:29:     int mid = (low + high) / 2;
	leal	0(%r13,%r10), %eax	#, tmp131
# mergeu.h:29:     int mid = (low + high) / 2;
	movl	%eax, %r11d	# tmp131, tmp132
	shrl	$31, %r11d	#, tmp132
	addl	%eax, %r11d	# tmp131, tmp133
	sarl	%r11d	# tmp134
# mergeu.h:28:   if (low < high) {
	cmpl	%r11d, %r10d	# tmp134, _23
	jl	.L817	#,
.L804:
# mergeu.h:31:     sort_merge_standard_h(a, mid + 1, high, b);
	leal	1(%r11), %esi	#, _29
# mergeu.h:28:   if (low < high) {
	cmpl	%esi, %r13d	# _29, high
	jg	.L818	#,
.L805:
# mergeu.h:32:     merging_standard(a, low, mid, high, b);
	movq	%rbx, %r8	# b,
	movl	%r13d, %ecx	# high,
	movl	%r11d, %edx	# tmp134,
	movl	%r10d, %esi	# _23,
	movq	%r14, %rdi	# a,
	movl	%r9d, 4(%rsp)	# tmp126, %sfp
	call	merging_standard	#
	movl	4(%rsp), %r9d	# %sfp, tmp126
	jmp	.L803	#
	.p2align 4,,10
	.p2align 3
.L811:
# mergeu.h:29:     int mid = (low + high) / 2;
	leal	(%r15,%r9), %eax	#, tmp127
# mergeu.h:29:     int mid = (low + high) / 2;
	movl	%eax, %r10d	# tmp127, tmp128
	shrl	$31, %r10d	#, tmp128
	addl	%eax, %r10d	# tmp127, tmp129
	sarl	%r10d	# tmp130
# mergeu.h:28:   if (low < high) {
	cmpl	%r10d, %r15d	# tmp130, _7
	jl	.L819	#,
.L801:
# mergeu.h:31:     sort_merge_standard_h(a, mid + 1, high, b);
	leal	1(%r10), %esi	#, _26
# mergeu.h:28:   if (low < high) {
	cmpl	%esi, %r9d	# _26, tmp126
	jg	.L820	#,
.L802:
# mergeu.h:32:     merging_standard(a, low, mid, high, b);
	movl	%r9d, %ecx	# tmp126,
	movq	%rbx, %r8	# b,
	movl	%r10d, %edx	# tmp130,
	movl	%r15d, %esi	# _7,
	movq	%r14, %rdi	# a,
	movl	%r9d, 4(%rsp)	# tmp126, %sfp
	call	merging_standard	#
	movl	4(%rsp), %r9d	# %sfp, tmp126
	jmp	.L800	#
	.p2align 4,,10
	.p2align 3
.L813:
	movl	%r9d, %edx	# tmp118,
	movl	%r9d, 4(%rsp)	# tmp118, %sfp
	call	sort_merge_standard_h.part.0	#
	movl	4(%rsp), %r9d	# %sfp, tmp118
	jmp	.L794	#
	.p2align 4,,10
	.p2align 3
.L816:
	movq	%rbx, %rcx	# b,
	movl	%r12d, %edx	# tmp110,
	movq	%r14, %rdi	# a,
	movl	%r10d, 8(%rsp)	# tmp122, %sfp
	movl	%r9d, 4(%rsp)	# _14, %sfp
	call	sort_merge_standard_h.part.0	#
	movl	8(%rsp), %r10d	# %sfp, tmp122
	movl	4(%rsp), %r9d	# %sfp, _14
	jmp	.L798	#
	.p2align 4,,10
	.p2align 3
.L815:
	movl	%r10d, %edx	# tmp122,
	movl	%r9d, %esi	# _14,
	movq	%rbx, %rcx	# b,
	movq	%r14, %rdi	# a,
	movl	%r10d, 8(%rsp)	# tmp122, %sfp
	movl	%r9d, 4(%rsp)	# _14, %sfp
	call	sort_merge_standard_h.part.0	#
	movl	8(%rsp), %r10d	# %sfp, tmp122
	movl	4(%rsp), %r9d	# %sfp, _14
	jmp	.L797	#
	.p2align 4,,10
	.p2align 3
.L820:
	movl	%r9d, %edx	# tmp126,
	movq	%rbx, %rcx	# b,
	movq	%r14, %rdi	# a,
	movl	%r10d, 8(%rsp)	# tmp130, %sfp
	movl	%r9d, 4(%rsp)	# tmp126, %sfp
	call	sort_merge_standard_h.part.0	#
	movl	8(%rsp), %r10d	# %sfp, tmp130
	movl	4(%rsp), %r9d	# %sfp, tmp126
	jmp	.L802	#
	.p2align 4,,10
	.p2align 3
.L819:
	movl	%r10d, %edx	# tmp130,
	movq	%rbx, %rcx	# b,
	movl	%r15d, %esi	# _7,
	movq	%r14, %rdi	# a,
	movl	%r9d, 8(%rsp)	# tmp126, %sfp
	movl	%r10d, 4(%rsp)	# tmp130, %sfp
	call	sort_merge_standard_h.part.0	#
	movl	8(%rsp), %r9d	# %sfp, tmp126
	movl	4(%rsp), %r10d	# %sfp, tmp130
	jmp	.L801	#
	.p2align 4,,10
	.p2align 3
.L818:
	movq	%rbx, %rcx	# b,
	movl	%r13d, %edx	# high,
	movq	%r14, %rdi	# a,
	movl	%r11d, 12(%rsp)	# tmp134, %sfp
	movl	%r9d, 8(%rsp)	# tmp126, %sfp
	movl	%r10d, 4(%rsp)	# _23, %sfp
	call	sort_merge_standard_h.part.0	#
	movl	12(%rsp), %r11d	# %sfp, tmp134
	movl	8(%rsp), %r9d	# %sfp, tmp126
	movl	4(%rsp), %r10d	# %sfp, _23
	jmp	.L805	#
	.p2align 4,,10
	.p2align 3
.L817:
	movl	%r11d, %edx	# tmp134,
	movl	%r10d, %esi	# _23,
	movq	%rbx, %rcx	# b,
	movq	%r14, %rdi	# a,
	movl	%r9d, 12(%rsp)	# tmp126, %sfp
	movl	%r11d, 8(%rsp)	# tmp134, %sfp
	movl	%r10d, 4(%rsp)	# _23, %sfp
	call	sort_merge_standard_h.part.0	#
	movl	12(%rsp), %r9d	# %sfp, tmp126
	movl	8(%rsp), %r11d	# %sfp, tmp134
	movl	4(%rsp), %r10d	# %sfp, _23
	jmp	.L804	#
	.p2align 4,,10
	.p2align 3
.L814:
	movq	%rbx, %rcx	# b,
	movl	%r15d, %edx	# tmp114,
	movq	%r14, %rdi	# a,
	movl	%r9d, 4(%rsp)	# tmp118, %sfp
	call	sort_merge_standard_h.part.0	#
	movl	4(%rsp), %r9d	# %sfp, tmp118
	jmp	.L795	#
	.cfi_endproc
.LFE5713:
	.size	sort_merge_standard_h.part.0, .-sort_merge_standard_h.part.0
	.p2align 4
	.globl	sort_merge_standard
	.type	sort_merge_standard, @function
sort_merge_standard:
.LFB5405:
	.cfi_startproc
	endbr64	
	pushq	%r15	#
	.cfi_def_cfa_offset 16
	.cfi_offset 15, -16
	pushq	%r14	#
	.cfi_def_cfa_offset 24
	.cfi_offset 14, -24
	pushq	%r13	#
	.cfi_def_cfa_offset 32
	.cfi_offset 13, -32
	movl	%edx, %r13d	# tmp118, high
	pushq	%r12	#
	.cfi_def_cfa_offset 40
	.cfi_offset 12, -40
	movq	%rdi, %r12	# tmp116, a
# mergeu.h:37:   int *b = (int*) malloc(sizeof(int32_t) * (high - low + 1));
	movl	%edx, %edi	# high, tmp99
# mergeu.h:36: void sort_merge_standard(int a[], int low, int high) {
	pushq	%rbp	#
	.cfi_def_cfa_offset 48
	.cfi_offset 6, -48
# mergeu.h:37:   int *b = (int*) malloc(sizeof(int32_t) * (high - low + 1));
	subl	%esi, %edi	# low, tmp99
# mergeu.h:37:   int *b = (int*) malloc(sizeof(int32_t) * (high - low + 1));
	incl	%edi	# tmp100
# mergeu.h:36: void sort_merge_standard(int a[], int low, int high) {
	pushq	%rbx	#
	.cfi_def_cfa_offset 56
	.cfi_offset 3, -56
# mergeu.h:37:   int *b = (int*) malloc(sizeof(int32_t) * (high - low + 1));
	movslq	%edi, %rdi	# tmp100, tmp101
# mergeu.h:37:   int *b = (int*) malloc(sizeof(int32_t) * (high - low + 1));
	salq	$2, %rdi	#, tmp102
# mergeu.h:36: void sort_merge_standard(int a[], int low, int high) {
	subq	$24, %rsp	#,
	.cfi_def_cfa_offset 80
# mergeu.h:36: void sort_merge_standard(int a[], int low, int high) {
	movl	%esi, %ebp	# tmp117, low
# mergeu.h:37:   int *b = (int*) malloc(sizeof(int32_t) * (high - low + 1));
	call	malloc@PLT	#
	movq	%rax, %r14	# tmp119, b
# mergeu.h:28:   if (low < high) {
	cmpl	%ebp, %r13d	# low, high
	jg	.L830	#,
.L822:
# mergeu.h:40: }
	addq	$24, %rsp	#,
	.cfi_remember_state
	.cfi_def_cfa_offset 56
	popq	%rbx	#
	.cfi_def_cfa_offset 48
	popq	%rbp	#
	.cfi_def_cfa_offset 40
	popq	%r12	#
	.cfi_def_cfa_offset 32
	popq	%r13	#
	.cfi_def_cfa_offset 24
# mergeu.h:39:   free(b);
	movq	%r14, %rdi	# b,
# mergeu.h:40: }
	popq	%r14	#
	.cfi_def_cfa_offset 16
	popq	%r15	#
	.cfi_def_cfa_offset 8
# mergeu.h:39:   free(b);
	jmp	free@PLT	#
	.p2align 4,,10
	.p2align 3
.L830:
	.cfi_restore_state
# mergeu.h:29:     int mid = (low + high) / 2;
	leal	0(%r13,%rbp), %eax	#, tmp104
# mergeu.h:29:     int mid = (low + high) / 2;
	movl	%eax, %r15d	# tmp104, tmp105
	shrl	$31, %r15d	#, tmp105
	addl	%eax, %r15d	# tmp104, tmp106
	sarl	%r15d	# tmp107
# mergeu.h:28:   if (low < high) {
	cmpl	%r15d, %ebp	# tmp107, low
	jl	.L831	#,
# mergeu.h:31:     sort_merge_standard_h(a, mid + 1, high, b);
	leal	1(%r15), %ebx	#, _16
# mergeu.h:28:   if (low < high) {
	cmpl	%ebx, %r13d	# _16, high
	jg	.L832	#,
.L826:
# mergeu.h:32:     merging_standard(a, low, mid, high, b);
	movq	%r14, %r8	# b,
	movl	%r13d, %ecx	# high,
	movl	%r15d, %edx	# tmp107,
	movl	%ebp, %esi	# low,
	movq	%r12, %rdi	# a,
	call	merging_standard	#
	jmp	.L822	#
	.p2align 4,,10
	.p2align 3
.L831:
# mergeu.h:29:     int mid = (low + high) / 2;
	leal	0(%rbp,%r15), %eax	#, tmp108
# mergeu.h:29:     int mid = (low + high) / 2;
	movl	%eax, %ebx	# tmp108, tmp109
	shrl	$31, %ebx	#, tmp109
	addl	%eax, %ebx	# tmp108, tmp110
	sarl	%ebx	# tmp111
# mergeu.h:28:   if (low < high) {
	cmpl	%ebx, %ebp	# tmp111, low
	jl	.L833	#,
.L824:
# mergeu.h:31:     sort_merge_standard_h(a, mid + 1, high, b);
	leal	1(%rbx), %esi	#, _19
# mergeu.h:28:   if (low < high) {
	cmpl	%esi, %r15d	# _19, tmp107
	jg	.L834	#,
.L825:
# mergeu.h:32:     merging_standard(a, low, mid, high, b);
	movl	%ebx, %edx	# tmp111,
	movq	%r14, %r8	# b,
	movl	%r15d, %ecx	# tmp107,
	movl	%ebp, %esi	# low,
	movq	%r12, %rdi	# a,
# mergeu.h:31:     sort_merge_standard_h(a, mid + 1, high, b);
	leal	1(%r15), %ebx	#, _16
# mergeu.h:32:     merging_standard(a, low, mid, high, b);
	call	merging_standard	#
# mergeu.h:28:   if (low < high) {
	cmpl	%ebx, %r13d	# _16, high
	jle	.L826	#,
.L832:
# mergeu.h:29:     int mid = (low + high) / 2;
	leal	0(%r13,%rbx), %eax	#, tmp112
# mergeu.h:29:     int mid = (low + high) / 2;
	movl	%eax, %r9d	# tmp112, tmp113
	shrl	$31, %r9d	#, tmp113
	addl	%eax, %r9d	# tmp112, tmp114
	sarl	%r9d	# tmp115
# mergeu.h:28:   if (low < high) {
	cmpl	%r9d, %ebx	# tmp115, _16
	jl	.L835	#,
.L827:
# mergeu.h:31:     sort_merge_standard_h(a, mid + 1, high, b);
	leal	1(%r9), %esi	#, _22
# mergeu.h:28:   if (low < high) {
	cmpl	%esi, %r13d	# _22, high
	jg	.L836	#,
.L828:
# mergeu.h:32:     merging_standard(a, low, mid, high, b);
	movq	%r14, %r8	# b,
	movl	%r13d, %ecx	# high,
	movl	%r9d, %edx	# tmp115,
	movl	%ebx, %esi	# _16,
	movq	%r12, %rdi	# a,
	call	merging_standard	#
	jmp	.L826	#
	.p2align 4,,10
	.p2align 3
.L833:
	movq	%r14, %rcx	# b,
	movl	%ebx, %edx	# tmp111,
	movl	%ebp, %esi	# low,
	movq	%r12, %rdi	# a,
	call	sort_merge_standard_h.part.0	#
	jmp	.L824	#
	.p2align 4,,10
	.p2align 3
.L836:
	movq	%r14, %rcx	# b,
	movl	%r13d, %edx	# high,
	movq	%r12, %rdi	# a,
	movl	%r9d, 12(%rsp)	# tmp115, %sfp
	call	sort_merge_standard_h.part.0	#
	movl	12(%rsp), %r9d	# %sfp, tmp115
	jmp	.L828	#
	.p2align 4,,10
	.p2align 3
.L835:
	movl	%r9d, %edx	# tmp115,
	movq	%r14, %rcx	# b,
	movl	%ebx, %esi	# _16,
	movq	%r12, %rdi	# a,
	movl	%r9d, 12(%rsp)	# tmp115, %sfp
	call	sort_merge_standard_h.part.0	#
	movl	12(%rsp), %r9d	# %sfp, tmp115
	jmp	.L827	#
	.p2align 4,,10
	.p2align 3
.L834:
	movq	%r14, %rcx	# b,
	movl	%r15d, %edx	# tmp107,
	movq	%r12, %rdi	# a,
	call	sort_merge_standard_h.part.0	#
	jmp	.L825	#
	.cfi_endproc
.LFE5405:
	.size	sort_merge_standard, .-sort_merge_standard
	.p2align 4
	.globl	sort_merge_standard_h
	.type	sort_merge_standard_h, @function
sort_merge_standard_h:
.LFB5404:
	.cfi_startproc
	endbr64	
# mergeu.h:28:   if (low < high) {
	cmpl	%edx, %esi	# high, low
	jl	.L849	#,
	ret	
	.p2align 4,,10
	.p2align 3
.L849:
# mergeu.h:27: void sort_merge_standard_h(int a[], int low, int high, int *b) {
	pushq	%r15	#
	.cfi_def_cfa_offset 16
	.cfi_offset 15, -16
# mergeu.h:29:     int mid = (low + high) / 2;
	leal	(%rsi,%rdx), %eax	#, tmp95
# mergeu.h:27: void sort_merge_standard_h(int a[], int low, int high, int *b) {
	pushq	%r14	#
	.cfi_def_cfa_offset 24
	.cfi_offset 14, -24
	pushq	%r13	#
	.cfi_def_cfa_offset 32
	.cfi_offset 13, -32
# mergeu.h:29:     int mid = (low + high) / 2;
	movl	%eax, %r13d	# tmp95, tmp96
	shrl	$31, %r13d	#, tmp96
# mergeu.h:27: void sort_merge_standard_h(int a[], int low, int high, int *b) {
	pushq	%r12	#
	.cfi_def_cfa_offset 40
	.cfi_offset 12, -40
# mergeu.h:29:     int mid = (low + high) / 2;
	addl	%eax, %r13d	# tmp95, tmp97
	sarl	%r13d	# tmp98
# mergeu.h:27: void sort_merge_standard_h(int a[], int low, int high, int *b) {
	pushq	%rbp	#
	.cfi_def_cfa_offset 48
	.cfi_offset 6, -48
	movl	%edx, %r12d	# tmp109, high
	movl	%esi, %ebp	# tmp108, low
	pushq	%rbx	#
	.cfi_def_cfa_offset 56
	.cfi_offset 3, -56
	movq	%rcx, %rbx	# tmp110, b
	subq	$24, %rsp	#,
	.cfi_def_cfa_offset 80
# mergeu.h:28:   if (low < high) {
	cmpl	%r13d, %esi	# tmp98, low
	jl	.L850	#,
# mergeu.h:31:     sort_merge_standard_h(a, mid + 1, high, b);
	leal	1(%r13), %r14d	#, _10
# mergeu.h:28:   if (low < high) {
	cmpl	%r14d, %r12d	# _10, high
	jg	.L851	#,
.L842:
# mergeu.h:34: }
	addq	$24, %rsp	#,
	.cfi_remember_state
	.cfi_def_cfa_offset 56
# mergeu.h:32:     merging_standard(a, low, mid, high, b);
	movq	%rbx, %r8	# b,
# mergeu.h:34: }
	popq	%rbx	#
	.cfi_restore 3
	.cfi_def_cfa_offset 48
# mergeu.h:32:     merging_standard(a, low, mid, high, b);
	movl	%ebp, %esi	# low,
# mergeu.h:34: }
	popq	%rbp	#
	.cfi_restore 6
	.cfi_def_cfa_offset 40
# mergeu.h:32:     merging_standard(a, low, mid, high, b);
	movl	%r12d, %ecx	# high,
# mergeu.h:34: }
	popq	%r12	#
	.cfi_restore 12
	.cfi_def_cfa_offset 32
# mergeu.h:32:     merging_standard(a, low, mid, high, b);
	movl	%r13d, %edx	# tmp98,
# mergeu.h:34: }
	popq	%r13	#
	.cfi_restore 13
	.cfi_def_cfa_offset 24
	popq	%r14	#
	.cfi_restore 14
	.cfi_def_cfa_offset 16
	popq	%r15	#
	.cfi_restore 15
	.cfi_def_cfa_offset 8
# mergeu.h:32:     merging_standard(a, low, mid, high, b);
	jmp	merging_standard	#
	.p2align 4,,10
	.p2align 3
.L850:
	.cfi_restore_state
# mergeu.h:29:     int mid = (low + high) / 2;
	leal	(%rsi,%r13), %eax	#, tmp99
# mergeu.h:29:     int mid = (low + high) / 2;
	movl	%eax, %r14d	# tmp99, tmp100
	shrl	$31, %r14d	#, tmp100
	addl	%eax, %r14d	# tmp99, tmp101
	sarl	%r14d	# tmp102
# mergeu.h:28:   if (low < high) {
	cmpl	%r14d, %esi	# tmp102, low
	jl	.L852	#,
.L840:
# mergeu.h:31:     sort_merge_standard_h(a, mid + 1, high, b);
	leal	1(%r14), %esi	#, _13
# mergeu.h:28:   if (low < high) {
	cmpl	%esi, %r13d	# _13, tmp98
	jg	.L853	#,
.L841:
# mergeu.h:32:     merging_standard(a, low, mid, high, b);
	movl	%r14d, %edx	# tmp102,
	movq	%rbx, %r8	# b,
	movl	%r13d, %ecx	# tmp98,
	movl	%ebp, %esi	# low,
# mergeu.h:31:     sort_merge_standard_h(a, mid + 1, high, b);
	leal	1(%r13), %r14d	#, _10
# mergeu.h:32:     merging_standard(a, low, mid, high, b);
	call	merging_standard	#
# mergeu.h:28:   if (low < high) {
	cmpl	%r14d, %r12d	# _10, high
	jle	.L842	#,
.L851:
# mergeu.h:29:     int mid = (low + high) / 2;
	leal	(%r12,%r14), %eax	#, tmp103
# mergeu.h:29:     int mid = (low + high) / 2;
	movl	%eax, %r15d	# tmp103, tmp104
	shrl	$31, %r15d	#, tmp104
	addl	%eax, %r15d	# tmp103, tmp105
	sarl	%r15d	# tmp106
# mergeu.h:28:   if (low < high) {
	cmpl	%r15d, %r14d	# tmp106, _10
	jl	.L854	#,
.L843:
# mergeu.h:31:     sort_merge_standard_h(a, mid + 1, high, b);
	leal	1(%r15), %esi	#, _16
# mergeu.h:28:   if (low < high) {
	cmpl	%esi, %r12d	# _16, high
	jg	.L855	#,
.L844:
# mergeu.h:32:     merging_standard(a, low, mid, high, b);
	movq	%rbx, %r8	# b,
	movl	%r12d, %ecx	# high,
	movl	%r15d, %edx	# tmp106,
	movl	%r14d, %esi	# _10,
	call	merging_standard	#
	jmp	.L842	#
	.p2align 4,,10
	.p2align 3
.L852:
	movl	%r14d, %edx	# tmp102,
	movq	%rdi, 8(%rsp)	# a, %sfp
	call	sort_merge_standard_h.part.0	#
	movq	8(%rsp), %rdi	# %sfp, a
	jmp	.L840	#
	.p2align 4,,10
	.p2align 3
.L855:
	movq	%rbx, %rcx	# b,
	movl	%r12d, %edx	# high,
	movq	%rdi, 8(%rsp)	# a, %sfp
	call	sort_merge_standard_h.part.0	#
	movq	8(%rsp), %rdi	# %sfp, a
	jmp	.L844	#
	.p2align 4,,10
	.p2align 3
.L854:
	movq	%rbx, %rcx	# b,
	movl	%r15d, %edx	# tmp106,
	movl	%r14d, %esi	# _10,
	movq	%rdi, 8(%rsp)	# a, %sfp
	call	sort_merge_standard_h.part.0	#
	movq	8(%rsp), %rdi	# %sfp, a
	jmp	.L843	#
	.p2align 4,,10
	.p2align 3
.L853:
	movq	%rbx, %rcx	# b,
	movl	%r13d, %edx	# tmp98,
	movq	%rdi, 8(%rsp)	# a, %sfp
	call	sort_merge_standard_h.part.0	#
	movq	8(%rsp), %rdi	# %sfp, a
	jmp	.L841	#
	.cfi_endproc
.LFE5404:
	.size	sort_merge_standard_h, .-sort_merge_standard_h
	.p2align 4
	.globl	merging_inplace
	.type	merging_inplace, @function
merging_inplace:
.LFB5406:
	.cfi_startproc
	endbr64	
# mergeinplace.h:7:   for (l1 = low, l2 = mid + 1, i = low; l1 <= mid && l2 <= high; i++) {
	leal	1(%rdx), %eax	#, l2
# mergeinplace.h:7:   for (l1 = low, l2 = mid + 1, i = low; l1 <= mid && l2 <= high; i++) {
	cmpl	%ecx, %eax	# tmp108, l2
	jg	.L865	#,
	cmpl	%edx, %esi	# mid, low
	jg	.L865	#,
# mergeinplace.h:8:     int c = a[l1] <= a[l2];
	cltq
	leaq	(%rdi,%rax,4), %rax	#, _7
	vmovd	(%rax), %xmm1	# *_7, tmp109
	movslq	%esi, %rsi	# low, ivtmp.1185
	.p2align 4,,10
	.p2align 3
.L859:
# mergeinplace.h:8:     int c = a[l1] <= a[l2];
	vmovd	(%rdi,%rsi,4), %xmm0	# MEM[base: a_20(D), index: ivtmp.1185_39, step: 4, offset: 0B], tmp110
# mergeinplace.h:12:     a[l1] = c ? x : y;
	vpminsd	%xmm1, %xmm0, %xmm2	# iftmp.54_9, _4, tmp104
	vmovd	%xmm2, (%rdi,%rsi,4)	# tmp104, MEM[base: a_20(D), index: ivtmp.1185_39, step: 4, offset: 0B]
	vpmaxsd	%xmm0, %xmm1, %xmm1	# _4, iftmp.54_9, iftmp.54_9
# mergeinplace.h:7:   for (l1 = low, l2 = mid + 1, i = low; l1 <= mid && l2 <= high; i++) {
	incq	%rsi	# ivtmp.1185
# mergeinplace.h:13:     a[l2] = c ? y : x;
	vmovd	%xmm1, (%rax)	# iftmp.54_9, *_7
# mergeinplace.h:7:   for (l1 = low, l2 = mid + 1, i = low; l1 <= mid && l2 <= high; i++) {
	cmpl	%esi, %edx	# ivtmp.1185, mid
	jge	.L859	#,
.L865:
# mergeinplace.h:26: }
	ret	
	.cfi_endproc
.LFE5406:
	.size	merging_inplace, .-merging_inplace
	.p2align 4
	.globl	sort_merge_inplace
	.type	sort_merge_inplace, @function
sort_merge_inplace:
.LFB5407:
	.cfi_startproc
	endbr64	
# mergeinplace.h:31:   if (low < high) {
	cmpl	%edx, %esi	# high, low
	jl	.L1015	#,
	ret	
	.p2align 4,,10
	.p2align 3
.L1015:
# mergeinplace.h:28: void sort_merge_inplace(int a[], int low, int high) {
	pushq	%r15	#
	.cfi_def_cfa_offset 16
	.cfi_offset 15, -16
# mergeinplace.h:32:     mid = (low + high) / 2;
	leal	(%rsi,%rdx), %eax	#, tmp295
# mergeinplace.h:28: void sort_merge_inplace(int a[], int low, int high) {
	pushq	%r14	#
	.cfi_def_cfa_offset 24
	.cfi_offset 14, -24
	pushq	%r13	#
	.cfi_def_cfa_offset 32
	.cfi_offset 13, -32
	movl	%edx, %r13d	# tmp462, high
	pushq	%r12	#
	.cfi_def_cfa_offset 40
	.cfi_offset 12, -40
# mergeinplace.h:32:     mid = (low + high) / 2;
	movl	%eax, %r12d	# tmp295, tmp296
	shrl	$31, %r12d	#, tmp296
# mergeinplace.h:28: void sort_merge_inplace(int a[], int low, int high) {
	pushq	%rbp	#
	.cfi_def_cfa_offset 48
	.cfi_offset 6, -48
# mergeinplace.h:32:     mid = (low + high) / 2;
	addl	%eax, %r12d	# tmp295, tmp297
	sarl	%r12d	# tmp298
# mergeinplace.h:28: void sort_merge_inplace(int a[], int low, int high) {
	pushq	%rbx	#
	.cfi_def_cfa_offset 56
	.cfi_offset 3, -56
	movl	%esi, %ebp	# tmp461, low
	movq	%rdi, %rbx	# tmp460, a
	subq	$40, %rsp	#,
	.cfi_def_cfa_offset 96
# mergeinplace.h:31:   if (low < high) {
	cmpl	%r12d, %esi	# tmp298, low
	jge	.L886	#,
# mergeinplace.h:32:     mid = (low + high) / 2;
	leal	(%rsi,%r12), %eax	#, tmp299
# mergeinplace.h:32:     mid = (low + high) / 2;
	movl	%eax, %r14d	# tmp299, tmp300
	shrl	$31, %r14d	#, tmp300
	addl	%eax, %r14d	# tmp299, tmp301
	sarl	%r14d	# tmp302
# mergeinplace.h:31:   if (low < high) {
	cmpl	%r14d, %esi	# tmp302, low
	jl	.L871	#,
.L881:
# mergeinplace.h:34:     sort_merge_inplace(a, mid + 1, high);
	leal	1(%r14), %ecx	#, _49
# mergeinplace.h:31:   if (low < high) {
	cmpl	%ecx, %r12d	# _49, tmp298
	jg	.L1016	#,
.L873:
# mergeinplace.h:7:   for (l1 = low, l2 = mid + 1, i = low; l1 <= mid && l2 <= high; i++) {
	cmpl	%ecx, %r12d	# _49, tmp298
	jl	.L886	#,
	cmpl	%r14d, %ebp	# tmp302, low
	jg	.L886	#,
# mergeinplace.h:8:     int c = a[l1] <= a[l2];
	movslq	%ecx, %rcx	# _49, _49
	leaq	(%rbx,%rcx,4), %rdx	#, _57
	vmovd	(%rdx), %xmm1	# *_57, tmp475
	movslq	%ebp, %rax	# low, ivtmp.1266
	.p2align 4,,10
	.p2align 3
.L896:
# mergeinplace.h:8:     int c = a[l1] <= a[l2];
	vmovd	(%rbx,%rax,4), %xmm0	# MEM[base: a_8(D), index: ivtmp.1266_481, step: 4, offset: 0B], tmp476
# mergeinplace.h:12:     a[l1] = c ? x : y;
	vpminsd	%xmm1, %xmm0, %xmm2	# iftmp.54_60, _54, tmp375
	vmovd	%xmm2, (%rbx,%rax,4)	# tmp375, MEM[base: a_8(D), index: ivtmp.1266_481, step: 4, offset: 0B]
	vpmaxsd	%xmm0, %xmm1, %xmm1	# _54, iftmp.54_60, iftmp.54_60
# mergeinplace.h:7:   for (l1 = low, l2 = mid + 1, i = low; l1 <= mid && l2 <= high; i++) {
	incq	%rax	# ivtmp.1266
# mergeinplace.h:13:     a[l2] = c ? y : x;
	vmovd	%xmm1, (%rdx)	# iftmp.54_60, *_57
# mergeinplace.h:7:   for (l1 = low, l2 = mid + 1, i = low; l1 <= mid && l2 <= high; i++) {
	cmpl	%eax, %r14d	# ivtmp.1266, tmp302
	jge	.L896	#,
.L886:
# mergeinplace.h:34:     sort_merge_inplace(a, mid + 1, high);
	leal	1(%r12), %r14d	#, _2
# mergeinplace.h:31:   if (low < high) {
	cmpl	%r13d, %r14d	# high, _2
	jge	.L870	#,
# mergeinplace.h:32:     mid = (low + high) / 2;
	leal	(%r14,%r13), %eax	#, tmp380
# mergeinplace.h:32:     mid = (low + high) / 2;
	movl	%eax, %r15d	# tmp380, tmp381
	shrl	$31, %r15d	#, tmp381
	addl	%eax, %r15d	# tmp380, tmp382
	sarl	%r15d	# tmp383
# mergeinplace.h:31:   if (low < high) {
	cmpl	%r15d, %r14d	# tmp383, _2
	jl	.L900	#,
.L910:
# mergeinplace.h:34:     sort_merge_inplace(a, mid + 1, high);
	leal	1(%r15), %r8d	#, _31
# mergeinplace.h:31:   if (low < high) {
	cmpl	%r8d, %r13d	# _31, high
	jg	.L1017	#,
.L902:
# mergeinplace.h:7:   for (l1 = low, l2 = mid + 1, i = low; l1 <= mid && l2 <= high; i++) {
	cmpl	%r15d, %r14d	# tmp383, _2
	jg	.L870	#,
	cmpl	%r8d, %r13d	# _31, high
	jl	.L870	#,
# mergeinplace.h:8:     int c = a[l1] <= a[l2];
	movslq	%r8d, %r8	# _31, _31
	leaq	(%rbx,%r8,4), %rdx	#, _39
	vmovd	(%rdx), %xmm1	# *_39, tmp489
	movslq	%r14d, %rax	# _2, ivtmp.1217
	.p2align 4,,10
	.p2align 3
.L924:
# mergeinplace.h:8:     int c = a[l1] <= a[l2];
	vmovd	(%rbx,%rax,4), %xmm0	# MEM[base: a_8(D), index: ivtmp.1217_507, step: 4, offset: 0B], tmp490
# mergeinplace.h:12:     a[l1] = c ? x : y;
	vpminsd	%xmm1, %xmm0, %xmm2	# iftmp.54_42, _36, tmp456
	vmovd	%xmm2, (%rbx,%rax,4)	# tmp456, MEM[base: a_8(D), index: ivtmp.1217_507, step: 4, offset: 0B]
	vpmaxsd	%xmm0, %xmm1, %xmm1	# _36, iftmp.54_42, iftmp.54_42
# mergeinplace.h:7:   for (l1 = low, l2 = mid + 1, i = low; l1 <= mid && l2 <= high; i++) {
	incq	%rax	# ivtmp.1217
# mergeinplace.h:13:     a[l2] = c ? y : x;
	vmovd	%xmm1, (%rdx)	# iftmp.54_42, *_39
# mergeinplace.h:7:   for (l1 = low, l2 = mid + 1, i = low; l1 <= mid && l2 <= high; i++) {
	cmpl	%eax, %r15d	# ivtmp.1217, tmp383
	jge	.L924	#,
.L870:
	cmpl	%r13d, %r14d	# high, _2
	jg	.L1010	#,
	cmpl	%r12d, %ebp	# tmp298, low
	jg	.L1010	#,
# mergeinplace.h:8:     int c = a[l1] <= a[l2];
	movslq	%r14d, %r14	# _2, _2
	leaq	(%rbx,%r14,4), %rax	#, _18
	vmovd	(%rax), %xmm1	# *_18, tmp491
	movslq	%ebp, %rsi	# low, ivtmp.1210
	.p2align 4,,10
	.p2align 3
.L925:
# mergeinplace.h:8:     int c = a[l1] <= a[l2];
	vmovd	(%rbx,%rsi,4), %xmm0	# MEM[base: a_8(D), index: ivtmp.1210_499, step: 4, offset: 0B], tmp492
# mergeinplace.h:12:     a[l1] = c ? x : y;
	vpminsd	%xmm1, %xmm0, %xmm2	# iftmp.54_21, _15, tmp459
	vmovd	%xmm2, (%rbx,%rsi,4)	# tmp459, MEM[base: a_8(D), index: ivtmp.1210_499, step: 4, offset: 0B]
	vpmaxsd	%xmm0, %xmm1, %xmm1	# _15, iftmp.54_21, iftmp.54_21
# mergeinplace.h:7:   for (l1 = low, l2 = mid + 1, i = low; l1 <= mid && l2 <= high; i++) {
	incq	%rsi	# ivtmp.1210
# mergeinplace.h:13:     a[l2] = c ? y : x;
	vmovd	%xmm1, (%rax)	# iftmp.54_21, *_18
# mergeinplace.h:7:   for (l1 = low, l2 = mid + 1, i = low; l1 <= mid && l2 <= high; i++) {
	cmpl	%esi, %r12d	# ivtmp.1210, tmp298
	jge	.L925	#,
.L1010:
# mergeinplace.h:39: }
	addq	$40, %rsp	#,
	.cfi_remember_state
	.cfi_def_cfa_offset 56
	popq	%rbx	#
	.cfi_def_cfa_offset 48
	popq	%rbp	#
	.cfi_def_cfa_offset 40
	popq	%r12	#
	.cfi_def_cfa_offset 32
	popq	%r13	#
	.cfi_def_cfa_offset 24
	popq	%r14	#
	.cfi_def_cfa_offset 16
	popq	%r15	#
	.cfi_def_cfa_offset 8
	ret	
	.p2align 4,,10
	.p2align 3
.L1017:
	.cfi_restore_state
# mergeinplace.h:32:     mid = (low + high) / 2;
	leal	0(%r13,%r8), %eax	#, tmp421
# mergeinplace.h:32:     mid = (low + high) / 2;
	movl	%eax, %ecx	# tmp421, tmp422
	shrl	$31, %ecx	#, tmp422
	addl	%eax, %ecx	# tmp421, tmp423
	sarl	%ecx	# tmp424
# mergeinplace.h:31:   if (low < high) {
	cmpl	%ecx, %r8d	# tmp424, _31
	jge	.L918	#,
# mergeinplace.h:32:     mid = (low + high) / 2;
	leal	(%r8,%rcx), %eax	#, tmp425
# mergeinplace.h:32:     mid = (low + high) / 2;
	movl	%eax, %r9d	# tmp425, tmp426
	shrl	$31, %r9d	#, tmp426
	addl	%eax, %r9d	# tmp425, tmp427
	sarl	%r9d	# tmp428
# mergeinplace.h:33:     sort_merge_inplace(a, low, mid);
	movl	%r8d, %esi	# _31,
	movl	%r9d, %edx	# tmp428,
	movq	%rbx, %rdi	# a,
	movl	%r8d, 24(%rsp)	# _31, %sfp
# mergeinplace.h:32:     mid = (low + high) / 2;
	movl	%ecx, 16(%rsp)	# tmp424, %sfp
# mergeinplace.h:33:     sort_merge_inplace(a, low, mid);
	movl	%r9d, 12(%rsp)	# tmp428, %sfp
	call	sort_merge_inplace	#
# mergeinplace.h:34:     sort_merge_inplace(a, mid + 1, high);
	movl	12(%rsp), %r9d	# %sfp, tmp428
	movl	16(%rsp), %ecx	# %sfp, tmp424
	leal	1(%r9), %eax	#, _265
	movl	%ecx, %edx	# tmp424,
	movl	%eax, %esi	# _265,
	movq	%rbx, %rdi	# a,
	movl	%eax, 12(%rsp)	# _265, %sfp
	movl	%r9d, 20(%rsp)	# tmp428, %sfp
	call	sort_merge_inplace	#
# mergeinplace.h:7:   for (l1 = low, l2 = mid + 1, i = low; l1 <= mid && l2 <= high; i++) {
	movslq	12(%rsp), %rax	# %sfp,
	movl	16(%rsp), %ecx	# %sfp, tmp424
	movl	24(%rsp), %r8d	# %sfp, _31
	cmpl	%eax, %ecx	# _265, tmp424
	jl	.L918	#,
	movl	20(%rsp), %r9d	# %sfp, tmp428
	cmpl	%r9d, %r8d	# tmp428, _31
	jg	.L918	#,
# mergeinplace.h:8:     int c = a[l1] <= a[l2];
	leaq	(%rbx,%rax,4), %rdx	#, _273
	vmovd	(%rdx), %xmm1	# *_273, tmp483
	movslq	%r8d, %rax	# _31, ivtmp.1238
	.p2align 4,,10
	.p2align 3
.L919:
# mergeinplace.h:8:     int c = a[l1] <= a[l2];
	vmovd	(%rbx,%rax,4), %xmm0	# MEM[base: a_8(D), index: ivtmp.1238_290, step: 4, offset: 0B], tmp484
# mergeinplace.h:12:     a[l1] = c ? x : y;
	vpminsd	%xmm1, %xmm0, %xmm2	# iftmp.54_276, _270, tmp435
	vmovd	%xmm2, (%rbx,%rax,4)	# tmp435, MEM[base: a_8(D), index: ivtmp.1238_290, step: 4, offset: 0B]
	vpmaxsd	%xmm0, %xmm1, %xmm1	# _270, iftmp.54_276, iftmp.54_276
# mergeinplace.h:7:   for (l1 = low, l2 = mid + 1, i = low; l1 <= mid && l2 <= high; i++) {
	incq	%rax	# ivtmp.1238
# mergeinplace.h:13:     a[l2] = c ? y : x;
	vmovd	%xmm1, (%rdx)	# iftmp.54_276, *_273
# mergeinplace.h:7:   for (l1 = low, l2 = mid + 1, i = low; l1 <= mid && l2 <= high; i++) {
	cmpl	%eax, %r9d	# ivtmp.1238, tmp428
	jge	.L919	#,
.L918:
# mergeinplace.h:34:     sort_merge_inplace(a, mid + 1, high);
	leal	1(%rcx), %r10d	#, _175
# mergeinplace.h:31:   if (low < high) {
	cmpl	%r10d, %r13d	# _175, high
	jle	.L917	#,
# mergeinplace.h:32:     mid = (low + high) / 2;
	leal	0(%r13,%r10), %eax	#, tmp440
# mergeinplace.h:32:     mid = (low + high) / 2;
	movl	%eax, %r9d	# tmp440, tmp441
	shrl	$31, %r9d	#, tmp441
	addl	%eax, %r9d	# tmp440, tmp442
	sarl	%r9d	# tmp443
# mergeinplace.h:33:     sort_merge_inplace(a, low, mid);
	movl	%r10d, %esi	# _175,
	movl	%r9d, %edx	# tmp443,
	movq	%rbx, %rdi	# a,
	movl	%ecx, 28(%rsp)	# tmp424, %sfp
	movl	%r8d, 24(%rsp)	# _31, %sfp
	movl	%r10d, 20(%rsp)	# _175, %sfp
	movl	%r9d, 12(%rsp)	# tmp443, %sfp
	call	sort_merge_inplace	#
# mergeinplace.h:34:     sort_merge_inplace(a, mid + 1, high);
	movl	12(%rsp), %r9d	# %sfp, tmp443
	movl	%r13d, %edx	# high,
	leal	1(%r9), %eax	#, _247
	movl	%eax, %esi	# _247,
	movq	%rbx, %rdi	# a,
	movl	%r9d, 16(%rsp)	# tmp443, %sfp
	movl	%eax, 12(%rsp)	# _247, %sfp
	call	sort_merge_inplace	#
# mergeinplace.h:7:   for (l1 = low, l2 = mid + 1, i = low; l1 <= mid && l2 <= high; i++) {
	movl	16(%rsp), %r9d	# %sfp, tmp443
	movl	20(%rsp), %r10d	# %sfp, _175
	movl	24(%rsp), %r8d	# %sfp, _31
	cmpl	%r9d, %r10d	# tmp443, _175
	movl	28(%rsp), %ecx	# %sfp, tmp424
	jg	.L917	#,
	movslq	12(%rsp), %rax	# %sfp,
	cmpl	%eax, %r13d	# _247, high
	jl	.L917	#,
# mergeinplace.h:8:     int c = a[l1] <= a[l2];
	leaq	(%rbx,%rax,4), %rdx	#, _255
	vmovd	(%rdx), %xmm1	# *_255, tmp485
	movslq	%r10d, %rax	# _175, ivtmp.1231
	.p2align 4,,10
	.p2align 3
.L922:
# mergeinplace.h:8:     int c = a[l1] <= a[l2];
	vmovd	(%rbx,%rax,4), %xmm0	# MEM[base: a_8(D), index: ivtmp.1231_523, step: 4, offset: 0B], tmp486
# mergeinplace.h:12:     a[l1] = c ? x : y;
	vpminsd	%xmm1, %xmm0, %xmm2	# iftmp.54_258, _252, tmp450
	vmovd	%xmm2, (%rbx,%rax,4)	# tmp450, MEM[base: a_8(D), index: ivtmp.1231_523, step: 4, offset: 0B]
	vpmaxsd	%xmm0, %xmm1, %xmm1	# _252, iftmp.54_258, iftmp.54_258
# mergeinplace.h:7:   for (l1 = low, l2 = mid + 1, i = low; l1 <= mid && l2 <= high; i++) {
	incq	%rax	# ivtmp.1231
# mergeinplace.h:13:     a[l2] = c ? y : x;
	vmovd	%xmm1, (%rdx)	# iftmp.54_258, *_255
# mergeinplace.h:7:   for (l1 = low, l2 = mid + 1, i = low; l1 <= mid && l2 <= high; i++) {
	cmpl	%eax, %r9d	# ivtmp.1231, tmp443
	jge	.L922	#,
.L917:
	cmpl	%r10d, %r13d	# _175, high
	jl	.L902	#,
	cmpl	%ecx, %r8d	# tmp424, _31
	jg	.L902	#,
# mergeinplace.h:8:     int c = a[l1] <= a[l2];
	movslq	%r10d, %r10	# _175, _175
	leaq	(%rbx,%r10,4), %rdx	#, _183
	vmovd	(%rdx), %xmm1	# *_183, tmp487
	movslq	%r8d, %rax	# _31, ivtmp.1224
	.p2align 4,,10
	.p2align 3
.L923:
# mergeinplace.h:8:     int c = a[l1] <= a[l2];
	vmovd	(%rbx,%rax,4), %xmm0	# MEM[base: a_8(D), index: ivtmp.1224_514, step: 4, offset: 0B], tmp488
# mergeinplace.h:12:     a[l1] = c ? x : y;
	vpminsd	%xmm1, %xmm0, %xmm2	# iftmp.54_186, _180, tmp453
	vmovd	%xmm2, (%rbx,%rax,4)	# tmp453, MEM[base: a_8(D), index: ivtmp.1224_514, step: 4, offset: 0B]
	vpmaxsd	%xmm0, %xmm1, %xmm1	# _180, iftmp.54_186, iftmp.54_186
# mergeinplace.h:7:   for (l1 = low, l2 = mid + 1, i = low; l1 <= mid && l2 <= high; i++) {
	incq	%rax	# ivtmp.1224
# mergeinplace.h:13:     a[l2] = c ? y : x;
	vmovd	%xmm1, (%rdx)	# iftmp.54_186, *_183
# mergeinplace.h:7:   for (l1 = low, l2 = mid + 1, i = low; l1 <= mid && l2 <= high; i++) {
	cmpl	%eax, %ecx	# ivtmp.1224, tmp424
	jge	.L923	#,
	jmp	.L902	#
	.p2align 4,,10
	.p2align 3
.L900:
# mergeinplace.h:32:     mid = (low + high) / 2;
	leal	(%r14,%r15), %eax	#, tmp384
# mergeinplace.h:32:     mid = (low + high) / 2;
	movl	%eax, %ecx	# tmp384, tmp385
	shrl	$31, %ecx	#, tmp385
	addl	%eax, %ecx	# tmp384, tmp386
	sarl	%ecx	# tmp387
# mergeinplace.h:31:   if (low < high) {
	cmpl	%ecx, %r14d	# tmp387, _2
	jge	.L906	#,
# mergeinplace.h:32:     mid = (low + high) / 2;
	leal	(%r14,%rcx), %eax	#, tmp388
# mergeinplace.h:32:     mid = (low + high) / 2;
	movl	%eax, %r8d	# tmp388, tmp389
	shrl	$31, %r8d	#, tmp389
	addl	%eax, %r8d	# tmp388, tmp390
	sarl	%r8d	# tmp391
# mergeinplace.h:33:     sort_merge_inplace(a, low, mid);
	movl	%r8d, %edx	# tmp391,
	movl	%r14d, %esi	# _2,
	movq	%rbx, %rdi	# a,
# mergeinplace.h:32:     mid = (low + high) / 2;
	movl	%ecx, 16(%rsp)	# tmp387, %sfp
# mergeinplace.h:33:     sort_merge_inplace(a, low, mid);
	movl	%r8d, 12(%rsp)	# tmp391, %sfp
	call	sort_merge_inplace	#
# mergeinplace.h:34:     sort_merge_inplace(a, mid + 1, high);
	movl	12(%rsp), %r8d	# %sfp, tmp391
	movl	16(%rsp), %ecx	# %sfp, tmp387
	leal	1(%r8), %eax	#, _229
	movl	%ecx, %edx	# tmp387,
	movl	%eax, %esi	# _229,
	movq	%rbx, %rdi	# a,
	movl	%eax, 12(%rsp)	# _229, %sfp
	movl	%r8d, 20(%rsp)	# tmp391, %sfp
	call	sort_merge_inplace	#
# mergeinplace.h:7:   for (l1 = low, l2 = mid + 1, i = low; l1 <= mid && l2 <= high; i++) {
	movslq	12(%rsp), %rax	# %sfp,
	movl	16(%rsp), %ecx	# %sfp, tmp387
	cmpl	%eax, %ecx	# _229, tmp387
	jl	.L906	#,
	movl	20(%rsp), %r8d	# %sfp, tmp391
	cmpl	%r8d, %r14d	# tmp391, _2
	jg	.L906	#,
# mergeinplace.h:8:     int c = a[l1] <= a[l2];
	leaq	(%rbx,%rax,4), %rdx	#, _237
	vmovd	(%rdx), %xmm1	# *_237, tmp477
	movslq	%r14d, %rax	# _2, ivtmp.1259
	.p2align 4,,10
	.p2align 3
.L907:
# mergeinplace.h:8:     int c = a[l1] <= a[l2];
	vmovd	(%rbx,%rax,4), %xmm0	# MEM[base: a_8(D), index: ivtmp.1259_492, step: 4, offset: 0B], tmp478
# mergeinplace.h:12:     a[l1] = c ? x : y;
	vpminsd	%xmm1, %xmm0, %xmm2	# iftmp.54_240, _234, tmp398
	vmovd	%xmm2, (%rbx,%rax,4)	# tmp398, MEM[base: a_8(D), index: ivtmp.1259_492, step: 4, offset: 0B]
	vpmaxsd	%xmm0, %xmm1, %xmm1	# _234, iftmp.54_240, iftmp.54_240
# mergeinplace.h:7:   for (l1 = low, l2 = mid + 1, i = low; l1 <= mid && l2 <= high; i++) {
	incq	%rax	# ivtmp.1259
# mergeinplace.h:13:     a[l2] = c ? y : x;
	vmovd	%xmm1, (%rdx)	# iftmp.54_240, *_237
# mergeinplace.h:7:   for (l1 = low, l2 = mid + 1, i = low; l1 <= mid && l2 <= high; i++) {
	cmpl	%eax, %r8d	# ivtmp.1259, tmp391
	jge	.L907	#,
.L906:
# mergeinplace.h:34:     sort_merge_inplace(a, mid + 1, high);
	leal	1(%rcx), %r9d	#, _193
# mergeinplace.h:31:   if (low < high) {
	cmpl	%r9d, %r15d	# _193, tmp383
	jle	.L905	#,
# mergeinplace.h:32:     mid = (low + high) / 2;
	leal	(%r15,%r9), %eax	#, tmp403
# mergeinplace.h:32:     mid = (low + high) / 2;
	movl	%eax, %r8d	# tmp403, tmp404
	shrl	$31, %r8d	#, tmp404
	addl	%eax, %r8d	# tmp403, tmp405
	sarl	%r8d	# tmp406
# mergeinplace.h:33:     sort_merge_inplace(a, low, mid);
	movl	%r9d, %esi	# _193,
	movl	%r8d, %edx	# tmp406,
	movq	%rbx, %rdi	# a,
	movl	%ecx, 24(%rsp)	# tmp387, %sfp
	movl	%r9d, 20(%rsp)	# _193, %sfp
	movl	%r8d, 12(%rsp)	# tmp406, %sfp
	call	sort_merge_inplace	#
# mergeinplace.h:34:     sort_merge_inplace(a, mid + 1, high);
	movl	12(%rsp), %r8d	# %sfp, tmp406
	movl	%r15d, %edx	# tmp383,
	leal	1(%r8), %eax	#, _211
	movl	%eax, %esi	# _211,
	movq	%rbx, %rdi	# a,
	movl	%eax, 12(%rsp)	# _211, %sfp
	movl	%r8d, 16(%rsp)	# tmp406, %sfp
	call	sort_merge_inplace	#
# mergeinplace.h:7:   for (l1 = low, l2 = mid + 1, i = low; l1 <= mid && l2 <= high; i++) {
	movslq	12(%rsp), %rax	# %sfp,
	movl	20(%rsp), %r9d	# %sfp, _193
	cmpl	%eax, %r15d	# _211, tmp383
	movl	24(%rsp), %ecx	# %sfp, tmp387
	jl	.L905	#,
	movl	16(%rsp), %r8d	# %sfp, tmp406
	cmpl	%r8d, %r9d	# tmp406, _193
	jg	.L905	#,
# mergeinplace.h:8:     int c = a[l1] <= a[l2];
	leaq	(%rbx,%rax,4), %rdx	#, _219
	vmovd	(%rdx), %xmm1	# *_219, tmp479
	movslq	%r9d, %rax	# _193, ivtmp.1252
	.p2align 4,,10
	.p2align 3
.L911:
# mergeinplace.h:8:     int c = a[l1] <= a[l2];
	vmovd	(%rbx,%rax,4), %xmm0	# MEM[base: a_8(D), index: ivtmp.1252_302, step: 4, offset: 0B], tmp480
# mergeinplace.h:12:     a[l1] = c ? x : y;
	vpminsd	%xmm1, %xmm0, %xmm2	# iftmp.54_222, _216, tmp413
	vmovd	%xmm2, (%rbx,%rax,4)	# tmp413, MEM[base: a_8(D), index: ivtmp.1252_302, step: 4, offset: 0B]
	vpmaxsd	%xmm0, %xmm1, %xmm1	# _216, iftmp.54_222, iftmp.54_222
# mergeinplace.h:7:   for (l1 = low, l2 = mid + 1, i = low; l1 <= mid && l2 <= high; i++) {
	incq	%rax	# ivtmp.1252
# mergeinplace.h:13:     a[l2] = c ? y : x;
	vmovd	%xmm1, (%rdx)	# iftmp.54_222, *_219
# mergeinplace.h:7:   for (l1 = low, l2 = mid + 1, i = low; l1 <= mid && l2 <= high; i++) {
	cmpl	%eax, %r8d	# ivtmp.1252, tmp406
	jge	.L911	#,
.L905:
	cmpl	%r9d, %r15d	# _193, tmp383
	jl	.L910	#,
	cmpl	%ecx, %r14d	# tmp387, _2
	jg	.L910	#,
# mergeinplace.h:8:     int c = a[l1] <= a[l2];
	movslq	%r9d, %r9	# _193, _193
	leaq	(%rbx,%r9,4), %rdx	#, _201
	vmovd	(%rdx), %xmm1	# *_201, tmp481
	movslq	%r14d, %rax	# _2, ivtmp.1245
	.p2align 4,,10
	.p2align 3
.L912:
# mergeinplace.h:8:     int c = a[l1] <= a[l2];
	vmovd	(%rbx,%rax,4), %xmm0	# MEM[base: a_8(D), index: ivtmp.1245_300, step: 4, offset: 0B], tmp482
# mergeinplace.h:12:     a[l1] = c ? x : y;
	vpminsd	%xmm1, %xmm0, %xmm2	# iftmp.54_204, _198, tmp416
	vmovd	%xmm2, (%rbx,%rax,4)	# tmp416, MEM[base: a_8(D), index: ivtmp.1245_300, step: 4, offset: 0B]
	vpmaxsd	%xmm0, %xmm1, %xmm1	# _198, iftmp.54_204, iftmp.54_204
# mergeinplace.h:7:   for (l1 = low, l2 = mid + 1, i = low; l1 <= mid && l2 <= high; i++) {
	incq	%rax	# ivtmp.1245
# mergeinplace.h:13:     a[l2] = c ? y : x;
	vmovd	%xmm1, (%rdx)	# iftmp.54_204, *_201
# mergeinplace.h:7:   for (l1 = low, l2 = mid + 1, i = low; l1 <= mid && l2 <= high; i++) {
	cmpl	%eax, %ecx	# ivtmp.1245, tmp387
	jge	.L912	#,
# mergeinplace.h:34:     sort_merge_inplace(a, mid + 1, high);
	leal	1(%r15), %r8d	#, _31
# mergeinplace.h:31:   if (low < high) {
	cmpl	%r8d, %r13d	# _31, high
	jle	.L902	#,
	jmp	.L1017	#
	.p2align 4,,10
	.p2align 3
.L1016:
# mergeinplace.h:32:     mid = (low + high) / 2;
	leal	(%r12,%rcx), %eax	#, tmp340
# mergeinplace.h:32:     mid = (low + high) / 2;
	movl	%eax, %r15d	# tmp340, tmp341
	shrl	$31, %r15d	#, tmp341
	addl	%eax, %r15d	# tmp340, tmp342
	sarl	%r15d	# tmp343
# mergeinplace.h:31:   if (low < high) {
	cmpl	%r15d, %ecx	# tmp343, _49
	jge	.L890	#,
# mergeinplace.h:32:     mid = (low + high) / 2;
	leal	(%rcx,%r15), %eax	#, tmp344
# mergeinplace.h:32:     mid = (low + high) / 2;
	movl	%eax, %r8d	# tmp344, tmp345
	shrl	$31, %r8d	#, tmp345
	addl	%eax, %r8d	# tmp344, tmp346
	sarl	%r8d	# tmp347
# mergeinplace.h:33:     sort_merge_inplace(a, low, mid);
	movl	%ecx, %esi	# _49,
	movl	%r8d, %edx	# tmp347,
	movq	%rbx, %rdi	# a,
	movl	%ecx, 20(%rsp)	# _49, %sfp
	movl	%r8d, 12(%rsp)	# tmp347, %sfp
	call	sort_merge_inplace	#
# mergeinplace.h:34:     sort_merge_inplace(a, mid + 1, high);
	movl	12(%rsp), %r8d	# %sfp, tmp347
	movl	%r15d, %edx	# tmp343,
	leal	1(%r8), %eax	#, _157
	movl	%eax, %esi	# _157,
	movq	%rbx, %rdi	# a,
	movl	%r8d, 16(%rsp)	# tmp347, %sfp
	movl	%eax, 12(%rsp)	# _157, %sfp
	call	sort_merge_inplace	#
# mergeinplace.h:7:   for (l1 = low, l2 = mid + 1, i = low; l1 <= mid && l2 <= high; i++) {
	movl	16(%rsp), %r8d	# %sfp, tmp347
	movl	20(%rsp), %ecx	# %sfp, _49
	cmpl	%r8d, %ecx	# tmp347, _49
	jg	.L890	#,
	movslq	12(%rsp), %rax	# %sfp,
	cmpl	%eax, %r15d	# _157, tmp343
	jl	.L890	#,
# mergeinplace.h:8:     int c = a[l1] <= a[l2];
	leaq	(%rbx,%rax,4), %rdx	#, _165
	vmovd	(%rdx), %xmm1	# *_165, tmp469
	movslq	%ecx, %rax	# _49, ivtmp.1287
	.p2align 4,,10
	.p2align 3
.L891:
# mergeinplace.h:8:     int c = a[l1] <= a[l2];
	vmovd	(%rbx,%rax,4), %xmm0	# MEM[base: a_8(D), index: ivtmp.1287_447, step: 4, offset: 0B], tmp470
# mergeinplace.h:12:     a[l1] = c ? x : y;
	vpminsd	%xmm1, %xmm0, %xmm2	# iftmp.54_168, _162, tmp354
	vmovd	%xmm2, (%rbx,%rax,4)	# tmp354, MEM[base: a_8(D), index: ivtmp.1287_447, step: 4, offset: 0B]
	vpmaxsd	%xmm0, %xmm1, %xmm1	# _162, iftmp.54_168, iftmp.54_168
# mergeinplace.h:7:   for (l1 = low, l2 = mid + 1, i = low; l1 <= mid && l2 <= high; i++) {
	incq	%rax	# ivtmp.1287
# mergeinplace.h:13:     a[l2] = c ? y : x;
	vmovd	%xmm1, (%rdx)	# iftmp.54_168, *_165
# mergeinplace.h:7:   for (l1 = low, l2 = mid + 1, i = low; l1 <= mid && l2 <= high; i++) {
	cmpl	%eax, %r8d	# ivtmp.1287, tmp347
	jge	.L891	#,
.L890:
# mergeinplace.h:34:     sort_merge_inplace(a, mid + 1, high);
	leal	1(%r15), %r9d	#, _67
# mergeinplace.h:31:   if (low < high) {
	cmpl	%r9d, %r12d	# _67, tmp298
	jle	.L889	#,
# mergeinplace.h:32:     mid = (low + high) / 2;
	leal	(%r12,%r9), %eax	#, tmp359
# mergeinplace.h:32:     mid = (low + high) / 2;
	movl	%eax, %r8d	# tmp359, tmp360
	shrl	$31, %r8d	#, tmp360
	addl	%eax, %r8d	# tmp359, tmp361
	sarl	%r8d	# tmp362
# mergeinplace.h:33:     sort_merge_inplace(a, low, mid);
	movl	%r9d, %esi	# _67,
	movl	%r8d, %edx	# tmp362,
	movq	%rbx, %rdi	# a,
	movl	%ecx, 24(%rsp)	# _49, %sfp
	movl	%r9d, 20(%rsp)	# _67, %sfp
	movl	%r8d, 12(%rsp)	# tmp362, %sfp
	call	sort_merge_inplace	#
# mergeinplace.h:34:     sort_merge_inplace(a, mid + 1, high);
	movl	12(%rsp), %r8d	# %sfp, tmp362
	movl	%r12d, %edx	# tmp298,
	leal	1(%r8), %eax	#, _139
	movl	%eax, %esi	# _139,
	movq	%rbx, %rdi	# a,
	movl	%eax, 12(%rsp)	# _139, %sfp
	movl	%r8d, 16(%rsp)	# tmp362, %sfp
	call	sort_merge_inplace	#
# mergeinplace.h:7:   for (l1 = low, l2 = mid + 1, i = low; l1 <= mid && l2 <= high; i++) {
	movslq	12(%rsp), %rax	# %sfp,
	movl	20(%rsp), %r9d	# %sfp, _67
	cmpl	%eax, %r12d	# _139, tmp298
	movl	24(%rsp), %ecx	# %sfp, _49
	jl	.L889	#,
	movl	16(%rsp), %r8d	# %sfp, tmp362
	cmpl	%r8d, %r9d	# tmp362, _67
	jg	.L889	#,
# mergeinplace.h:8:     int c = a[l1] <= a[l2];
	leaq	(%rbx,%rax,4), %rdx	#, _147
	vmovd	(%rdx), %xmm1	# *_147, tmp471
	movslq	%r9d, %rax	# _67, ivtmp.1280
	.p2align 4,,10
	.p2align 3
.L894:
# mergeinplace.h:8:     int c = a[l1] <= a[l2];
	vmovd	(%rbx,%rax,4), %xmm0	# MEM[base: a_8(D), index: ivtmp.1280_463, step: 4, offset: 0B], tmp472
# mergeinplace.h:12:     a[l1] = c ? x : y;
	vpminsd	%xmm1, %xmm0, %xmm2	# iftmp.54_150, _144, tmp369
	vmovd	%xmm2, (%rbx,%rax,4)	# tmp369, MEM[base: a_8(D), index: ivtmp.1280_463, step: 4, offset: 0B]
	vpmaxsd	%xmm0, %xmm1, %xmm1	# _144, iftmp.54_150, iftmp.54_150
# mergeinplace.h:7:   for (l1 = low, l2 = mid + 1, i = low; l1 <= mid && l2 <= high; i++) {
	incq	%rax	# ivtmp.1280
# mergeinplace.h:13:     a[l2] = c ? y : x;
	vmovd	%xmm1, (%rdx)	# iftmp.54_150, *_147
# mergeinplace.h:7:   for (l1 = low, l2 = mid + 1, i = low; l1 <= mid && l2 <= high; i++) {
	cmpl	%eax, %r8d	# ivtmp.1280, tmp362
	jge	.L894	#,
.L889:
	cmpl	%r9d, %r12d	# _67, tmp298
	jl	.L873	#,
	cmpl	%r15d, %ecx	# tmp343, _49
	jg	.L873	#,
# mergeinplace.h:8:     int c = a[l1] <= a[l2];
	movslq	%r9d, %r9	# _67, _67
	leaq	(%rbx,%r9,4), %rdx	#, _75
	vmovd	(%rdx), %xmm1	# *_75, tmp473
	movslq	%ecx, %rax	# _49, ivtmp.1273
	.p2align 4,,10
	.p2align 3
.L895:
# mergeinplace.h:8:     int c = a[l1] <= a[l2];
	vmovd	(%rbx,%rax,4), %xmm0	# MEM[base: a_8(D), index: ivtmp.1273_475, step: 4, offset: 0B], tmp474
# mergeinplace.h:12:     a[l1] = c ? x : y;
	vpminsd	%xmm1, %xmm0, %xmm2	# iftmp.54_78, _72, tmp372
	vmovd	%xmm2, (%rbx,%rax,4)	# tmp372, MEM[base: a_8(D), index: ivtmp.1273_475, step: 4, offset: 0B]
	vpmaxsd	%xmm0, %xmm1, %xmm1	# _72, iftmp.54_78, iftmp.54_78
# mergeinplace.h:7:   for (l1 = low, l2 = mid + 1, i = low; l1 <= mid && l2 <= high; i++) {
	incq	%rax	# ivtmp.1273
# mergeinplace.h:13:     a[l2] = c ? y : x;
	vmovd	%xmm1, (%rdx)	# iftmp.54_78, *_75
# mergeinplace.h:7:   for (l1 = low, l2 = mid + 1, i = low; l1 <= mid && l2 <= high; i++) {
	cmpl	%eax, %r15d	# ivtmp.1273, tmp343
	jge	.L895	#,
	jmp	.L873	#
	.p2align 4,,10
	.p2align 3
.L871:
# mergeinplace.h:32:     mid = (low + high) / 2;
	leal	(%rsi,%r14), %eax	#, tmp303
# mergeinplace.h:32:     mid = (low + high) / 2;
	movl	%eax, %r15d	# tmp303, tmp304
	shrl	$31, %r15d	#, tmp304
	addl	%eax, %r15d	# tmp303, tmp305
	sarl	%r15d	# tmp306
# mergeinplace.h:31:   if (low < high) {
	cmpl	%r15d, %esi	# tmp306, low
	jge	.L877	#,
# mergeinplace.h:32:     mid = (low + high) / 2;
	leal	(%rsi,%r15), %eax	#, tmp307
# mergeinplace.h:32:     mid = (low + high) / 2;
	movl	%eax, %ecx	# tmp307, tmp308
	shrl	$31, %ecx	#, tmp308
	addl	%eax, %ecx	# tmp307, tmp309
	sarl	%ecx	# tmp310
# mergeinplace.h:33:     sort_merge_inplace(a, low, mid);
	movl	%ecx, %edx	# tmp310,
	movl	%ecx, 12(%rsp)	# tmp310, %sfp
	call	sort_merge_inplace	#
# mergeinplace.h:34:     sort_merge_inplace(a, mid + 1, high);
	movl	12(%rsp), %ecx	# %sfp, tmp310
	movl	%r15d, %edx	# tmp306,
	leal	1(%rcx), %eax	#, _121
	movl	%eax, %esi	# _121,
	movq	%rbx, %rdi	# a,
	movl	%eax, 12(%rsp)	# _121, %sfp
	movl	%ecx, 16(%rsp)	# tmp310, %sfp
	call	sort_merge_inplace	#
# mergeinplace.h:7:   for (l1 = low, l2 = mid + 1, i = low; l1 <= mid && l2 <= high; i++) {
	movslq	12(%rsp), %rax	# %sfp,
	cmpl	%eax, %r15d	# _121, tmp306
	jl	.L877	#,
	movl	16(%rsp), %ecx	# %sfp, tmp310
	cmpl	%ecx, %ebp	# tmp310, low
	jg	.L877	#,
# mergeinplace.h:8:     int c = a[l1] <= a[l2];
	leaq	(%rbx,%rax,4), %rdx	#, _129
	vmovd	(%rdx), %xmm1	# *_129, tmp463
	movslq	%ebp, %rax	# low, ivtmp.1308
	.p2align 4,,10
	.p2align 3
.L878:
# mergeinplace.h:8:     int c = a[l1] <= a[l2];
	vmovd	(%rbx,%rax,4), %xmm0	# MEM[base: a_8(D), index: ivtmp.1308_389, step: 4, offset: 0B], tmp464
# mergeinplace.h:12:     a[l1] = c ? x : y;
	vpminsd	%xmm1, %xmm0, %xmm2	# iftmp.54_132, _126, tmp317
	vmovd	%xmm2, (%rbx,%rax,4)	# tmp317, MEM[base: a_8(D), index: ivtmp.1308_389, step: 4, offset: 0B]
	vpmaxsd	%xmm0, %xmm1, %xmm1	# _126, iftmp.54_132, iftmp.54_132
# mergeinplace.h:7:   for (l1 = low, l2 = mid + 1, i = low; l1 <= mid && l2 <= high; i++) {
	incq	%rax	# ivtmp.1308
# mergeinplace.h:13:     a[l2] = c ? y : x;
	vmovd	%xmm1, (%rdx)	# iftmp.54_132, *_129
# mergeinplace.h:7:   for (l1 = low, l2 = mid + 1, i = low; l1 <= mid && l2 <= high; i++) {
	cmpl	%eax, %ecx	# ivtmp.1308, tmp310
	jge	.L878	#,
.L877:
# mergeinplace.h:34:     sort_merge_inplace(a, mid + 1, high);
	leal	1(%r15), %r8d	#, _85
# mergeinplace.h:31:   if (low < high) {
	cmpl	%r8d, %r14d	# _85, tmp302
	jle	.L876	#,
# mergeinplace.h:32:     mid = (low + high) / 2;
	leal	(%r14,%r8), %eax	#, tmp322
# mergeinplace.h:32:     mid = (low + high) / 2;
	movl	%eax, %ecx	# tmp322, tmp323
	shrl	$31, %ecx	#, tmp323
	addl	%eax, %ecx	# tmp322, tmp324
	sarl	%ecx	# tmp325
# mergeinplace.h:33:     sort_merge_inplace(a, low, mid);
	movl	%r8d, %esi	# _85,
	movl	%ecx, %edx	# tmp325,
	movq	%rbx, %rdi	# a,
	movl	%r8d, 20(%rsp)	# _85, %sfp
	movl	%ecx, 12(%rsp)	# tmp325, %sfp
	call	sort_merge_inplace	#
# mergeinplace.h:34:     sort_merge_inplace(a, mid + 1, high);
	movl	12(%rsp), %ecx	# %sfp, tmp325
	movl	%r14d, %edx	# tmp302,
	leal	1(%rcx), %eax	#, _103
	movl	%eax, %esi	# _103,
	movq	%rbx, %rdi	# a,
	movl	%ecx, 16(%rsp)	# tmp325, %sfp
	movl	%eax, 12(%rsp)	# _103, %sfp
	call	sort_merge_inplace	#
# mergeinplace.h:7:   for (l1 = low, l2 = mid + 1, i = low; l1 <= mid && l2 <= high; i++) {
	movl	16(%rsp), %ecx	# %sfp, tmp325
	movl	20(%rsp), %r8d	# %sfp, _85
	cmpl	%ecx, %r8d	# tmp325, _85
	jg	.L876	#,
	movslq	12(%rsp), %rax	# %sfp,
	cmpl	%eax, %r14d	# _103, tmp302
	jl	.L876	#,
# mergeinplace.h:8:     int c = a[l1] <= a[l2];
	leaq	(%rbx,%rax,4), %rdx	#, _111
	vmovd	(%rdx), %xmm1	# *_111, tmp465
	movslq	%r8d, %rax	# _85, ivtmp.1301
	.p2align 4,,10
	.p2align 3
.L882:
# mergeinplace.h:8:     int c = a[l1] <= a[l2];
	vmovd	(%rbx,%rax,4), %xmm0	# MEM[base: a_8(D), index: ivtmp.1301_400, step: 4, offset: 0B], tmp466
# mergeinplace.h:12:     a[l1] = c ? x : y;
	vpminsd	%xmm1, %xmm0, %xmm2	# iftmp.54_114, _108, tmp332
	vmovd	%xmm2, (%rbx,%rax,4)	# tmp332, MEM[base: a_8(D), index: ivtmp.1301_400, step: 4, offset: 0B]
	vpmaxsd	%xmm0, %xmm1, %xmm1	# _108, iftmp.54_114, iftmp.54_114
# mergeinplace.h:7:   for (l1 = low, l2 = mid + 1, i = low; l1 <= mid && l2 <= high; i++) {
	incq	%rax	# ivtmp.1301
# mergeinplace.h:13:     a[l2] = c ? y : x;
	vmovd	%xmm1, (%rdx)	# iftmp.54_114, *_111
# mergeinplace.h:7:   for (l1 = low, l2 = mid + 1, i = low; l1 <= mid && l2 <= high; i++) {
	cmpl	%eax, %ecx	# ivtmp.1301, tmp325
	jge	.L882	#,
.L876:
	cmpl	%r8d, %r14d	# _85, tmp302
	jl	.L881	#,
	cmpl	%r15d, %ebp	# tmp306, low
	jg	.L881	#,
# mergeinplace.h:8:     int c = a[l1] <= a[l2];
	movslq	%r8d, %r8	# _85, _85
	leaq	(%rbx,%r8,4), %rdx	#, _93
	vmovd	(%rdx), %xmm1	# *_93, tmp467
	movslq	%ebp, %rax	# low, ivtmp.1294
	.p2align 4,,10
	.p2align 3
.L883:
# mergeinplace.h:8:     int c = a[l1] <= a[l2];
	vmovd	(%rbx,%rax,4), %xmm0	# MEM[base: a_8(D), index: ivtmp.1294_417, step: 4, offset: 0B], tmp468
# mergeinplace.h:12:     a[l1] = c ? x : y;
	vpminsd	%xmm1, %xmm0, %xmm2	# iftmp.54_96, _90, tmp335
	vmovd	%xmm2, (%rbx,%rax,4)	# tmp335, MEM[base: a_8(D), index: ivtmp.1294_417, step: 4, offset: 0B]
	vpmaxsd	%xmm0, %xmm1, %xmm1	# _90, iftmp.54_96, iftmp.54_96
# mergeinplace.h:7:   for (l1 = low, l2 = mid + 1, i = low; l1 <= mid && l2 <= high; i++) {
	incq	%rax	# ivtmp.1294
# mergeinplace.h:13:     a[l2] = c ? y : x;
	vmovd	%xmm1, (%rdx)	# iftmp.54_96, *_93
# mergeinplace.h:7:   for (l1 = low, l2 = mid + 1, i = low; l1 <= mid && l2 <= high; i++) {
	cmpl	%eax, %r15d	# ivtmp.1294, tmp306
	jge	.L883	#,
# mergeinplace.h:34:     sort_merge_inplace(a, mid + 1, high);
	leal	1(%r14), %ecx	#, _49
# mergeinplace.h:31:   if (low < high) {
	cmpl	%ecx, %r12d	# _49, tmp298
	jle	.L873	#,
	jmp	.L1016	#
	.cfi_endproc
.LFE5407:
	.size	sort_merge_inplace, .-sort_merge_inplace
	.p2align 4
	.globl	min
	.type	min, @function
min:
.LFB5408:
	.cfi_startproc
	endbr64	
# minmax.h:3: inline int min(int x, int y) { return (x < y) ? x : y; }
	vmovd	%edi, %xmm1	# tmp86, tmp89
	vmovd	%esi, %xmm0	# tmp87, tmp90
# minmax.h:3: inline int min(int x, int y) { return (x < y) ? x : y; }
	vpminsd	%xmm1, %xmm0, %xmm0	# tmp89, tmp90, tmp88
	vmovd	%xmm0, %eax	# tmp88, tmp85
# minmax.h:3: inline int min(int x, int y) { return (x < y) ? x : y; }
	ret	
	.cfi_endproc
.LFE5408:
	.size	min, .-min
	.p2align 4
	.globl	max
	.type	max, @function
max:
.LFB5409:
	.cfi_startproc
	endbr64	
# minmax.h:4: inline int max(int x, int y) { return (x > y) ? x : y; }
	vmovd	%edi, %xmm1	# tmp86, tmp89
	vmovd	%esi, %xmm0	# tmp87, tmp90
# minmax.h:4: inline int max(int x, int y) { return (x > y) ? x : y; }
	vpmaxsd	%xmm1, %xmm0, %xmm0	# tmp89, tmp90, tmp88
	vmovd	%xmm0, %eax	# tmp88, tmp85
# minmax.h:4: inline int max(int x, int y) { return (x > y) ? x : y; }
	ret	
	.cfi_endproc
.LFE5409:
	.size	max, .-max
	.p2align 4
	.globl	partition_equal
	.type	partition_equal, @function
partition_equal:
.LFB5410:
	.cfi_startproc
	endbr64	
# quicko.h:13:   int pivot = array[high];
	movslq	%edx, %rdx	# tmp99, high
# quicko.h:12: int partition_equal(int array[], int low, int high) {
	pushq	%r12	#
	.cfi_def_cfa_offset 16
	.cfi_offset 12, -16
# quicko.h:28:   asm volatile("    movq    %[i], %%r12\n"
	movl	(%rdi,%rdx,4), %ecx	# *_3, *_3
# quicko.h:26:   int64_t i = low;
	movslq	%esi, %rax	# tmp98, i
# quicko.h:28:   asm volatile("    movq    %[i], %%r12\n"
#APP
# 28 "quicko.h" 1
	    movq    %rax, %r12	# i
1:

    movl     (%rdi,%r12,4), %r8d	# array
    movl     (%rdi,%rax,4), %r9d	# array, i
    xorq      %r10, %r10
    cmp      %ecx, %r8d	# *_3
    sete     %r10b
    movl     %r9d, %r11d
    cmovel   %r8d, %r11d
    movl     %r11d, (%rdi,%rax,4)	# array, i
    cmovel   %r9d, %r8d
    movl     %r8d, (%rdi,%r12,4)	# array
    addq     %r10, %rax	# i

    incq     %r12
    cmp      %r12, %rdx	# high
    jne      1b

    movl     (%rdi,%rax,4), %r9d	# array, i
    movl     (%rdi,%rdx,4), %r8d	# array, high
    movl     %r9d, (%rdi,%rdx,4)	# array, high
    movl     %r8d, (%rdi,%rax,4)	# array, i

# 0 "" 2
# quicko.h:57: }
#NO_APP
	popq	%r12	#
	.cfi_def_cfa_offset 8
	ret	
	.cfi_endproc
.LFE5410:
	.size	partition_equal, .-partition_equal
	.p2align 4
	.globl	partition_lomuto
	.type	partition_lomuto, @function
partition_lomuto:
.LFB5411:
	.cfi_startproc
	endbr64	
# quicko.h:60:   int pivot = array[high];
	movslq	%edx, %rax	# high, high
	leaq	(%rdi,%rax,4), %r11	#, _3
# quicko.h:59: int partition_lomuto(int array[], int low, int high) {
	movq	%rdi, %r8	# tmp131, array
# quicko.h:62:   int i = (low - 1);
	leal	-1(%rsi), %ecx	#, i
# quicko.h:60:   int pivot = array[high];
	movl	(%r11), %edi	# *_3, pivot
# quicko.h:63:   for (int j = low; j < high; j++) {
	cmpl	%esi, %edx	# low, high
	jle	.L1026	#,
	movslq	%esi, %r9	# low, _42
	notl	%esi	# tmp119
	addl	%esi, %edx	# tmp119,
	addq	%r9, %rdx	# _42, tmp122
	leaq	(%r8,%r9,4), %rax	#, ivtmp.1330
	leaq	4(%r8,%rdx,4), %r9	#, _29
	.p2align 4,,10
	.p2align 3
.L1025:
# quicko.h:64:     if (array[j] <= pivot) {
	movl	(%rax), %edx	# MEM[base: _5, offset: 0B], _52
# quicko.h:64:     if (array[j] <= pivot) {
	cmpl	%edx, %edi	# _52, pivot
	jl	.L1024	#,
# quicko.h:65:       i++;
	incl	%ecx	# i
# quicko.h:66:       swap(&array[i], &array[j]);
	movslq	%ecx, %rsi	# i, i
# quicko.h:66:       swap(&array[i], &array[j]);
	leaq	(%r8,%rsi,4), %rsi	#, _48
# swap.h:2:   int t = *a;
	movl	(%rsi), %r10d	# *_48, t
# swap.h:3:   *a = *b;
	movl	%edx, (%rsi)	# _52, *_48
# swap.h:4:   *b = t;
	movl	%r10d, (%rax)	# t, MEM[base: _5, offset: 0B]
.L1024:
# quicko.h:63:   for (int j = low; j < high; j++) {
	addq	$4, %rax	#, ivtmp.1330
	cmpq	%r9, %rax	# _29, ivtmp.1330
	jne	.L1025	#,
# quicko.h:70:   return (i + 1);
	leal	1(%rcx), %eax	#, <retval>
# quicko.h:69:   swap(&array[i + 1], &array[high]);
	movslq	%ecx, %rcx	# i, i
# quicko.h:69:   swap(&array[i + 1], &array[high]);
	leaq	4(%r8,%rcx,4), %rdx	#, _15
# swap.h:3:   *a = *b;
	movl	(%r11), %edi	# *_3, pivot
# swap.h:2:   int t = *a;
	movl	(%rdx), %ecx	# *_15, t
# swap.h:3:   *a = *b;
	movl	%edi, (%rdx)	# pivot, *_15
# swap.h:4:   *b = t;
	movl	%ecx, (%r11)	# t, *_3
# quicko.h:71: }
	ret	
	.p2align 4,,10
	.p2align 3
.L1026:
# quicko.h:69:   swap(&array[i + 1], &array[high]);
	movslq	%ecx, %rcx	# i, i
# quicko.h:69:   swap(&array[i + 1], &array[high]);
	leaq	4(%r8,%rcx,4), %rdx	#, _15
