
benchy:	file format mach-o 64-bit x86-64


Disassembly of section __TEXT,__text:

0000000100003310 <_random_data>:
100003310: 55                          	pushq	%rbp
100003311: 48 89 e5                    	movq	%rsp, %rbp
100003314: 41 56                       	pushq	%r14
100003316: 53                          	pushq	%rbx
100003317: 48 83 e4 e0                 	andq	$-32, %rsp
10000331b: 48 83 ec 40                 	subq	$64, %rsp
10000331f: 41 89 f6                    	movl	%esi, %r14d
100003322: 48 89 fb                    	movq	%rdi, %rbx
100003325: e8 0a 4b 00 00              	callq	0x100007e34 <dyld_stub_binder+0x100007e34>
10000332a: 89 c7                       	movl	%eax, %edi
10000332c: e8 1b 4b 00 00              	callq	0x100007e4c <dyld_stub_binder+0x100007e4c>
100003331: 45 85 f6                    	testl	%r14d, %r14d
100003334: 0f 8e 51 02 00 00           	jle	0x10000358b <_random_data+0x27b>
10000333a: 44 89 f0                    	movl	%r14d, %eax
10000333d: 41 83 fe 20                 	cmpl	$32, %r14d
100003341: 73 07                       	jae	0x10000334a <_random_data+0x3a>
100003343: 31 c9                       	xorl	%ecx, %ecx
100003345: e9 36 02 00 00              	jmp	0x100003580 <_random_data+0x270>
10000334a: 89 c1                       	movl	%eax, %ecx
10000334c: 83 e1 e0                    	andl	$-32, %ecx
10000334f: 48 8d 79 e0                 	leaq	-32(%rcx), %rdi
100003353: 48 89 fe                    	movq	%rdi, %rsi
100003356: 48 c1 ee 05                 	shrq	$5, %rsi
10000335a: 48 ff c6                    	incq	%rsi
10000335d: 89 f2                       	movl	%esi, %edx
10000335f: 83 e2 03                    	andl	$3, %edx
100003362: 48 83 ff 60                 	cmpq	$96, %rdi
100003366: 73 0f                       	jae	0x100003377 <_random_data+0x67>
100003368: c5 fd 6f 05 30 4b 00 00     	vmovdqa	19248(%rip), %ymm0  # 100007ea0 <dyld_stub_binder+0x100007ea0>
100003370: 31 ff                       	xorl	%edi, %edi
100003372: e9 8d 01 00 00              	jmp	0x100003504 <_random_data+0x1f4>
100003377: 48 83 e6 fc                 	andq	$-4, %rsi
10000337b: 48 f7 de                    	negq	%rsi
10000337e: c5 fd 6f 05 1a 4b 00 00     	vmovdqa	19226(%rip), %ymm0  # 100007ea0 <dyld_stub_binder+0x100007ea0>
100003386: 31 ff                       	xorl	%edi, %edi
100003388: c4 e2 7d 18 0d 77 4b 00 00  	vbroadcastss	19319(%rip), %ymm1  # 100007f08 <_RUNS_PER_BENCH+0x24>
100003391: c5 fc 29 4c 24 20           	vmovaps	%ymm1, 32(%rsp)
100003397: c4 e2 7d 18 0d 6c 4b 00 00  	vbroadcastss	19308(%rip), %ymm1  # 100007f0c <_RUNS_PER_BENCH+0x28>
1000033a0: c5 fc 29 0c 24              	vmovaps	%ymm1, (%rsp)
1000033a5: c4 e2 7d 58 1d 62 4b 00 00  	vpbroadcastd	19298(%rip), %ymm3  # 100007f10 <_RUNS_PER_BENCH+0x2c>
1000033ae: c4 e2 7d 58 25 5d 4b 00 00  	vpbroadcastd	19293(%rip), %ymm4  # 100007f14 <_RUNS_PER_BENCH+0x30>
1000033b7: c4 e2 7d 58 2d 58 4b 00 00  	vpbroadcastd	19288(%rip), %ymm5  # 100007f18 <_RUNS_PER_BENCH+0x34>
1000033c0: c4 e2 7d 58 35 53 4b 00 00  	vpbroadcastd	19283(%rip), %ymm6  # 100007f1c <_RUNS_PER_BENCH+0x38>
1000033c9: c4 e2 7d 58 3d 4e 4b 00 00  	vpbroadcastd	19278(%rip), %ymm7  # 100007f20 <_RUNS_PER_BENCH+0x3c>
1000033d2: c4 62 7d 58 05 49 4b 00 00  	vpbroadcastd	19273(%rip), %ymm8  # 100007f24 <_RUNS_PER_BENCH+0x40>
1000033db: c4 62 7d 58 0d 44 4b 00 00  	vpbroadcastd	19268(%rip), %ymm9  # 100007f28 <_RUNS_PER_BENCH+0x44>
1000033e4: c4 62 7d 58 15 3f 4b 00 00  	vpbroadcastd	19263(%rip), %ymm10  # 100007f2c <_RUNS_PER_BENCH+0x48>
1000033ed: c4 62 7d 58 1d 3a 4b 00 00  	vpbroadcastd	19258(%rip), %ymm11  # 100007f30 <_RUNS_PER_BENCH+0x4c>
1000033f6: c4 62 7d 58 25 35 4b 00 00  	vpbroadcastd	19253(%rip), %ymm12  # 100007f34 <_RUNS_PER_BENCH+0x50>
1000033ff: c4 62 7d 58 2d 30 4b 00 00  	vpbroadcastd	19248(%rip), %ymm13  # 100007f38 <_RUNS_PER_BENCH+0x54>
100003408: c4 62 7d 58 35 2b 4b 00 00  	vpbroadcastd	19243(%rip), %ymm14  # 100007f3c <_RUNS_PER_BENCH+0x58>
100003411: c4 62 7d 58 3d 26 4b 00 00  	vpbroadcastd	19238(%rip), %ymm15  # 100007f40 <_RUNS_PER_BENCH+0x5c>
10000341a: c4 e2 7d 58 0d 21 4b 00 00  	vpbroadcastd	19233(%rip), %ymm1  # 100007f44 <_RUNS_PER_BENCH+0x60>
100003423: 66 66 66 66 2e 0f 1f 84 00 00 00 00 00      	nopw	%cs:(%rax,%rax)
100003430: c5 fe 7f 04 bb              	vmovdqu	%ymm0, (%rbx,%rdi,4)
100003435: c5 fd fe 54 24 20           	vpaddd	32(%rsp), %ymm0, %ymm2
10000343b: c5 fe 7f 54 bb 20           	vmovdqu	%ymm2, 32(%rbx,%rdi,4)
100003441: c5 fd fe 14 24              	vpaddd	(%rsp), %ymm0, %ymm2
100003446: c5 fe 7f 54 bb 40           	vmovdqu	%ymm2, 64(%rbx,%rdi,4)
10000344c: c5 fd fe d3                 	vpaddd	%ymm3, %ymm0, %ymm2
100003450: c5 fe 7f 54 bb 60           	vmovdqu	%ymm2, 96(%rbx,%rdi,4)
100003456: c5 fd fe d4                 	vpaddd	%ymm4, %ymm0, %ymm2
10000345a: c5 fe 7f 94 bb 80 00 00 00  	vmovdqu	%ymm2, 128(%rbx,%rdi,4)
100003463: c5 fd fe d5                 	vpaddd	%ymm5, %ymm0, %ymm2
100003467: c5 fe 7f 94 bb a0 00 00 00  	vmovdqu	%ymm2, 160(%rbx,%rdi,4)
100003470: c5 fd fe d6                 	vpaddd	%ymm6, %ymm0, %ymm2
100003474: c5 fe 7f 94 bb c0 00 00 00  	vmovdqu	%ymm2, 192(%rbx,%rdi,4)
10000347d: c5 fd fe d7                 	vpaddd	%ymm7, %ymm0, %ymm2
100003481: c5 fe 7f 94 bb e0 00 00 00  	vmovdqu	%ymm2, 224(%rbx,%rdi,4)
10000348a: c5 bd fe d0                 	vpaddd	%ymm0, %ymm8, %ymm2
10000348e: c5 fe 7f 94 bb 00 01 00 00  	vmovdqu	%ymm2, 256(%rbx,%rdi,4)
100003497: c5 b5 fe d0                 	vpaddd	%ymm0, %ymm9, %ymm2
10000349b: c5 fe 7f 94 bb 20 01 00 00  	vmovdqu	%ymm2, 288(%rbx,%rdi,4)
1000034a4: c5 ad fe d0                 	vpaddd	%ymm0, %ymm10, %ymm2
1000034a8: c5 fe 7f 94 bb 40 01 00 00  	vmovdqu	%ymm2, 320(%rbx,%rdi,4)
1000034b1: c5 a5 fe d0                 	vpaddd	%ymm0, %ymm11, %ymm2
1000034b5: c5 fe 7f 94 bb 60 01 00 00  	vmovdqu	%ymm2, 352(%rbx,%rdi,4)
1000034be: c5 9d fe d0                 	vpaddd	%ymm0, %ymm12, %ymm2
1000034c2: c5 fe 7f 94 bb 80 01 00 00  	vmovdqu	%ymm2, 384(%rbx,%rdi,4)
1000034cb: c5 95 fe d0                 	vpaddd	%ymm0, %ymm13, %ymm2
1000034cf: c5 fe 7f 94 bb a0 01 00 00  	vmovdqu	%ymm2, 416(%rbx,%rdi,4)
1000034d8: c5 8d fe d0                 	vpaddd	%ymm0, %ymm14, %ymm2
1000034dc: c5 fe 7f 94 bb c0 01 00 00  	vmovdqu	%ymm2, 448(%rbx,%rdi,4)
1000034e5: c5 85 fe d0                 	vpaddd	%ymm0, %ymm15, %ymm2
1000034e9: c5 fe 7f 94 bb e0 01 00 00  	vmovdqu	%ymm2, 480(%rbx,%rdi,4)
1000034f2: 48 83 ef 80                 	subq	$-128, %rdi
1000034f6: c5 fd fe c1                 	vpaddd	%ymm1, %ymm0, %ymm0
1000034fa: 48 83 c6 04                 	addq	$4, %rsi
1000034fe: 0f 85 2c ff ff ff           	jne	0x100003430 <_random_data+0x120>
100003504: 48 85 d2                    	testq	%rdx, %rdx
100003507: 74 67                       	je	0x100003570 <_random_data+0x260>
100003509: 48 8d 34 bb                 	leaq	(%rbx,%rdi,4), %rsi
10000350d: 48 83 c6 60                 	addq	$96, %rsi
100003511: 48 c1 e2 07                 	shlq	$7, %rdx
100003515: 31 ff                       	xorl	%edi, %edi
100003517: c4 e2 7d 58 0d e8 49 00 00  	vpbroadcastd	18920(%rip), %ymm1  # 100007f08 <_RUNS_PER_BENCH+0x24>
100003520: c4 e2 7d 58 15 e3 49 00 00  	vpbroadcastd	18915(%rip), %ymm2  # 100007f0c <_RUNS_PER_BENCH+0x28>
100003529: c4 e2 7d 58 1d de 49 00 00  	vpbroadcastd	18910(%rip), %ymm3  # 100007f10 <_RUNS_PER_BENCH+0x2c>
100003532: c4 e2 7d 58 25 d9 49 00 00  	vpbroadcastd	18905(%rip), %ymm4  # 100007f14 <_RUNS_PER_BENCH+0x30>
10000353b: 0f 1f 44 00 00              	nopl	(%rax,%rax)
100003540: c5 fd fe e9                 	vpaddd	%ymm1, %ymm0, %ymm5
100003544: c5 fd fe f2                 	vpaddd	%ymm2, %ymm0, %ymm6
100003548: c5 fe 7f 44 3e a0           	vmovdqu	%ymm0, -96(%rsi,%rdi)
10000354e: c5 fe 7f 6c 3e c0           	vmovdqu	%ymm5, -64(%rsi,%rdi)
100003554: c5 fe 7f 74 3e e0           	vmovdqu	%ymm6, -32(%rsi,%rdi)
10000355a: c5 fd fe eb                 	vpaddd	%ymm3, %ymm0, %ymm5
10000355e: c5 fe 7f 2c 3e              	vmovdqu	%ymm5, (%rsi,%rdi)
100003563: c5 fd fe c4                 	vpaddd	%ymm4, %ymm0, %ymm0
100003567: 48 83 ef 80                 	subq	$-128, %rdi
10000356b: 48 39 fa                    	cmpq	%rdi, %rdx
10000356e: 75 d0                       	jne	0x100003540 <_random_data+0x230>
100003570: 48 39 c1                    	cmpq	%rax, %rcx
100003573: 74 16                       	je	0x10000358b <_random_data+0x27b>
100003575: 66 66 2e 0f 1f 84 00 00 00 00 00    	nopw	%cs:(%rax,%rax)
100003580: 89 0c 8b                    	movl	%ecx, (%rbx,%rcx,4)
100003583: 48 ff c1                    	incq	%rcx
100003586: 48 39 c8                    	cmpq	%rcx, %rax
100003589: 75 f5                       	jne	0x100003580 <_random_data+0x270>
10000358b: 48 8d 65 f0                 	leaq	-16(%rbp), %rsp
10000358f: 5b                          	popq	%rbx
100003590: 41 5e                       	popq	%r14
100003592: 5d                          	popq	%rbp
100003593: c5 f8 77                    	vzeroupper
100003596: c3                          	retq
100003597: 66 0f 1f 84 00 00 00 00 00  	nopw	(%rax,%rax)

00000001000035a0 <_sign>:
1000035a0: 55                          	pushq	%rbp
1000035a1: 48 89 e5                    	movq	%rsp, %rbp
1000035a4: 89 f9                       	movl	%edi, %ecx
1000035a6: c1 f9 1f                    	sarl	$31, %ecx
1000035a9: 31 c0                       	xorl	%eax, %eax
1000035ab: 85 ff                       	testl	%edi, %edi
1000035ad: 0f 95 c0                    	setne	%al
1000035b0: 09 c8                       	orl	%ecx, %eax
1000035b2: 5d                          	popq	%rbp
1000035b3: c3                          	retq
1000035b4: 66 66 66 2e 0f 1f 84 00 00 00 00 00 	nopw	%cs:(%rax,%rax)

00000001000035c0 <_merging_optimzed>:
1000035c0: 55                          	pushq	%rbp
1000035c1: 48 89 e5                    	movq	%rsp, %rbp
1000035c4: 41 57                       	pushq	%r15
1000035c6: 41 56                       	pushq	%r14
1000035c8: 41 55                       	pushq	%r13
1000035ca: 41 54                       	pushq	%r12
1000035cc: 53                          	pushq	%rbx
1000035cd: 48 83 ec 18                 	subq	$24, %rsp
1000035d1: 48 8b 05 28 4a 00 00        	movq	18984(%rip), %rax  # 100008000 <dyld_stub_binder+0x100008000>
1000035d8: 48 8b 00                    	movq	(%rax), %rax
1000035db: 48 89 45 d0                 	movq	%rax, -48(%rbp)
1000035df: 44 8d 4a 01                 	leal	1(%rdx), %r9d
1000035e3: 4c 63 c6                    	movslq	%esi, %r8
1000035e6: 46 8b 14 87                 	movl	(%rdi,%r8,4), %r10d
1000035ea: 44 89 55 c8                 	movl	%r10d, -56(%rbp)
1000035ee: 49 63 c1                    	movslq	%r9d, %rax
1000035f1: 44 8b 1c 87                 	movl	(%rdi,%rax,4), %r11d
1000035f5: 44 89 5d cc                 	movl	%r11d, -52(%rbp)
1000035f9: 39 ca                       	cmpl	%ecx, %edx
1000035fb: 7d 6c                       	jge	0x100003669 <_merging_optimzed+0xa9>
1000035fd: 39 d6                       	cmpl	%edx, %esi
1000035ff: 7f 68                       	jg	0x100003669 <_merging_optimzed+0xa9>
100003601: 4e 8d 24 85 00 00 00 00     	leaq	(,%r8,4), %r12
100003609: 4c 03 25 f8 49 00 00        	addq	18936(%rip), %r12  # 100008008 <dyld_stub_binder+0x100008008>
100003610: 41 89 f6                    	movl	%esi, %r14d
100003613: 89 f3                       	movl	%esi, %ebx
100003615: 66 66 2e 0f 1f 84 00 00 00 00 00    	nopw	%cs:(%rax,%rax)
100003620: 41 89 df                    	movl	%ebx, %r15d
100003623: 31 db                       	xorl	%ebx, %ebx
100003625: 45 31 ed                    	xorl	%r13d, %r13d
100003628: 45 39 da                    	cmpl	%r11d, %r10d
10000362b: 0f 9c c3                    	setl	%bl
10000362e: 41 0f 9d c5                 	setge	%r13b
100003632: 44 01 fb                    	addl	%r15d, %ebx
100003635: 45 01 e9                    	addl	%r13d, %r9d
100003638: 48 63 c3                    	movslq	%ebx, %rax
10000363b: 44 8b 14 87                 	movl	(%rdi,%rax,4), %r10d
10000363f: 44 89 55 c8                 	movl	%r10d, -56(%rbp)
100003643: 4d 63 f9                    	movslq	%r9d, %r15
100003646: 46 8b 1c bf                 	movl	(%rdi,%r15,4), %r11d
10000364a: 44 89 5d cc                 	movl	%r11d, -52(%rbp)
10000364e: 42 8b 44 ad c8              	movl	-56(%rbp,%r13,4), %eax
100003653: 41 89 04 24                 	movl	%eax, (%r12)
100003657: 41 ff c6                    	incl	%r14d
10000365a: 41 39 cf                    	cmpl	%ecx, %r15d
10000365d: 7f 0f                       	jg	0x10000366e <_merging_optimzed+0xae>
10000365f: 49 83 c4 04                 	addq	$4, %r12
100003663: 39 d3                       	cmpl	%edx, %ebx
100003665: 7e b9                       	jle	0x100003620 <_merging_optimzed+0x60>
100003667: eb 05                       	jmp	0x10000366e <_merging_optimzed+0xae>
100003669: 41 89 f6                    	movl	%esi, %r14d
10000366c: 89 f3                       	movl	%esi, %ebx
10000366e: 39 d3                       	cmpl	%edx, %ebx
100003670: 0f 8f f3 02 00 00           	jg	0x100003969 <_merging_optimzed+0x3a9>
100003676: 4c 63 d3                    	movslq	%ebx, %r10
100003679: 4d 63 f6                    	movslq	%r14d, %r14
10000367c: 41 89 d3                    	movl	%edx, %r11d
10000367f: 41 29 db                    	subl	%ebx, %r11d
100003682: 41 83 fb 1f                 	cmpl	$31, %r11d
100003686: 0f 82 22 02 00 00           	jb	0x1000038ae <_merging_optimzed+0x2ee>
10000368c: 4c 8d 3d ad 89 00 00        	leaq	35245(%rip), %r15  # 10000c040 <_b>
100003693: 4b 8d 04 b7                 	leaq	(%r15,%r14,4), %rax
100003697: 4b 8d 1c 1a                 	leaq	(%r10,%r11), %rbx
10000369b: 48 8d 1c 9f                 	leaq	(%rdi,%rbx,4), %rbx
10000369f: 48 83 c3 04                 	addq	$4, %rbx
1000036a3: 48 39 d8                    	cmpq	%rbx, %rax
1000036a6: 73 19                       	jae	0x1000036c1 <_merging_optimzed+0x101>
1000036a8: 4b 8d 04 1e                 	leaq	(%r14,%r11), %rax
1000036ac: 49 8d 04 87                 	leaq	(%r15,%rax,4), %rax
1000036b0: 48 83 c0 04                 	addq	$4, %rax
1000036b4: 4a 8d 1c 97                 	leaq	(%rdi,%r10,4), %rbx
1000036b8: 48 39 c3                    	cmpq	%rax, %rbx
1000036bb: 0f 82 ed 01 00 00           	jb	0x1000038ae <_merging_optimzed+0x2ee>
1000036c1: 49 ff c3                    	incq	%r11
1000036c4: 4c 89 d8                    	movq	%r11, %rax
1000036c7: 48 83 e0 e0                 	andq	$-32, %rax
1000036cb: 48 89 45 c0                 	movq	%rax, -64(%rbp)
1000036cf: 48 83 c0 e0                 	addq	$-32, %rax
1000036d3: 49 89 c5                    	movq	%rax, %r13
1000036d6: 49 c1 ed 05                 	shrq	$5, %r13
1000036da: 49 ff c5                    	incq	%r13
1000036dd: 45 89 ec                    	movl	%r13d, %r12d
1000036e0: 41 83 e4 03                 	andl	$3, %r12d
1000036e4: 48 83 f8 60                 	cmpq	$96, %rax
1000036e8: 73 07                       	jae	0x1000036f1 <_merging_optimzed+0x131>
1000036ea: 31 db                       	xorl	%ebx, %ebx
1000036ec: e9 3d 01 00 00              	jmp	0x10000382e <_merging_optimzed+0x26e>
1000036f1: 4b 8d 04 b7                 	leaq	(%r15,%r14,4), %rax
1000036f5: 48 05 e0 01 00 00           	addq	$480, %rax
1000036fb: 4e 8d 3c 97                 	leaq	(%rdi,%r10,4), %r15
1000036ff: 49 81 c7 e0 01 00 00        	addq	$480, %r15
100003706: 49 83 e5 fc                 	andq	$-4, %r13
10000370a: 49 f7 dd                    	negq	%r13
10000370d: 31 db                       	xorl	%ebx, %ebx
10000370f: 90                          	nop
100003710: c4 c1 7c 10 84 9f 20 fe ff ff       	vmovups	-480(%r15,%rbx,4), %ymm0
10000371a: c4 c1 7c 10 8c 9f 40 fe ff ff       	vmovups	-448(%r15,%rbx,4), %ymm1
100003724: c4 c1 7c 10 94 9f 60 fe ff ff       	vmovups	-416(%r15,%rbx,4), %ymm2
10000372e: c4 c1 7c 10 9c 9f 80 fe ff ff       	vmovups	-384(%r15,%rbx,4), %ymm3
100003738: c5 fc 11 84 98 20 fe ff ff  	vmovups	%ymm0, -480(%rax,%rbx,4)
100003741: c5 fc 11 8c 98 40 fe ff ff  	vmovups	%ymm1, -448(%rax,%rbx,4)
10000374a: c5 fc 11 94 98 60 fe ff ff  	vmovups	%ymm2, -416(%rax,%rbx,4)
100003753: c5 fc 11 9c 98 80 fe ff ff  	vmovups	%ymm3, -384(%rax,%rbx,4)
10000375c: c4 c1 7c 10 84 9f a0 fe ff ff       	vmovups	-352(%r15,%rbx,4), %ymm0
100003766: c4 c1 7c 10 8c 9f c0 fe ff ff       	vmovups	-320(%r15,%rbx,4), %ymm1
100003770: c4 c1 7c 10 94 9f e0 fe ff ff       	vmovups	-288(%r15,%rbx,4), %ymm2
10000377a: c4 c1 7c 10 9c 9f 00 ff ff ff       	vmovups	-256(%r15,%rbx,4), %ymm3
100003784: c5 fc 11 84 98 a0 fe ff ff  	vmovups	%ymm0, -352(%rax,%rbx,4)
10000378d: c5 fc 11 8c 98 c0 fe ff ff  	vmovups	%ymm1, -320(%rax,%rbx,4)
100003796: c5 fc 11 94 98 e0 fe ff ff  	vmovups	%ymm2, -288(%rax,%rbx,4)
10000379f: c5 fc 11 9c 98 00 ff ff ff  	vmovups	%ymm3, -256(%rax,%rbx,4)
1000037a8: c4 c1 7c 10 84 9f 20 ff ff ff       	vmovups	-224(%r15,%rbx,4), %ymm0
1000037b2: c4 c1 7c 10 8c 9f 40 ff ff ff       	vmovups	-192(%r15,%rbx,4), %ymm1
1000037bc: c4 c1 7c 10 94 9f 60 ff ff ff       	vmovups	-160(%r15,%rbx,4), %ymm2
1000037c6: c4 c1 7c 10 5c 9f 80        	vmovups	-128(%r15,%rbx,4), %ymm3
1000037cd: c5 fc 11 84 98 20 ff ff ff  	vmovups	%ymm0, -224(%rax,%rbx,4)
1000037d6: c5 fc 11 8c 98 40 ff ff ff  	vmovups	%ymm1, -192(%rax,%rbx,4)
1000037df: c5 fc 11 94 98 60 ff ff ff  	vmovups	%ymm2, -160(%rax,%rbx,4)
1000037e8: c5 fc 11 5c 98 80           	vmovups	%ymm3, -128(%rax,%rbx,4)
1000037ee: c4 c1 7c 10 44 9f a0        	vmovups	-96(%r15,%rbx,4), %ymm0
1000037f5: c4 c1 7c 10 4c 9f c0        	vmovups	-64(%r15,%rbx,4), %ymm1
1000037fc: c4 c1 7c 10 54 9f e0        	vmovups	-32(%r15,%rbx,4), %ymm2
100003803: c4 c1 7c 10 1c 9f           	vmovups	(%r15,%rbx,4), %ymm3
100003809: c5 fc 11 44 98 a0           	vmovups	%ymm0, -96(%rax,%rbx,4)
10000380f: c5 fc 11 4c 98 c0           	vmovups	%ymm1, -64(%rax,%rbx,4)
100003815: c5 fc 11 54 98 e0           	vmovups	%ymm2, -32(%rax,%rbx,4)
10000381b: c5 fc 11 1c 98              	vmovups	%ymm3, (%rax,%rbx,4)
100003820: 48 83 eb 80                 	subq	$-128, %rbx
100003824: 49 83 c5 04                 	addq	$4, %r13
100003828: 0f 85 e2 fe ff ff           	jne	0x100003710 <_merging_optimzed+0x150>
10000382e: 4d 85 e4                    	testq	%r12, %r12
100003831: 74 68                       	je	0x10000389b <_merging_optimzed+0x2db>
100003833: 4a 8d 04 13                 	leaq	(%rbx,%r10), %rax
100003837: 4c 8d 3c 87                 	leaq	(%rdi,%rax,4), %r15
10000383b: 49 83 c7 60                 	addq	$96, %r15
10000383f: 4c 01 f3                    	addq	%r14, %rbx
100003842: 48 8d 05 f7 87 00 00        	leaq	34807(%rip), %rax  # 10000c040 <_b>
100003849: 48 8d 1c 98                 	leaq	(%rax,%rbx,4), %rbx
10000384d: 48 83 c3 60                 	addq	$96, %rbx
100003851: 49 c1 e4 07                 	shlq	$7, %r12
100003855: 31 c0                       	xorl	%eax, %eax
100003857: 66 0f 1f 84 00 00 00 00 00  	nopw	(%rax,%rax)
100003860: c4 c1 7c 10 44 07 a0        	vmovups	-96(%r15,%rax), %ymm0
100003867: c4 c1 7c 10 4c 07 c0        	vmovups	-64(%r15,%rax), %ymm1
10000386e: c4 c1 7c 10 54 07 e0        	vmovups	-32(%r15,%rax), %ymm2
100003875: c4 c1 7c 10 1c 07           	vmovups	(%r15,%rax), %ymm3
10000387b: c5 fc 11 44 03 a0           	vmovups	%ymm0, -96(%rbx,%rax)
100003881: c5 fc 11 4c 03 c0           	vmovups	%ymm1, -64(%rbx,%rax)
100003887: c5 fc 11 54 03 e0           	vmovups	%ymm2, -32(%rbx,%rax)
10000388d: c5 fc 11 1c 03              	vmovups	%ymm3, (%rbx,%rax)
100003892: 48 83 e8 80                 	subq	$-128, %rax
100003896: 49 39 c4                    	cmpq	%rax, %r12
100003899: 75 c5                       	jne	0x100003860 <_merging_optimzed+0x2a0>
10000389b: 48 8b 45 c0                 	movq	-64(%rbp), %rax
10000389f: 49 01 c6                    	addq	%rax, %r14
1000038a2: 49 39 c3                    	cmpq	%rax, %r11
1000038a5: 0f 84 be 00 00 00           	je	0x100003969 <_merging_optimzed+0x3a9>
1000038ab: 49 01 c2                    	addq	%rax, %r10
1000038ae: 41 89 d3                    	movl	%edx, %r11d
1000038b1: 45 29 d3                    	subl	%r10d, %r11d
1000038b4: 41 8d 5b 01                 	leal	1(%r11), %ebx
1000038b8: 83 e3 07                    	andl	$7, %ebx
1000038bb: 74 25                       	je	0x1000038e2 <_merging_optimzed+0x322>
1000038bd: 4c 8d 3d 7c 87 00 00        	leaq	34684(%rip), %r15  # 10000c040 <_b>
1000038c4: 66 66 66 2e 0f 1f 84 00 00 00 00 00 	nopw	%cs:(%rax,%rax)
1000038d0: 42 8b 04 97                 	movl	(%rdi,%r10,4), %eax
1000038d4: 49 ff c2                    	incq	%r10
1000038d7: 43 89 04 b7                 	movl	%eax, (%r15,%r14,4)
1000038db: 49 ff c6                    	incq	%r14
1000038de: ff cb                       	decl	%ebx
1000038e0: 75 ee                       	jne	0x1000038d0 <_merging_optimzed+0x310>
1000038e2: 41 83 fb 07                 	cmpl	$7, %r11d
1000038e6: 0f 82 7d 00 00 00           	jb	0x100003969 <_merging_optimzed+0x3a9>
1000038ec: 48 8d 05 4d 87 00 00        	leaq	34637(%rip), %rax  # 10000c040 <_b>
1000038f3: 4e 8d 1c b0                 	leaq	(%rax,%r14,4), %r11
1000038f7: 49 83 c3 1c                 	addq	$28, %r11
1000038fb: 44 29 d2                    	subl	%r10d, %edx
1000038fe: ff c2                       	incl	%edx
100003900: 4e 8d 14 97                 	leaq	(%rdi,%r10,4), %r10
100003904: 49 83 c2 1c                 	addq	$28, %r10
100003908: 31 db                       	xorl	%ebx, %ebx
10000390a: 66 0f 1f 44 00 00           	nopw	(%rax,%rax)
100003910: 41 8b 44 9a e4              	movl	-28(%r10,%rbx,4), %eax
100003915: 41 89 44 9b e4              	movl	%eax, -28(%r11,%rbx,4)
10000391a: 41 8b 44 9a e8              	movl	-24(%r10,%rbx,4), %eax
10000391f: 41 89 44 9b e8              	movl	%eax, -24(%r11,%rbx,4)
100003924: 41 8b 44 9a ec              	movl	-20(%r10,%rbx,4), %eax
100003929: 41 89 44 9b ec              	movl	%eax, -20(%r11,%rbx,4)
10000392e: 41 8b 44 9a f0              	movl	-16(%r10,%rbx,4), %eax
100003933: 41 89 44 9b f0              	movl	%eax, -16(%r11,%rbx,4)
100003938: 41 8b 44 9a f4              	movl	-12(%r10,%rbx,4), %eax
10000393d: 41 89 44 9b f4              	movl	%eax, -12(%r11,%rbx,4)
100003942: 41 8b 44 9a f8              	movl	-8(%r10,%rbx,4), %eax
100003947: 41 89 44 9b f8              	movl	%eax, -8(%r11,%rbx,4)
10000394c: 41 8b 44 9a fc              	movl	-4(%r10,%rbx,4), %eax
100003951: 41 89 44 9b fc              	movl	%eax, -4(%r11,%rbx,4)
100003956: 41 8b 04 9a                 	movl	(%r10,%rbx,4), %eax
10000395a: 41 89 04 9b                 	movl	%eax, (%r11,%rbx,4)
10000395e: 48 83 c3 08                 	addq	$8, %rbx
100003962: 39 da                       	cmpl	%ebx, %edx
100003964: 75 aa                       	jne	0x100003910 <_merging_optimzed+0x350>
100003966: 49 01 de                    	addq	%rbx, %r14
100003969: 41 39 c9                    	cmpl	%ecx, %r9d
10000396c: 0f 8f bd 02 00 00           	jg	0x100003c2f <_merging_optimzed+0x66f>
100003972: 4d 63 e6                    	movslq	%r14d, %r12
100003975: 4d 63 e9                    	movslq	%r9d, %r13
100003978: 41 89 ca                    	movl	%ecx, %r10d
10000397b: 45 29 ca                    	subl	%r9d, %r10d
10000397e: 41 83 fa 1f                 	cmpl	$31, %r10d
100003982: 0f 82 fe 01 00 00           	jb	0x100003b86 <_merging_optimzed+0x5c6>
100003988: 4c 8d 0d b1 86 00 00        	leaq	34481(%rip), %r9  # 10000c040 <_b>
10000398f: 4b 8d 04 a1                 	leaq	(%r9,%r12,4), %rax
100003993: 4b 8d 14 2a                 	leaq	(%r10,%r13), %rdx
100003997: 48 8d 14 97                 	leaq	(%rdi,%rdx,4), %rdx
10000399b: 48 83 c2 04                 	addq	$4, %rdx
10000399f: 48 39 d0                    	cmpq	%rdx, %rax
1000039a2: 73 19                       	jae	0x1000039bd <_merging_optimzed+0x3fd>
1000039a4: 4b 8d 04 14                 	leaq	(%r12,%r10), %rax
1000039a8: 49 8d 04 81                 	leaq	(%r9,%rax,4), %rax
1000039ac: 48 83 c0 04                 	addq	$4, %rax
1000039b0: 4a 8d 14 af                 	leaq	(%rdi,%r13,4), %rdx
1000039b4: 48 39 c2                    	cmpq	%rax, %rdx
1000039b7: 0f 82 c9 01 00 00           	jb	0x100003b86 <_merging_optimzed+0x5c6>
1000039bd: 49 ff c2                    	incq	%r10
1000039c0: 4d 89 d3                    	movq	%r10, %r11
1000039c3: 49 83 e3 e0                 	andq	$-32, %r11
1000039c7: 49 8d 43 e0                 	leaq	-32(%r11), %rax
1000039cb: 49 89 c7                    	movq	%rax, %r15
1000039ce: 49 c1 ef 05                 	shrq	$5, %r15
1000039d2: 49 ff c7                    	incq	%r15
1000039d5: 45 89 fe                    	movl	%r15d, %r14d
1000039d8: 41 83 e6 03                 	andl	$3, %r14d
1000039dc: 48 83 f8 60                 	cmpq	$96, %rax
1000039e0: 73 07                       	jae	0x1000039e9 <_merging_optimzed+0x429>
1000039e2: 31 db                       	xorl	%ebx, %ebx
1000039e4: e9 35 01 00 00              	jmp	0x100003b1e <_merging_optimzed+0x55e>
1000039e9: 4a 8d 04 af                 	leaq	(%rdi,%r13,4), %rax
1000039ed: 48 05 e0 01 00 00           	addq	$480, %rax
1000039f3: 4b 8d 14 a1                 	leaq	(%r9,%r12,4), %rdx
1000039f7: 48 81 c2 e0 01 00 00        	addq	$480, %rdx
1000039fe: 49 83 e7 fc                 	andq	$-4, %r15
100003a02: 49 f7 df                    	negq	%r15
100003a05: 31 db                       	xorl	%ebx, %ebx
100003a07: 66 0f 1f 84 00 00 00 00 00  	nopw	(%rax,%rax)
100003a10: c5 fc 10 84 98 20 fe ff ff  	vmovups	-480(%rax,%rbx,4), %ymm0
100003a19: c5 fc 10 8c 98 40 fe ff ff  	vmovups	-448(%rax,%rbx,4), %ymm1
100003a22: c5 fc 10 94 98 60 fe ff ff  	vmovups	-416(%rax,%rbx,4), %ymm2
100003a2b: c5 fc 10 9c 98 80 fe ff ff  	vmovups	-384(%rax,%rbx,4), %ymm3
100003a34: c5 fc 11 84 9a 20 fe ff ff  	vmovups	%ymm0, -480(%rdx,%rbx,4)
100003a3d: c5 fc 11 8c 9a 40 fe ff ff  	vmovups	%ymm1, -448(%rdx,%rbx,4)
100003a46: c5 fc 11 94 9a 60 fe ff ff  	vmovups	%ymm2, -416(%rdx,%rbx,4)
100003a4f: c5 fc 11 9c 9a 80 fe ff ff  	vmovups	%ymm3, -384(%rdx,%rbx,4)
100003a58: c5 fc 10 84 98 a0 fe ff ff  	vmovups	-352(%rax,%rbx,4), %ymm0
100003a61: c5 fc 10 8c 98 c0 fe ff ff  	vmovups	-320(%rax,%rbx,4), %ymm1
100003a6a: c5 fc 10 94 98 e0 fe ff ff  	vmovups	-288(%rax,%rbx,4), %ymm2
100003a73: c5 fc 10 9c 98 00 ff ff ff  	vmovups	-256(%rax,%rbx,4), %ymm3
100003a7c: c5 fc 11 84 9a a0 fe ff ff  	vmovups	%ymm0, -352(%rdx,%rbx,4)
100003a85: c5 fc 11 8c 9a c0 fe ff ff  	vmovups	%ymm1, -320(%rdx,%rbx,4)
100003a8e: c5 fc 11 94 9a e0 fe ff ff  	vmovups	%ymm2, -288(%rdx,%rbx,4)
100003a97: c5 fc 11 9c 9a 00 ff ff ff  	vmovups	%ymm3, -256(%rdx,%rbx,4)
100003aa0: c5 fc 10 84 98 20 ff ff ff  	vmovups	-224(%rax,%rbx,4), %ymm0
100003aa9: c5 fc 10 8c 98 40 ff ff ff  	vmovups	-192(%rax,%rbx,4), %ymm1
100003ab2: c5 fc 10 94 98 60 ff ff ff  	vmovups	-160(%rax,%rbx,4), %ymm2
100003abb: c5 fc 10 5c 98 80           	vmovups	-128(%rax,%rbx,4), %ymm3
100003ac1: c5 fc 11 84 9a 20 ff ff ff  	vmovups	%ymm0, -224(%rdx,%rbx,4)
100003aca: c5 fc 11 8c 9a 40 ff ff ff  	vmovups	%ymm1, -192(%rdx,%rbx,4)
100003ad3: c5 fc 11 94 9a 60 ff ff ff  	vmovups	%ymm2, -160(%rdx,%rbx,4)
100003adc: c5 fc 11 5c 9a 80           	vmovups	%ymm3, -128(%rdx,%rbx,4)
100003ae2: c5 fc 10 44 98 a0           	vmovups	-96(%rax,%rbx,4), %ymm0
100003ae8: c5 fc 10 4c 98 c0           	vmovups	-64(%rax,%rbx,4), %ymm1
100003aee: c5 fc 10 54 98 e0           	vmovups	-32(%rax,%rbx,4), %ymm2
100003af4: c5 fc 10 1c 98              	vmovups	(%rax,%rbx,4), %ymm3
100003af9: c5 fc 11 44 9a a0           	vmovups	%ymm0, -96(%rdx,%rbx,4)
100003aff: c5 fc 11 4c 9a c0           	vmovups	%ymm1, -64(%rdx,%rbx,4)
100003b05: c5 fc 11 54 9a e0           	vmovups	%ymm2, -32(%rdx,%rbx,4)
100003b0b: c5 fc 11 1c 9a              	vmovups	%ymm3, (%rdx,%rbx,4)
100003b10: 48 83 eb 80                 	subq	$-128, %rbx
100003b14: 49 83 c7 04                 	addq	$4, %r15
100003b18: 0f 85 f2 fe ff ff           	jne	0x100003a10 <_merging_optimzed+0x450>
100003b1e: 4d 85 f6                    	testq	%r14, %r14
100003b21: 74 54                       	je	0x100003b77 <_merging_optimzed+0x5b7>
100003b23: 4a 8d 04 23                 	leaq	(%rbx,%r12), %rax
100003b27: 49 8d 04 81                 	leaq	(%r9,%rax,4), %rax
100003b2b: 48 83 c0 60                 	addq	$96, %rax
100003b2f: 4c 01 eb                    	addq	%r13, %rbx
100003b32: 48 8d 14 9f                 	leaq	(%rdi,%rbx,4), %rdx
100003b36: 48 83 c2 60                 	addq	$96, %rdx
100003b3a: 49 c1 e6 07                 	shlq	$7, %r14
100003b3e: 31 db                       	xorl	%ebx, %ebx
100003b40: c5 fc 10 44 1a a0           	vmovups	-96(%rdx,%rbx), %ymm0
100003b46: c5 fc 10 4c 1a c0           	vmovups	-64(%rdx,%rbx), %ymm1
100003b4c: c5 fc 10 54 1a e0           	vmovups	-32(%rdx,%rbx), %ymm2
100003b52: c5 fc 10 1c 1a              	vmovups	(%rdx,%rbx), %ymm3
100003b57: c5 fc 11 44 18 a0           	vmovups	%ymm0, -96(%rax,%rbx)
100003b5d: c5 fc 11 4c 18 c0           	vmovups	%ymm1, -64(%rax,%rbx)
100003b63: c5 fc 11 54 18 e0           	vmovups	%ymm2, -32(%rax,%rbx)
100003b69: c5 fc 11 1c 18              	vmovups	%ymm3, (%rax,%rbx)
100003b6e: 48 83 eb 80                 	subq	$-128, %rbx
100003b72: 49 39 de                    	cmpq	%rbx, %r14
100003b75: 75 c9                       	jne	0x100003b40 <_merging_optimzed+0x580>
100003b77: 4d 39 da                    	cmpq	%r11, %r10
100003b7a: 0f 84 af 00 00 00           	je	0x100003c2f <_merging_optimzed+0x66f>
100003b80: 4d 01 dd                    	addq	%r11, %r13
100003b83: 4d 01 dc                    	addq	%r11, %r12
100003b86: 41 89 c9                    	movl	%ecx, %r9d
100003b89: 45 29 e9                    	subl	%r13d, %r9d
100003b8c: 41 8d 51 01                 	leal	1(%r9), %edx
100003b90: 83 e2 07                    	andl	$7, %edx
100003b93: 74 1d                       	je	0x100003bb2 <_merging_optimzed+0x5f2>
100003b95: 48 8d 1d a4 84 00 00        	leaq	33956(%rip), %rbx  # 10000c040 <_b>
100003b9c: 0f 1f 40 00                 	nopl	(%rax)
100003ba0: 42 8b 04 af                 	movl	(%rdi,%r13,4), %eax
100003ba4: 49 ff c5                    	incq	%r13
100003ba7: 42 89 04 a3                 	movl	%eax, (%rbx,%r12,4)
100003bab: 49 ff c4                    	incq	%r12
100003bae: ff ca                       	decl	%edx
100003bb0: 75 ee                       	jne	0x100003ba0 <_merging_optimzed+0x5e0>
100003bb2: 41 83 f9 07                 	cmpl	$7, %r9d
100003bb6: 72 77                       	jb	0x100003c2f <_merging_optimzed+0x66f>
100003bb8: 41 89 c9                    	movl	%ecx, %r9d
100003bbb: 45 29 e9                    	subl	%r13d, %r9d
100003bbe: 41 ff c1                    	incl	%r9d
100003bc1: 4e 8d 14 af                 	leaq	(%rdi,%r13,4), %r10
100003bc5: 49 83 c2 1c                 	addq	$28, %r10
100003bc9: 48 8d 05 70 84 00 00        	leaq	33904(%rip), %rax  # 10000c040 <_b>
100003bd0: 4a 8d 1c a0                 	leaq	(%rax,%r12,4), %rbx
100003bd4: 48 83 c3 1c                 	addq	$28, %rbx
100003bd8: 31 c0                       	xorl	%eax, %eax
100003bda: 66 0f 1f 44 00 00           	nopw	(%rax,%rax)
100003be0: 41 8b 54 82 e4              	movl	-28(%r10,%rax,4), %edx
100003be5: 89 54 83 e4                 	movl	%edx, -28(%rbx,%rax,4)
100003be9: 41 8b 54 82 e8              	movl	-24(%r10,%rax,4), %edx
100003bee: 89 54 83 e8                 	movl	%edx, -24(%rbx,%rax,4)
100003bf2: 41 8b 54 82 ec              	movl	-20(%r10,%rax,4), %edx
100003bf7: 89 54 83 ec                 	movl	%edx, -20(%rbx,%rax,4)
100003bfb: 41 8b 54 82 f0              	movl	-16(%r10,%rax,4), %edx
100003c00: 89 54 83 f0                 	movl	%edx, -16(%rbx,%rax,4)
100003c04: 41 8b 54 82 f4              	movl	-12(%r10,%rax,4), %edx
100003c09: 89 54 83 f4                 	movl	%edx, -12(%rbx,%rax,4)
100003c0d: 41 8b 54 82 f8              	movl	-8(%r10,%rax,4), %edx
100003c12: 89 54 83 f8                 	movl	%edx, -8(%rbx,%rax,4)
100003c16: 41 8b 54 82 fc              	movl	-4(%r10,%rax,4), %edx
100003c1b: 89 54 83 fc                 	movl	%edx, -4(%rbx,%rax,4)
100003c1f: 41 8b 14 82                 	movl	(%r10,%rax,4), %edx
100003c23: 89 14 83                    	movl	%edx, (%rbx,%rax,4)
100003c26: 48 83 c0 08                 	addq	$8, %rax
100003c2a: 41 39 c1                    	cmpl	%eax, %r9d
100003c2d: 75 b1                       	jne	0x100003be0 <_merging_optimzed+0x620>
100003c2f: 41 89 cb                    	movl	%ecx, %r11d
100003c32: 41 29 f3                    	subl	%esi, %r11d
100003c35: 0f 8c ac 02 00 00           	jl	0x100003ee7 <_merging_optimzed+0x927>
100003c3b: 41 83 fb 1f                 	cmpl	$31, %r11d
100003c3f: 0f 82 0e 02 00 00           	jb	0x100003e53 <_merging_optimzed+0x893>
100003c45: 4a 8d 34 87                 	leaq	(%rdi,%r8,4), %rsi
100003c49: 4b 8d 04 03                 	leaq	(%r11,%r8), %rax
100003c4d: 48 8d 15 ec 83 00 00        	leaq	33772(%rip), %rdx  # 10000c040 <_b>
100003c54: 48 8d 1c 82                 	leaq	(%rdx,%rax,4), %rbx
100003c58: 48 83 c3 04                 	addq	$4, %rbx
100003c5c: 48 39 de                    	cmpq	%rbx, %rsi
100003c5f: 73 15                       	jae	0x100003c76 <_merging_optimzed+0x6b6>
100003c61: 48 8d 04 87                 	leaq	(%rdi,%rax,4), %rax
100003c65: 48 83 c0 04                 	addq	$4, %rax
100003c69: 4a 8d 14 82                 	leaq	(%rdx,%r8,4), %rdx
100003c6d: 48 39 c2                    	cmpq	%rax, %rdx
100003c70: 0f 82 dd 01 00 00           	jb	0x100003e53 <_merging_optimzed+0x893>
100003c76: 49 ff c3                    	incq	%r11
100003c79: 4d 89 d9                    	movq	%r11, %r9
100003c7c: 49 83 e1 e0                 	andq	$-32, %r9
100003c80: 49 8d 41 e0                 	leaq	-32(%r9), %rax
100003c84: 48 89 c6                    	movq	%rax, %rsi
100003c87: 48 c1 ee 05                 	shrq	$5, %rsi
100003c8b: 48 ff c6                    	incq	%rsi
100003c8e: 41 89 f2                    	movl	%esi, %r10d
100003c91: 41 83 e2 03                 	andl	$3, %r10d
100003c95: 48 83 f8 60                 	cmpq	$96, %rax
100003c99: 73 07                       	jae	0x100003ca2 <_merging_optimzed+0x6e2>
100003c9b: 31 d2                       	xorl	%edx, %edx
100003c9d: e9 3c 01 00 00              	jmp	0x100003dde <_merging_optimzed+0x81e>
100003ca2: 4a 8d 1c 87                 	leaq	(%rdi,%r8,4), %rbx
100003ca6: 48 81 c3 e0 01 00 00        	addq	$480, %rbx
100003cad: 4a 8d 04 85 e0 01 00 00     	leaq	480(,%r8,4), %rax
100003cb5: 48 03 05 4c 43 00 00        	addq	17228(%rip), %rax  # 100008008 <dyld_stub_binder+0x100008008>
100003cbc: 48 83 e6 fc                 	andq	$-4, %rsi
100003cc0: 48 f7 de                    	negq	%rsi
100003cc3: 31 d2                       	xorl	%edx, %edx
100003cc5: 66 66 2e 0f 1f 84 00 00 00 00 00    	nopw	%cs:(%rax,%rax)
100003cd0: c5 fc 10 84 90 20 fe ff ff  	vmovups	-480(%rax,%rdx,4), %ymm0
100003cd9: c5 fc 10 8c 90 40 fe ff ff  	vmovups	-448(%rax,%rdx,4), %ymm1
100003ce2: c5 fc 10 94 90 60 fe ff ff  	vmovups	-416(%rax,%rdx,4), %ymm2
100003ceb: c5 fc 10 9c 90 80 fe ff ff  	vmovups	-384(%rax,%rdx,4), %ymm3
100003cf4: c5 fc 11 84 93 20 fe ff ff  	vmovups	%ymm0, -480(%rbx,%rdx,4)
100003cfd: c5 fc 11 8c 93 40 fe ff ff  	vmovups	%ymm1, -448(%rbx,%rdx,4)
100003d06: c5 fc 11 94 93 60 fe ff ff  	vmovups	%ymm2, -416(%rbx,%rdx,4)
100003d0f: c5 fc 11 9c 93 80 fe ff ff  	vmovups	%ymm3, -384(%rbx,%rdx,4)
100003d18: c5 fc 10 84 90 a0 fe ff ff  	vmovups	-352(%rax,%rdx,4), %ymm0
100003d21: c5 fc 10 8c 90 c0 fe ff ff  	vmovups	-320(%rax,%rdx,4), %ymm1
100003d2a: c5 fc 10 94 90 e0 fe ff ff  	vmovups	-288(%rax,%rdx,4), %ymm2
100003d33: c5 fc 10 9c 90 00 ff ff ff  	vmovups	-256(%rax,%rdx,4), %ymm3
100003d3c: c5 fc 11 84 93 a0 fe ff ff  	vmovups	%ymm0, -352(%rbx,%rdx,4)
100003d45: c5 fc 11 8c 93 c0 fe ff ff  	vmovups	%ymm1, -320(%rbx,%rdx,4)
100003d4e: c5 fc 11 94 93 e0 fe ff ff  	vmovups	%ymm2, -288(%rbx,%rdx,4)
100003d57: c5 fc 11 9c 93 00 ff ff ff  	vmovups	%ymm3, -256(%rbx,%rdx,4)
100003d60: c5 fc 10 84 90 20 ff ff ff  	vmovups	-224(%rax,%rdx,4), %ymm0
100003d69: c5 fc 10 8c 90 40 ff ff ff  	vmovups	-192(%rax,%rdx,4), %ymm1
100003d72: c5 fc 10 94 90 60 ff ff ff  	vmovups	-160(%rax,%rdx,4), %ymm2
100003d7b: c5 fc 10 5c 90 80           	vmovups	-128(%rax,%rdx,4), %ymm3
100003d81: c5 fc 11 84 93 20 ff ff ff  	vmovups	%ymm0, -224(%rbx,%rdx,4)
100003d8a: c5 fc 11 8c 93 40 ff ff ff  	vmovups	%ymm1, -192(%rbx,%rdx,4)
100003d93: c5 fc 11 94 93 60 ff ff ff  	vmovups	%ymm2, -160(%rbx,%rdx,4)
100003d9c: c5 fc 11 5c 93 80           	vmovups	%ymm3, -128(%rbx,%rdx,4)
100003da2: c5 fc 10 44 90 a0           	vmovups	-96(%rax,%rdx,4), %ymm0
100003da8: c5 fc 10 4c 90 c0           	vmovups	-64(%rax,%rdx,4), %ymm1
100003dae: c5 fc 10 54 90 e0           	vmovups	-32(%rax,%rdx,4), %ymm2
100003db4: c5 fc 10 1c 90              	vmovups	(%rax,%rdx,4), %ymm3
100003db9: c5 fc 11 44 93 a0           	vmovups	%ymm0, -96(%rbx,%rdx,4)
100003dbf: c5 fc 11 4c 93 c0           	vmovups	%ymm1, -64(%rbx,%rdx,4)
100003dc5: c5 fc 11 54 93 e0           	vmovups	%ymm2, -32(%rbx,%rdx,4)
100003dcb: c5 fc 11 1c 93              	vmovups	%ymm3, (%rbx,%rdx,4)
100003dd0: 48 83 ea 80                 	subq	$-128, %rdx
100003dd4: 48 83 c6 04                 	addq	$4, %rsi
100003dd8: 0f 85 f2 fe ff ff           	jne	0x100003cd0 <_merging_optimzed+0x710>
100003dde: 4d 85 d2                    	testq	%r10, %r10
100003de1: 74 64                       	je	0x100003e47 <_merging_optimzed+0x887>
100003de3: 4c 01 c2                    	addq	%r8, %rdx
100003de6: 48 8d 04 97                 	leaq	(%rdi,%rdx,4), %rax
100003dea: 48 83 c0 60                 	addq	$96, %rax
100003dee: 48 8d 14 95 60 00 00 00     	leaq	96(,%rdx,4), %rdx
100003df6: 48 03 15 0b 42 00 00        	addq	16907(%rip), %rdx  # 100008008 <dyld_stub_binder+0x100008008>
100003dfd: 49 c1 e2 07                 	shlq	$7, %r10
100003e01: 31 f6                       	xorl	%esi, %esi
100003e03: 66 66 66 66 2e 0f 1f 84 00 00 00 00 00      	nopw	%cs:(%rax,%rax)
100003e10: c5 fc 10 44 32 a0           	vmovups	-96(%rdx,%rsi), %ymm0
100003e16: c5 fc 10 4c 32 c0           	vmovups	-64(%rdx,%rsi), %ymm1
100003e1c: c5 fc 10 54 32 e0           	vmovups	-32(%rdx,%rsi), %ymm2
100003e22: c5 fc 10 1c 32              	vmovups	(%rdx,%rsi), %ymm3
100003e27: c5 fc 11 44 30 a0           	vmovups	%ymm0, -96(%rax,%rsi)
100003e2d: c5 fc 11 4c 30 c0           	vmovups	%ymm1, -64(%rax,%rsi)
100003e33: c5 fc 11 54 30 e0           	vmovups	%ymm2, -32(%rax,%rsi)
100003e39: c5 fc 11 1c 30              	vmovups	%ymm3, (%rax,%rsi)
100003e3e: 48 83 ee 80                 	subq	$-128, %rsi
100003e42: 49 39 f2                    	cmpq	%rsi, %r10
100003e45: 75 c9                       	jne	0x100003e10 <_merging_optimzed+0x850>
100003e47: 4d 39 cb                    	cmpq	%r9, %r11
100003e4a: 0f 84 97 00 00 00           	je	0x100003ee7 <_merging_optimzed+0x927>
100003e50: 4d 01 c8                    	addq	%r9, %r8
100003e53: 8d 41 01                    	leal	1(%rcx), %eax
100003e56: 89 c2                       	movl	%eax, %edx
100003e58: 44 29 c2                    	subl	%r8d, %edx
100003e5b: 44 29 c1                    	subl	%r8d, %ecx
100003e5e: 83 e2 07                    	andl	$7, %edx
100003e61: 74 1c                       	je	0x100003e7f <_merging_optimzed+0x8bf>
100003e63: 48 8d 35 d6 81 00 00        	leaq	33238(%rip), %rsi  # 10000c040 <_b>
100003e6a: 66 0f 1f 44 00 00           	nopw	(%rax,%rax)
100003e70: 42 8b 1c 86                 	movl	(%rsi,%r8,4), %ebx
100003e74: 42 89 1c 87                 	movl	%ebx, (%rdi,%r8,4)
100003e78: 49 ff c0                    	incq	%r8
100003e7b: ff ca                       	decl	%edx
100003e7d: 75 f1                       	jne	0x100003e70 <_merging_optimzed+0x8b0>
100003e7f: 83 f9 07                    	cmpl	$7, %ecx
100003e82: 72 63                       	jb	0x100003ee7 <_merging_optimzed+0x927>
100003e84: 89 c0                       	movl	%eax, %eax
100003e86: 48 8d 0d b3 81 00 00        	leaq	33203(%rip), %rcx  # 10000c040 <_b>
100003e8d: 0f 1f 00                    	nopl	(%rax)
100003e90: 42 8b 14 81                 	movl	(%rcx,%r8,4), %edx
100003e94: 42 89 14 87                 	movl	%edx, (%rdi,%r8,4)
100003e98: 42 8b 54 81 04              	movl	4(%rcx,%r8,4), %edx
100003e9d: 42 89 54 87 04              	movl	%edx, 4(%rdi,%r8,4)
100003ea2: 42 8b 54 81 08              	movl	8(%rcx,%r8,4), %edx
100003ea7: 42 89 54 87 08              	movl	%edx, 8(%rdi,%r8,4)
100003eac: 42 8b 54 81 0c              	movl	12(%rcx,%r8,4), %edx
100003eb1: 42 89 54 87 0c              	movl	%edx, 12(%rdi,%r8,4)
100003eb6: 42 8b 54 81 10              	movl	16(%rcx,%r8,4), %edx
100003ebb: 42 89 54 87 10              	movl	%edx, 16(%rdi,%r8,4)
100003ec0: 42 8b 54 81 14              	movl	20(%rcx,%r8,4), %edx
100003ec5: 42 89 54 87 14              	movl	%edx, 20(%rdi,%r8,4)
100003eca: 42 8b 54 81 18              	movl	24(%rcx,%r8,4), %edx
100003ecf: 42 89 54 87 18              	movl	%edx, 24(%rdi,%r8,4)
100003ed4: 42 8b 54 81 1c              	movl	28(%rcx,%r8,4), %edx
100003ed9: 42 89 54 87 1c              	movl	%edx, 28(%rdi,%r8,4)
100003ede: 49 83 c0 08                 	addq	$8, %r8
100003ee2: 44 39 c0                    	cmpl	%r8d, %eax
100003ee5: 75 a9                       	jne	0x100003e90 <_merging_optimzed+0x8d0>
100003ee7: 48 8b 05 12 41 00 00        	movq	16658(%rip), %rax  # 100008000 <dyld_stub_binder+0x100008000>
100003eee: 48 8b 00                    	movq	(%rax), %rax
100003ef1: 48 3b 45 d0                 	cmpq	-48(%rbp), %rax
100003ef5: 75 12                       	jne	0x100003f09 <_merging_optimzed+0x949>
100003ef7: 48 83 c4 18                 	addq	$24, %rsp
100003efb: 5b                          	popq	%rbx
100003efc: 41 5c                       	popq	%r12
100003efe: 41 5d                       	popq	%r13
100003f00: 41 5e                       	popq	%r14
100003f02: 41 5f                       	popq	%r15
100003f04: 5d                          	popq	%rbp
100003f05: c5 f8 77                    	vzeroupper
100003f08: c3                          	retq
100003f09: c5 f8 77                    	vzeroupper
100003f0c: e8 1d 3f 00 00              	callq	0x100007e2e <dyld_stub_binder+0x100007e2e>
100003f11: 66 66 66 66 66 66 2e 0f 1f 84 00 00 00 00 00	nopw	%cs:(%rax,%rax)

0000000100003f20 <_sort_merge_optimized>:
100003f20: 39 d6                       	cmpl	%edx, %esi
100003f22: 7d 4e                       	jge	0x100003f72 <_sort_merge_optimized+0x52>
100003f24: 55                          	pushq	%rbp
100003f25: 48 89 e5                    	movq	%rsp, %rbp
100003f28: 41 57                       	pushq	%r15
100003f2a: 41 56                       	pushq	%r14
100003f2c: 41 54                       	pushq	%r12
100003f2e: 53                          	pushq	%rbx
100003f2f: 41 89 d6                    	movl	%edx, %r14d
100003f32: 41 89 f4                    	movl	%esi, %r12d
100003f35: 49 89 ff                    	movq	%rdi, %r15
100003f38: 43 8d 04 26                 	leal	(%r14,%r12), %eax
100003f3c: 89 c3                       	movl	%eax, %ebx
100003f3e: c1 eb 1f                    	shrl	$31, %ebx
100003f41: 01 c3                       	addl	%eax, %ebx
100003f43: d1 fb                       	sarl	%ebx
100003f45: 89 da                       	movl	%ebx, %edx
100003f47: e8 d4 ff ff ff              	callq	0x100003f20 <_sort_merge_optimized>
100003f4c: 8d 73 01                    	leal	1(%rbx), %esi
100003f4f: 4c 89 ff                    	movq	%r15, %rdi
100003f52: 44 89 f2                    	movl	%r14d, %edx
100003f55: e8 c6 ff ff ff              	callq	0x100003f20 <_sort_merge_optimized>
100003f5a: 4c 89 ff                    	movq	%r15, %rdi
100003f5d: 44 89 e6                    	movl	%r12d, %esi
100003f60: 89 da                       	movl	%ebx, %edx
100003f62: 44 89 f1                    	movl	%r14d, %ecx
100003f65: 5b                          	popq	%rbx
100003f66: 41 5c                       	popq	%r12
100003f68: 41 5e                       	popq	%r14
100003f6a: 41 5f                       	popq	%r15
100003f6c: 5d                          	popq	%rbp
100003f6d: e9 4e f6 ff ff              	jmp	0x1000035c0 <_merging_optimzed>
100003f72: c3                          	retq
100003f73: 66 66 66 66 2e 0f 1f 84 00 00 00 00 00      	nopw	%cs:(%rax,%rax)

0000000100003f80 <_merging_standard>:
100003f80: 55                          	pushq	%rbp
100003f81: 48 89 e5                    	movq	%rsp, %rbp
100003f84: 41 57                       	pushq	%r15
100003f86: 41 56                       	pushq	%r14
100003f88: 41 55                       	pushq	%r13
100003f8a: 41 54                       	pushq	%r12
100003f8c: 53                          	pushq	%rbx
100003f8d: 44 8d 72 01                 	leal	1(%rdx), %r14d
100003f91: 39 d6                       	cmpl	%edx, %esi
100003f93: 7f 56                       	jg	0x100003feb <_merging_standard+0x6b>
100003f95: 39 ca                       	cmpl	%ecx, %edx
100003f97: 7d 52                       	jge	0x100003feb <_merging_standard+0x6b>
100003f99: 4c 63 ce                    	movslq	%esi, %r9
100003f9c: 49 c1 e1 02                 	shlq	$2, %r9
100003fa0: 4c 03 0d 61 40 00 00        	addq	16481(%rip), %r9  # 100008008 <dyld_stub_binder+0x100008008>
100003fa7: 41 89 f0                    	movl	%esi, %r8d
100003faa: 89 f3                       	movl	%esi, %ebx
100003fac: 0f 1f 40 00                 	nopl	(%rax)
100003fb0: 48 63 db                    	movslq	%ebx, %rbx
100003fb3: 44 8b 3c 9f                 	movl	(%rdi,%rbx,4), %r15d
100003fb7: 4d 63 f6                    	movslq	%r14d, %r14
100003fba: 46 8b 14 b7                 	movl	(%rdi,%r14,4), %r10d
100003fbe: 45 31 db                    	xorl	%r11d, %r11d
100003fc1: 31 c0                       	xorl	%eax, %eax
100003fc3: 45 39 d7                    	cmpl	%r10d, %r15d
100003fc6: 41 0f 9f c3                 	setg	%r11b
100003fca: 0f 9e c0                    	setle	%al
100003fcd: 45 0f 4f fa                 	cmovgl	%r10d, %r15d
100003fd1: 01 c3                       	addl	%eax, %ebx
100003fd3: 45 01 de                    	addl	%r11d, %r14d
100003fd6: 45 89 39                    	movl	%r15d, (%r9)
100003fd9: 41 ff c0                    	incl	%r8d
100003fdc: 39 d3                       	cmpl	%edx, %ebx
100003fde: 7f 10                       	jg	0x100003ff0 <_merging_standard+0x70>
100003fe0: 49 83 c1 04                 	addq	$4, %r9
100003fe4: 41 39 ce                    	cmpl	%ecx, %r14d
100003fe7: 7e c7                       	jle	0x100003fb0 <_merging_standard+0x30>
100003fe9: eb 05                       	jmp	0x100003ff0 <_merging_standard+0x70>
100003feb: 89 f3                       	movl	%esi, %ebx
100003fed: 41 89 f0                    	movl	%esi, %r8d
100003ff0: 39 d3                       	cmpl	%edx, %ebx
100003ff2: 0f 8f 11 03 00 00           	jg	0x100004309 <_merging_standard+0x389>
100003ff8: 4d 63 c0                    	movslq	%r8d, %r8
100003ffb: 4c 63 cb                    	movslq	%ebx, %r9
100003ffe: 41 89 d2                    	movl	%edx, %r10d
100004001: 41 29 da                    	subl	%ebx, %r10d
100004004: 41 83 fa 1f                 	cmpl	$31, %r10d
100004008: 0f 82 40 02 00 00           	jb	0x10000424e <_merging_standard+0x2ce>
10000400e: 4c 8d 1d 2b 80 00 00        	leaq	32811(%rip), %r11  # 10000c040 <_b>
100004015: 4b 8d 04 83                 	leaq	(%r11,%r8,4), %rax
100004019: 4b 8d 1c 11                 	leaq	(%r9,%r10), %rbx
10000401d: 48 8d 1c 9f                 	leaq	(%rdi,%rbx,4), %rbx
100004021: 48 83 c3 04                 	addq	$4, %rbx
100004025: 48 39 d8                    	cmpq	%rbx, %rax
100004028: 73 19                       	jae	0x100004043 <_merging_standard+0xc3>
10000402a: 4b 8d 04 10                 	leaq	(%r8,%r10), %rax
10000402e: 49 8d 04 83                 	leaq	(%r11,%rax,4), %rax
100004032: 48 83 c0 04                 	addq	$4, %rax
100004036: 4a 8d 1c 8f                 	leaq	(%rdi,%r9,4), %rbx
10000403a: 48 39 c3                    	cmpq	%rax, %rbx
10000403d: 0f 82 0b 02 00 00           	jb	0x10000424e <_merging_standard+0x2ce>
100004043: 49 ff c2                    	incq	%r10
100004046: 4c 89 d0                    	movq	%r10, %rax
100004049: 48 83 e0 e0                 	andq	$-32, %rax
10000404d: 48 89 45 d0                 	movq	%rax, -48(%rbp)
100004051: 48 83 c0 e0                 	addq	$-32, %rax
100004055: 49 89 c4                    	movq	%rax, %r12
100004058: 49 c1 ec 05                 	shrq	$5, %r12
10000405c: 49 ff c4                    	incq	%r12
10000405f: 45 89 e7                    	movl	%r12d, %r15d
100004062: 41 83 e7 03                 	andl	$3, %r15d
100004066: 48 83 f8 60                 	cmpq	$96, %rax
10000406a: 73 08                       	jae	0x100004074 <_merging_standard+0xf4>
10000406c: 45 31 db                    	xorl	%r11d, %r11d
10000406f: e9 5b 01 00 00              	jmp	0x1000041cf <_merging_standard+0x24f>
100004074: 4e 8d 2c 8f                 	leaq	(%rdi,%r9,4), %r13
100004078: 49 81 c5 e0 01 00 00        	addq	$480, %r13
10000407f: 48 8d 05 ba 7f 00 00        	leaq	32698(%rip), %rax  # 10000c040 <_b>
100004086: 4a 8d 04 80                 	leaq	(%rax,%r8,4), %rax
10000408a: 48 05 e0 01 00 00           	addq	$480, %rax
100004090: 49 83 e4 fc                 	andq	$-4, %r12
100004094: 49 f7 dc                    	negq	%r12
100004097: 45 31 db                    	xorl	%r11d, %r11d
10000409a: 66 0f 1f 44 00 00           	nopw	(%rax,%rax)
1000040a0: c4 81 7c 10 84 9d 20 fe ff ff       	vmovups	-480(%r13,%r11,4), %ymm0
1000040aa: c4 81 7c 10 8c 9d 40 fe ff ff       	vmovups	-448(%r13,%r11,4), %ymm1
1000040b4: c4 81 7c 10 94 9d 60 fe ff ff       	vmovups	-416(%r13,%r11,4), %ymm2
1000040be: c4 81 7c 10 9c 9d 80 fe ff ff       	vmovups	-384(%r13,%r11,4), %ymm3
1000040c8: c4 a1 7c 11 84 98 20 fe ff ff       	vmovups	%ymm0, -480(%rax,%r11,4)
1000040d2: c4 a1 7c 11 8c 98 40 fe ff ff       	vmovups	%ymm1, -448(%rax,%r11,4)
1000040dc: c4 a1 7c 11 94 98 60 fe ff ff       	vmovups	%ymm2, -416(%rax,%r11,4)
1000040e6: c4 a1 7c 11 9c 98 80 fe ff ff       	vmovups	%ymm3, -384(%rax,%r11,4)
1000040f0: c4 81 7c 10 84 9d a0 fe ff ff       	vmovups	-352(%r13,%r11,4), %ymm0
1000040fa: c4 81 7c 10 8c 9d c0 fe ff ff       	vmovups	-320(%r13,%r11,4), %ymm1
100004104: c4 81 7c 10 94 9d e0 fe ff ff       	vmovups	-288(%r13,%r11,4), %ymm2
10000410e: c4 81 7c 10 9c 9d 00 ff ff ff       	vmovups	-256(%r13,%r11,4), %ymm3
100004118: c4 a1 7c 11 84 98 a0 fe ff ff       	vmovups	%ymm0, -352(%rax,%r11,4)
100004122: c4 a1 7c 11 8c 98 c0 fe ff ff       	vmovups	%ymm1, -320(%rax,%r11,4)
10000412c: c4 a1 7c 11 94 98 e0 fe ff ff       	vmovups	%ymm2, -288(%rax,%r11,4)
100004136: c4 a1 7c 11 9c 98 00 ff ff ff       	vmovups	%ymm3, -256(%rax,%r11,4)
100004140: c4 81 7c 10 84 9d 20 ff ff ff       	vmovups	-224(%r13,%r11,4), %ymm0
10000414a: c4 81 7c 10 8c 9d 40 ff ff ff       	vmovups	-192(%r13,%r11,4), %ymm1
100004154: c4 81 7c 10 94 9d 60 ff ff ff       	vmovups	-160(%r13,%r11,4), %ymm2
10000415e: c4 81 7c 10 5c 9d 80        	vmovups	-128(%r13,%r11,4), %ymm3
100004165: c4 a1 7c 11 84 98 20 ff ff ff       	vmovups	%ymm0, -224(%rax,%r11,4)
10000416f: c4 a1 7c 11 8c 98 40 ff ff ff       	vmovups	%ymm1, -192(%rax,%r11,4)
100004179: c4 a1 7c 11 94 98 60 ff ff ff       	vmovups	%ymm2, -160(%rax,%r11,4)
100004183: c4 a1 7c 11 5c 98 80        	vmovups	%ymm3, -128(%rax,%r11,4)
10000418a: c4 81 7c 10 44 9d a0        	vmovups	-96(%r13,%r11,4), %ymm0
100004191: c4 81 7c 10 4c 9d c0        	vmovups	-64(%r13,%r11,4), %ymm1
100004198: c4 81 7c 10 54 9d e0        	vmovups	-32(%r13,%r11,4), %ymm2
10000419f: c4 81 7c 10 5c 9d 00        	vmovups	(%r13,%r11,4), %ymm3
1000041a6: c4 a1 7c 11 44 98 a0        	vmovups	%ymm0, -96(%rax,%r11,4)
1000041ad: c4 a1 7c 11 4c 98 c0        	vmovups	%ymm1, -64(%rax,%r11,4)
1000041b4: c4 a1 7c 11 54 98 e0        	vmovups	%ymm2, -32(%rax,%r11,4)
1000041bb: c4 a1 7c 11 1c 98           	vmovups	%ymm3, (%rax,%r11,4)
1000041c1: 49 83 eb 80                 	subq	$-128, %r11
1000041c5: 49 83 c4 04                 	addq	$4, %r12
1000041c9: 0f 85 d1 fe ff ff           	jne	0x1000040a0 <_merging_standard+0x120>
1000041cf: 4d 85 ff                    	testq	%r15, %r15
1000041d2: 74 67                       	je	0x10000423b <_merging_standard+0x2bb>
1000041d4: 4b 8d 04 03                 	leaq	(%r11,%r8), %rax
1000041d8: 48 8d 1d 61 7e 00 00        	leaq	32353(%rip), %rbx  # 10000c040 <_b>
1000041df: 4c 8d 24 83                 	leaq	(%rbx,%rax,4), %r12
1000041e3: 49 83 c4 60                 	addq	$96, %r12
1000041e7: 4d 01 cb                    	addq	%r9, %r11
1000041ea: 4a 8d 1c 9f                 	leaq	(%rdi,%r11,4), %rbx
1000041ee: 48 83 c3 60                 	addq	$96, %rbx
1000041f2: 49 c1 e7 07                 	shlq	$7, %r15
1000041f6: 31 c0                       	xorl	%eax, %eax
1000041f8: 0f 1f 84 00 00 00 00 00     	nopl	(%rax,%rax)
100004200: c5 fc 10 44 03 a0           	vmovups	-96(%rbx,%rax), %ymm0
100004206: c5 fc 10 4c 03 c0           	vmovups	-64(%rbx,%rax), %ymm1
10000420c: c5 fc 10 54 03 e0           	vmovups	-32(%rbx,%rax), %ymm2
100004212: c5 fc 10 1c 03              	vmovups	(%rbx,%rax), %ymm3
100004217: c4 c1 7c 11 44 04 a0        	vmovups	%ymm0, -96(%r12,%rax)
10000421e: c4 c1 7c 11 4c 04 c0        	vmovups	%ymm1, -64(%r12,%rax)
100004225: c4 c1 7c 11 54 04 e0        	vmovups	%ymm2, -32(%r12,%rax)
10000422c: c4 c1 7c 11 1c 04           	vmovups	%ymm3, (%r12,%rax)
100004232: 48 83 e8 80                 	subq	$-128, %rax
100004236: 49 39 c7                    	cmpq	%rax, %r15
100004239: 75 c5                       	jne	0x100004200 <_merging_standard+0x280>
10000423b: 48 8b 45 d0                 	movq	-48(%rbp), %rax
10000423f: 49 01 c0                    	addq	%rax, %r8
100004242: 49 39 c2                    	cmpq	%rax, %r10
100004245: 0f 84 be 00 00 00           	je	0x100004309 <_merging_standard+0x389>
10000424b: 49 01 c1                    	addq	%rax, %r9
10000424e: 41 89 d2                    	movl	%edx, %r10d
100004251: 45 29 ca                    	subl	%r9d, %r10d
100004254: 41 8d 5a 01                 	leal	1(%r10), %ebx
100004258: 83 e3 07                    	andl	$7, %ebx
10000425b: 74 25                       	je	0x100004282 <_merging_standard+0x302>
10000425d: 4c 8d 1d dc 7d 00 00        	leaq	32220(%rip), %r11  # 10000c040 <_b>
100004264: 66 66 66 2e 0f 1f 84 00 00 00 00 00 	nopw	%cs:(%rax,%rax)
100004270: 42 8b 04 8f                 	movl	(%rdi,%r9,4), %eax
100004274: 49 ff c1                    	incq	%r9
100004277: 43 89 04 83                 	movl	%eax, (%r11,%r8,4)
10000427b: 49 ff c0                    	incq	%r8
10000427e: ff cb                       	decl	%ebx
100004280: 75 ee                       	jne	0x100004270 <_merging_standard+0x2f0>
100004282: 41 83 fa 07                 	cmpl	$7, %r10d
100004286: 0f 82 7d 00 00 00           	jb	0x100004309 <_merging_standard+0x389>
10000428c: 44 29 ca                    	subl	%r9d, %edx
10000428f: ff c2                       	incl	%edx
100004291: 4e 8d 0c 8f                 	leaq	(%rdi,%r9,4), %r9
100004295: 49 83 c1 1c                 	addq	$28, %r9
100004299: 48 8d 05 a0 7d 00 00        	leaq	32160(%rip), %rax  # 10000c040 <_b>
1000042a0: 4e 8d 14 80                 	leaq	(%rax,%r8,4), %r10
1000042a4: 49 83 c2 1c                 	addq	$28, %r10
1000042a8: 31 db                       	xorl	%ebx, %ebx
1000042aa: 66 0f 1f 44 00 00           	nopw	(%rax,%rax)
1000042b0: 41 8b 44 99 e4              	movl	-28(%r9,%rbx,4), %eax
1000042b5: 41 89 44 9a e4              	movl	%eax, -28(%r10,%rbx,4)
1000042ba: 41 8b 44 99 e8              	movl	-24(%r9,%rbx,4), %eax
1000042bf: 41 89 44 9a e8              	movl	%eax, -24(%r10,%rbx,4)
1000042c4: 41 8b 44 99 ec              	movl	-20(%r9,%rbx,4), %eax
1000042c9: 41 89 44 9a ec              	movl	%eax, -20(%r10,%rbx,4)
1000042ce: 41 8b 44 99 f0              	movl	-16(%r9,%rbx,4), %eax
1000042d3: 41 89 44 9a f0              	movl	%eax, -16(%r10,%rbx,4)
1000042d8: 41 8b 44 99 f4              	movl	-12(%r9,%rbx,4), %eax
1000042dd: 41 89 44 9a f4              	movl	%eax, -12(%r10,%rbx,4)
1000042e2: 41 8b 44 99 f8              	movl	-8(%r9,%rbx,4), %eax
1000042e7: 41 89 44 9a f8              	movl	%eax, -8(%r10,%rbx,4)
1000042ec: 41 8b 44 99 fc              	movl	-4(%r9,%rbx,4), %eax
1000042f1: 41 89 44 9a fc              	movl	%eax, -4(%r10,%rbx,4)
1000042f6: 41 8b 04 99                 	movl	(%r9,%rbx,4), %eax
1000042fa: 41 89 04 9a                 	movl	%eax, (%r10,%rbx,4)
1000042fe: 48 83 c3 08                 	addq	$8, %rbx
100004302: 39 da                       	cmpl	%ebx, %edx
100004304: 75 aa                       	jne	0x1000042b0 <_merging_standard+0x330>
100004306: 49 01 d8                    	addq	%rbx, %r8
100004309: 41 39 ce                    	cmpl	%ecx, %r14d
10000430c: 0f 8f bd 02 00 00           	jg	0x1000045cf <_merging_standard+0x64f>
100004312: 4d 63 c0                    	movslq	%r8d, %r8
100004315: 4d 63 e6                    	movslq	%r14d, %r12
100004318: 41 89 c9                    	movl	%ecx, %r9d
10000431b: 45 29 f1                    	subl	%r14d, %r9d
10000431e: 41 83 f9 1f                 	cmpl	$31, %r9d
100004322: 0f 82 fe 01 00 00           	jb	0x100004526 <_merging_standard+0x5a6>
100004328: 4c 8d 15 11 7d 00 00        	leaq	32017(%rip), %r10  # 10000c040 <_b>
10000432f: 4b 8d 04 82                 	leaq	(%r10,%r8,4), %rax
100004333: 4b 8d 14 0c                 	leaq	(%r12,%r9), %rdx
100004337: 48 8d 14 97                 	leaq	(%rdi,%rdx,4), %rdx
10000433b: 48 83 c2 04                 	addq	$4, %rdx
10000433f: 48 39 d0                    	cmpq	%rdx, %rax
100004342: 73 19                       	jae	0x10000435d <_merging_standard+0x3dd>
100004344: 4b 8d 04 08                 	leaq	(%r8,%r9), %rax
100004348: 49 8d 04 82                 	leaq	(%r10,%rax,4), %rax
10000434c: 48 83 c0 04                 	addq	$4, %rax
100004350: 4a 8d 14 a7                 	leaq	(%rdi,%r12,4), %rdx
100004354: 48 39 c2                    	cmpq	%rax, %rdx
100004357: 0f 82 c9 01 00 00           	jb	0x100004526 <_merging_standard+0x5a6>
10000435d: 49 ff c1                    	incq	%r9
100004360: 4d 89 cb                    	movq	%r9, %r11
100004363: 49 83 e3 e0                 	andq	$-32, %r11
100004367: 49 8d 43 e0                 	leaq	-32(%r11), %rax
10000436b: 49 89 c7                    	movq	%rax, %r15
10000436e: 49 c1 ef 05                 	shrq	$5, %r15
100004372: 49 ff c7                    	incq	%r15
100004375: 45 89 fe                    	movl	%r15d, %r14d
100004378: 41 83 e6 03                 	andl	$3, %r14d
10000437c: 48 83 f8 60                 	cmpq	$96, %rax
100004380: 73 07                       	jae	0x100004389 <_merging_standard+0x409>
100004382: 31 c0                       	xorl	%eax, %eax
100004384: e9 35 01 00 00              	jmp	0x1000044be <_merging_standard+0x53e>
100004389: 4a 8d 1c a7                 	leaq	(%rdi,%r12,4), %rbx
10000438d: 48 81 c3 e0 01 00 00        	addq	$480, %rbx
100004394: 4b 8d 14 82                 	leaq	(%r10,%r8,4), %rdx
100004398: 48 81 c2 e0 01 00 00        	addq	$480, %rdx
10000439f: 49 83 e7 fc                 	andq	$-4, %r15
1000043a3: 49 f7 df                    	negq	%r15
1000043a6: 31 c0                       	xorl	%eax, %eax
1000043a8: 0f 1f 84 00 00 00 00 00     	nopl	(%rax,%rax)
1000043b0: c5 fc 10 84 83 20 fe ff ff  	vmovups	-480(%rbx,%rax,4), %ymm0
1000043b9: c5 fc 10 8c 83 40 fe ff ff  	vmovups	-448(%rbx,%rax,4), %ymm1
1000043c2: c5 fc 10 94 83 60 fe ff ff  	vmovups	-416(%rbx,%rax,4), %ymm2
1000043cb: c5 fc 10 9c 83 80 fe ff ff  	vmovups	-384(%rbx,%rax,4), %ymm3
1000043d4: c5 fc 11 84 82 20 fe ff ff  	vmovups	%ymm0, -480(%rdx,%rax,4)
1000043dd: c5 fc 11 8c 82 40 fe ff ff  	vmovups	%ymm1, -448(%rdx,%rax,4)
1000043e6: c5 fc 11 94 82 60 fe ff ff  	vmovups	%ymm2, -416(%rdx,%rax,4)
1000043ef: c5 fc 11 9c 82 80 fe ff ff  	vmovups	%ymm3, -384(%rdx,%rax,4)
1000043f8: c5 fc 10 84 83 a0 fe ff ff  	vmovups	-352(%rbx,%rax,4), %ymm0
100004401: c5 fc 10 8c 83 c0 fe ff ff  	vmovups	-320(%rbx,%rax,4), %ymm1
10000440a: c5 fc 10 94 83 e0 fe ff ff  	vmovups	-288(%rbx,%rax,4), %ymm2
100004413: c5 fc 10 9c 83 00 ff ff ff  	vmovups	-256(%rbx,%rax,4), %ymm3
10000441c: c5 fc 11 84 82 a0 fe ff ff  	vmovups	%ymm0, -352(%rdx,%rax,4)
100004425: c5 fc 11 8c 82 c0 fe ff ff  	vmovups	%ymm1, -320(%rdx,%rax,4)
10000442e: c5 fc 11 94 82 e0 fe ff ff  	vmovups	%ymm2, -288(%rdx,%rax,4)
100004437: c5 fc 11 9c 82 00 ff ff ff  	vmovups	%ymm3, -256(%rdx,%rax,4)
100004440: c5 fc 10 84 83 20 ff ff ff  	vmovups	-224(%rbx,%rax,4), %ymm0
100004449: c5 fc 10 8c 83 40 ff ff ff  	vmovups	-192(%rbx,%rax,4), %ymm1
100004452: c5 fc 10 94 83 60 ff ff ff  	vmovups	-160(%rbx,%rax,4), %ymm2
10000445b: c5 fc 10 5c 83 80           	vmovups	-128(%rbx,%rax,4), %ymm3
100004461: c5 fc 11 84 82 20 ff ff ff  	vmovups	%ymm0, -224(%rdx,%rax,4)
10000446a: c5 fc 11 8c 82 40 ff ff ff  	vmovups	%ymm1, -192(%rdx,%rax,4)
100004473: c5 fc 11 94 82 60 ff ff ff  	vmovups	%ymm2, -160(%rdx,%rax,4)
10000447c: c5 fc 11 5c 82 80           	vmovups	%ymm3, -128(%rdx,%rax,4)
100004482: c5 fc 10 44 83 a0           	vmovups	-96(%rbx,%rax,4), %ymm0
100004488: c5 fc 10 4c 83 c0           	vmovups	-64(%rbx,%rax,4), %ymm1
10000448e: c5 fc 10 54 83 e0           	vmovups	-32(%rbx,%rax,4), %ymm2
100004494: c5 fc 10 1c 83              	vmovups	(%rbx,%rax,4), %ymm3
100004499: c5 fc 11 44 82 a0           	vmovups	%ymm0, -96(%rdx,%rax,4)
10000449f: c5 fc 11 4c 82 c0           	vmovups	%ymm1, -64(%rdx,%rax,4)
1000044a5: c5 fc 11 54 82 e0           	vmovups	%ymm2, -32(%rdx,%rax,4)
1000044ab: c5 fc 11 1c 82              	vmovups	%ymm3, (%rdx,%rax,4)
1000044b0: 48 83 e8 80                 	subq	$-128, %rax
1000044b4: 49 83 c7 04                 	addq	$4, %r15
1000044b8: 0f 85 f2 fe ff ff           	jne	0x1000043b0 <_merging_standard+0x430>
1000044be: 4d 85 f6                    	testq	%r14, %r14
1000044c1: 74 54                       	je	0x100004517 <_merging_standard+0x597>
1000044c3: 4a 8d 14 00                 	leaq	(%rax,%r8), %rdx
1000044c7: 49 8d 14 92                 	leaq	(%r10,%rdx,4), %rdx
1000044cb: 48 83 c2 60                 	addq	$96, %rdx
1000044cf: 4c 01 e0                    	addq	%r12, %rax
1000044d2: 48 8d 04 87                 	leaq	(%rdi,%rax,4), %rax
1000044d6: 48 83 c0 60                 	addq	$96, %rax
1000044da: 49 c1 e6 07                 	shlq	$7, %r14
1000044de: 31 db                       	xorl	%ebx, %ebx
1000044e0: c5 fc 10 44 18 a0           	vmovups	-96(%rax,%rbx), %ymm0
1000044e6: c5 fc 10 4c 18 c0           	vmovups	-64(%rax,%rbx), %ymm1
1000044ec: c5 fc 10 54 18 e0           	vmovups	-32(%rax,%rbx), %ymm2
1000044f2: c5 fc 10 1c 18              	vmovups	(%rax,%rbx), %ymm3
1000044f7: c5 fc 11 44 1a a0           	vmovups	%ymm0, -96(%rdx,%rbx)
1000044fd: c5 fc 11 4c 1a c0           	vmovups	%ymm1, -64(%rdx,%rbx)
100004503: c5 fc 11 54 1a e0           	vmovups	%ymm2, -32(%rdx,%rbx)
100004509: c5 fc 11 1c 1a              	vmovups	%ymm3, (%rdx,%rbx)
10000450e: 48 83 eb 80                 	subq	$-128, %rbx
100004512: 49 39 de                    	cmpq	%rbx, %r14
100004515: 75 c9                       	jne	0x1000044e0 <_merging_standard+0x560>
100004517: 4d 39 d9                    	cmpq	%r11, %r9
10000451a: 0f 84 af 00 00 00           	je	0x1000045cf <_merging_standard+0x64f>
100004520: 4d 01 dc                    	addq	%r11, %r12
100004523: 4d 01 d8                    	addq	%r11, %r8
100004526: 41 89 c9                    	movl	%ecx, %r9d
100004529: 45 29 e1                    	subl	%r12d, %r9d
10000452c: 41 8d 51 01                 	leal	1(%r9), %edx
100004530: 83 e2 07                    	andl	$7, %edx
100004533: 74 1d                       	je	0x100004552 <_merging_standard+0x5d2>
100004535: 48 8d 1d 04 7b 00 00        	leaq	31492(%rip), %rbx  # 10000c040 <_b>
10000453c: 0f 1f 40 00                 	nopl	(%rax)
100004540: 42 8b 04 a7                 	movl	(%rdi,%r12,4), %eax
100004544: 49 ff c4                    	incq	%r12
100004547: 42 89 04 83                 	movl	%eax, (%rbx,%r8,4)
10000454b: 49 ff c0                    	incq	%r8
10000454e: ff ca                       	decl	%edx
100004550: 75 ee                       	jne	0x100004540 <_merging_standard+0x5c0>
100004552: 41 83 f9 07                 	cmpl	$7, %r9d
100004556: 72 77                       	jb	0x1000045cf <_merging_standard+0x64f>
100004558: 41 89 c9                    	movl	%ecx, %r9d
10000455b: 45 29 e1                    	subl	%r12d, %r9d
10000455e: 41 ff c1                    	incl	%r9d
100004561: 4e 8d 14 a7                 	leaq	(%rdi,%r12,4), %r10
100004565: 49 83 c2 1c                 	addq	$28, %r10
100004569: 48 8d 05 d0 7a 00 00        	leaq	31440(%rip), %rax  # 10000c040 <_b>
100004570: 4a 8d 1c 80                 	leaq	(%rax,%r8,4), %rbx
100004574: 48 83 c3 1c                 	addq	$28, %rbx
100004578: 31 c0                       	xorl	%eax, %eax
10000457a: 66 0f 1f 44 00 00           	nopw	(%rax,%rax)
100004580: 41 8b 54 82 e4              	movl	-28(%r10,%rax,4), %edx
100004585: 89 54 83 e4                 	movl	%edx, -28(%rbx,%rax,4)
100004589: 41 8b 54 82 e8              	movl	-24(%r10,%rax,4), %edx
10000458e: 89 54 83 e8                 	movl	%edx, -24(%rbx,%rax,4)
100004592: 41 8b 54 82 ec              	movl	-20(%r10,%rax,4), %edx
100004597: 89 54 83 ec                 	movl	%edx, -20(%rbx,%rax,4)
10000459b: 41 8b 54 82 f0              	movl	-16(%r10,%rax,4), %edx
1000045a0: 89 54 83 f0                 	movl	%edx, -16(%rbx,%rax,4)
1000045a4: 41 8b 54 82 f4              	movl	-12(%r10,%rax,4), %edx
1000045a9: 89 54 83 f4                 	movl	%edx, -12(%rbx,%rax,4)
1000045ad: 41 8b 54 82 f8              	movl	-8(%r10,%rax,4), %edx
1000045b2: 89 54 83 f8                 	movl	%edx, -8(%rbx,%rax,4)
1000045b6: 41 8b 54 82 fc              	movl	-4(%r10,%rax,4), %edx
1000045bb: 89 54 83 fc                 	movl	%edx, -4(%rbx,%rax,4)
1000045bf: 41 8b 14 82                 	movl	(%r10,%rax,4), %edx
1000045c3: 89 14 83                    	movl	%edx, (%rbx,%rax,4)
1000045c6: 48 83 c0 08                 	addq	$8, %rax
1000045ca: 41 39 c1                    	cmpl	%eax, %r9d
1000045cd: 75 b1                       	jne	0x100004580 <_merging_standard+0x600>
1000045cf: 41 89 ca                    	movl	%ecx, %r10d
1000045d2: 41 29 f2                    	subl	%esi, %r10d
1000045d5: 0f 8c 9b 02 00 00           	jl	0x100004876 <_merging_standard+0x8f6>
1000045db: 48 63 c6                    	movslq	%esi, %rax
1000045de: 41 83 fa 1f                 	cmpl	$31, %r10d
1000045e2: 0f 82 0b 02 00 00           	jb	0x1000047f3 <_merging_standard+0x873>
1000045e8: 48 8d 1c 87                 	leaq	(%rdi,%rax,4), %rbx
1000045ec: 49 8d 14 02                 	leaq	(%r10,%rax), %rdx
1000045f0: 4c 8d 05 49 7a 00 00        	leaq	31305(%rip), %r8  # 10000c040 <_b>
1000045f7: 49 8d 34 90                 	leaq	(%r8,%rdx,4), %rsi
1000045fb: 48 83 c6 04                 	addq	$4, %rsi
1000045ff: 48 39 f3                    	cmpq	%rsi, %rbx
100004602: 73 15                       	jae	0x100004619 <_merging_standard+0x699>
100004604: 48 8d 14 97                 	leaq	(%rdi,%rdx,4), %rdx
100004608: 48 83 c2 04                 	addq	$4, %rdx
10000460c: 49 8d 34 80                 	leaq	(%r8,%rax,4), %rsi
100004610: 48 39 d6                    	cmpq	%rdx, %rsi
100004613: 0f 82 da 01 00 00           	jb	0x1000047f3 <_merging_standard+0x873>
100004619: 49 ff c2                    	incq	%r10
10000461c: 4d 89 d0                    	movq	%r10, %r8
10000461f: 49 83 e0 e0                 	andq	$-32, %r8
100004623: 49 8d 50 e0                 	leaq	-32(%r8), %rdx
100004627: 49 89 d3                    	movq	%rdx, %r11
10000462a: 49 c1 eb 05                 	shrq	$5, %r11
10000462e: 49 ff c3                    	incq	%r11
100004631: 45 89 d9                    	movl	%r11d, %r9d
100004634: 41 83 e1 03                 	andl	$3, %r9d
100004638: 48 83 fa 60                 	cmpq	$96, %rdx
10000463c: 73 07                       	jae	0x100004645 <_merging_standard+0x6c5>
10000463e: 31 db                       	xorl	%ebx, %ebx
100004640: e9 39 01 00 00              	jmp	0x10000477e <_merging_standard+0x7fe>
100004645: 48 8d 14 87                 	leaq	(%rdi,%rax,4), %rdx
100004649: 48 81 c2 e0 01 00 00        	addq	$480, %rdx
100004650: 48 8d 34 85 e0 01 00 00     	leaq	480(,%rax,4), %rsi
100004658: 48 03 35 a9 39 00 00        	addq	14761(%rip), %rsi  # 100008008 <dyld_stub_binder+0x100008008>
10000465f: 49 83 e3 fc                 	andq	$-4, %r11
100004663: 49 f7 db                    	negq	%r11
100004666: 31 db                       	xorl	%ebx, %ebx
100004668: 0f 1f 84 00 00 00 00 00     	nopl	(%rax,%rax)
100004670: c5 fc 10 84 9e 20 fe ff ff  	vmovups	-480(%rsi,%rbx,4), %ymm0
100004679: c5 fc 10 8c 9e 40 fe ff ff  	vmovups	-448(%rsi,%rbx,4), %ymm1
100004682: c5 fc 10 94 9e 60 fe ff ff  	vmovups	-416(%rsi,%rbx,4), %ymm2
10000468b: c5 fc 10 9c 9e 80 fe ff ff  	vmovups	-384(%rsi,%rbx,4), %ymm3
100004694: c5 fc 11 84 9a 20 fe ff ff  	vmovups	%ymm0, -480(%rdx,%rbx,4)
10000469d: c5 fc 11 8c 9a 40 fe ff ff  	vmovups	%ymm1, -448(%rdx,%rbx,4)
1000046a6: c5 fc 11 94 9a 60 fe ff ff  	vmovups	%ymm2, -416(%rdx,%rbx,4)
1000046af: c5 fc 11 9c 9a 80 fe ff ff  	vmovups	%ymm3, -384(%rdx,%rbx,4)
1000046b8: c5 fc 10 84 9e a0 fe ff ff  	vmovups	-352(%rsi,%rbx,4), %ymm0
1000046c1: c5 fc 10 8c 9e c0 fe ff ff  	vmovups	-320(%rsi,%rbx,4), %ymm1
1000046ca: c5 fc 10 94 9e e0 fe ff ff  	vmovups	-288(%rsi,%rbx,4), %ymm2
1000046d3: c5 fc 10 9c 9e 00 ff ff ff  	vmovups	-256(%rsi,%rbx,4), %ymm3
1000046dc: c5 fc 11 84 9a a0 fe ff ff  	vmovups	%ymm0, -352(%rdx,%rbx,4)
1000046e5: c5 fc 11 8c 9a c0 fe ff ff  	vmovups	%ymm1, -320(%rdx,%rbx,4)
1000046ee: c5 fc 11 94 9a e0 fe ff ff  	vmovups	%ymm2, -288(%rdx,%rbx,4)
1000046f7: c5 fc 11 9c 9a 00 ff ff ff  	vmovups	%ymm3, -256(%rdx,%rbx,4)
100004700: c5 fc 10 84 9e 20 ff ff ff  	vmovups	-224(%rsi,%rbx,4), %ymm0
100004709: c5 fc 10 8c 9e 40 ff ff ff  	vmovups	-192(%rsi,%rbx,4), %ymm1
100004712: c5 fc 10 94 9e 60 ff ff ff  	vmovups	-160(%rsi,%rbx,4), %ymm2
10000471b: c5 fc 10 5c 9e 80           	vmovups	-128(%rsi,%rbx,4), %ymm3
100004721: c5 fc 11 84 9a 20 ff ff ff  	vmovups	%ymm0, -224(%rdx,%rbx,4)
10000472a: c5 fc 11 8c 9a 40 ff ff ff  	vmovups	%ymm1, -192(%rdx,%rbx,4)
100004733: c5 fc 11 94 9a 60 ff ff ff  	vmovups	%ymm2, -160(%rdx,%rbx,4)
10000473c: c5 fc 11 5c 9a 80           	vmovups	%ymm3, -128(%rdx,%rbx,4)
100004742: c5 fc 10 44 9e a0           	vmovups	-96(%rsi,%rbx,4), %ymm0
100004748: c5 fc 10 4c 9e c0           	vmovups	-64(%rsi,%rbx,4), %ymm1
10000474e: c5 fc 10 54 9e e0           	vmovups	-32(%rsi,%rbx,4), %ymm2
100004754: c5 fc 10 1c 9e              	vmovups	(%rsi,%rbx,4), %ymm3
100004759: c5 fc 11 44 9a a0           	vmovups	%ymm0, -96(%rdx,%rbx,4)
10000475f: c5 fc 11 4c 9a c0           	vmovups	%ymm1, -64(%rdx,%rbx,4)
100004765: c5 fc 11 54 9a e0           	vmovups	%ymm2, -32(%rdx,%rbx,4)
10000476b: c5 fc 11 1c 9a              	vmovups	%ymm3, (%rdx,%rbx,4)
100004770: 48 83 eb 80                 	subq	$-128, %rbx
100004774: 49 83 c3 04                 	addq	$4, %r11
100004778: 0f 85 f2 fe ff ff           	jne	0x100004670 <_merging_standard+0x6f0>
10000477e: 4d 85 c9                    	testq	%r9, %r9
100004781: 74 64                       	je	0x1000047e7 <_merging_standard+0x867>
100004783: 48 01 c3                    	addq	%rax, %rbx
100004786: 48 8d 14 9f                 	leaq	(%rdi,%rbx,4), %rdx
10000478a: 48 83 c2 60                 	addq	$96, %rdx
10000478e: 48 8d 34 9d 60 00 00 00     	leaq	96(,%rbx,4), %rsi
100004796: 48 03 35 6b 38 00 00        	addq	14443(%rip), %rsi  # 100008008 <dyld_stub_binder+0x100008008>
10000479d: 49 c1 e1 07                 	shlq	$7, %r9
1000047a1: 31 db                       	xorl	%ebx, %ebx
1000047a3: 66 66 66 66 2e 0f 1f 84 00 00 00 00 00      	nopw	%cs:(%rax,%rax)
1000047b0: c5 fc 10 44 1e a0           	vmovups	-96(%rsi,%rbx), %ymm0
1000047b6: c5 fc 10 4c 1e c0           	vmovups	-64(%rsi,%rbx), %ymm1
1000047bc: c5 fc 10 54 1e e0           	vmovups	-32(%rsi,%rbx), %ymm2
1000047c2: c5 fc 10 1c 1e              	vmovups	(%rsi,%rbx), %ymm3
1000047c7: c5 fc 11 44 1a a0           	vmovups	%ymm0, -96(%rdx,%rbx)
1000047cd: c5 fc 11 4c 1a c0           	vmovups	%ymm1, -64(%rdx,%rbx)
1000047d3: c5 fc 11 54 1a e0           	vmovups	%ymm2, -32(%rdx,%rbx)
1000047d9: c5 fc 11 1c 1a              	vmovups	%ymm3, (%rdx,%rbx)
1000047de: 48 83 eb 80                 	subq	$-128, %rbx
1000047e2: 49 39 d9                    	cmpq	%rbx, %r9
1000047e5: 75 c9                       	jne	0x1000047b0 <_merging_standard+0x830>
1000047e7: 4d 39 c2                    	cmpq	%r8, %r10
1000047ea: 0f 84 86 00 00 00           	je	0x100004876 <_merging_standard+0x8f6>
1000047f0: 4c 01 c0                    	addq	%r8, %rax
1000047f3: 44 8d 41 01                 	leal	1(%rcx), %r8d
1000047f7: 44 89 c6                    	movl	%r8d, %esi
1000047fa: 29 c6                       	subl	%eax, %esi
1000047fc: 29 c1                       	subl	%eax, %ecx
1000047fe: 83 e6 07                    	andl	$7, %esi
100004801: 74 1a                       	je	0x10000481d <_merging_standard+0x89d>
100004803: 48 8d 1d 36 78 00 00        	leaq	30774(%rip), %rbx  # 10000c040 <_b>
10000480a: 66 0f 1f 44 00 00           	nopw	(%rax,%rax)
100004810: 8b 14 83                    	movl	(%rbx,%rax,4), %edx
100004813: 89 14 87                    	movl	%edx, (%rdi,%rax,4)
100004816: 48 ff c0                    	incq	%rax
100004819: ff ce                       	decl	%esi
10000481b: 75 f3                       	jne	0x100004810 <_merging_standard+0x890>
10000481d: 83 f9 07                    	cmpl	$7, %ecx
100004820: 72 54                       	jb	0x100004876 <_merging_standard+0x8f6>
100004822: 44 89 c1                    	movl	%r8d, %ecx
100004825: 48 8d 15 14 78 00 00        	leaq	30740(%rip), %rdx  # 10000c040 <_b>
10000482c: 0f 1f 40 00                 	nopl	(%rax)
100004830: 8b 34 82                    	movl	(%rdx,%rax,4), %esi
100004833: 89 34 87                    	movl	%esi, (%rdi,%rax,4)
100004836: 8b 74 82 04                 	movl	4(%rdx,%rax,4), %esi
10000483a: 89 74 87 04                 	movl	%esi, 4(%rdi,%rax,4)
10000483e: 8b 74 82 08                 	movl	8(%rdx,%rax,4), %esi
100004842: 89 74 87 08                 	movl	%esi, 8(%rdi,%rax,4)
100004846: 8b 74 82 0c                 	movl	12(%rdx,%rax,4), %esi
10000484a: 89 74 87 0c                 	movl	%esi, 12(%rdi,%rax,4)
10000484e: 8b 74 82 10                 	movl	16(%rdx,%rax,4), %esi
100004852: 89 74 87 10                 	movl	%esi, 16(%rdi,%rax,4)
100004856: 8b 74 82 14                 	movl	20(%rdx,%rax,4), %esi
10000485a: 89 74 87 14                 	movl	%esi, 20(%rdi,%rax,4)
10000485e: 8b 74 82 18                 	movl	24(%rdx,%rax,4), %esi
100004862: 89 74 87 18                 	movl	%esi, 24(%rdi,%rax,4)
100004866: 8b 74 82 1c                 	movl	28(%rdx,%rax,4), %esi
10000486a: 89 74 87 1c                 	movl	%esi, 28(%rdi,%rax,4)
10000486e: 48 83 c0 08                 	addq	$8, %rax
100004872: 39 c1                       	cmpl	%eax, %ecx
100004874: 75 ba                       	jne	0x100004830 <_merging_standard+0x8b0>
100004876: 5b                          	popq	%rbx
100004877: 41 5c                       	popq	%r12
100004879: 41 5d                       	popq	%r13
10000487b: 41 5e                       	popq	%r14
10000487d: 41 5f                       	popq	%r15
10000487f: 5d                          	popq	%rbp
100004880: c5 f8 77                    	vzeroupper
100004883: c3                          	retq
100004884: 66 66 66 2e 0f 1f 84 00 00 00 00 00 	nopw	%cs:(%rax,%rax)

0000000100004890 <_sort_merge_standard>:
100004890: 55                          	pushq	%rbp
100004891: 48 89 e5                    	movq	%rsp, %rbp
100004894: 41 57                       	pushq	%r15
100004896: 41 56                       	pushq	%r14
100004898: 41 55                       	pushq	%r13
10000489a: 41 54                       	pushq	%r12
10000489c: 53                          	pushq	%rbx
10000489d: 50                          	pushq	%rax
10000489e: 39 f2                       	cmpl	%esi, %edx
1000048a0: 0f 8e 08 09 00 00           	jle	0x1000051ae <_sort_merge_standard+0x91e>
1000048a6: 41 89 d7                    	movl	%edx, %r15d
1000048a9: 89 f3                       	movl	%esi, %ebx
1000048ab: 49 89 fc                    	movq	%rdi, %r12
1000048ae: 41 8d 04 1f                 	leal	(%r15,%rbx), %eax
1000048b2: 41 89 c5                    	movl	%eax, %r13d
1000048b5: 41 c1 ed 1f                 	shrl	$31, %r13d
1000048b9: 41 01 c5                    	addl	%eax, %r13d
1000048bc: 41 d1 fd                    	sarl	%r13d
1000048bf: 44 89 ea                    	movl	%r13d, %edx
1000048c2: e8 c9 ff ff ff              	callq	0x100004890 <_sort_merge_standard>
1000048c7: 45 8d 75 01                 	leal	1(%r13), %r14d
1000048cb: 4c 89 e7                    	movq	%r12, %rdi
1000048ce: 44 89 f6                    	movl	%r14d, %esi
1000048d1: 44 89 fa                    	movl	%r15d, %edx
1000048d4: e8 b7 ff ff ff              	callq	0x100004890 <_sort_merge_standard>
1000048d9: 41 39 dd                    	cmpl	%ebx, %r13d
1000048dc: 48 89 5d d0                 	movq	%rbx, -48(%rbp)
1000048e0: 7c 59                       	jl	0x10000493b <_sort_merge_standard+0xab>
1000048e2: 45 39 fd                    	cmpl	%r15d, %r13d
1000048e5: 4d 89 fa                    	movq	%r15, %r10
1000048e8: 7d 4d                       	jge	0x100004937 <_sort_merge_standard+0xa7>
1000048ea: 48 63 d3                    	movslq	%ebx, %rdx
1000048ed: 48 c1 e2 02                 	shlq	$2, %rdx
1000048f1: 48 03 15 10 37 00 00        	addq	14096(%rip), %rdx  # 100008008 <dyld_stub_binder+0x100008008>
1000048f8: 41 89 df                    	movl	%ebx, %r15d
1000048fb: 89 d9                       	movl	%ebx, %ecx
1000048fd: 0f 1f 00                    	nopl	(%rax)
100004900: 48 63 c9                    	movslq	%ecx, %rcx
100004903: 41 8b 34 8c                 	movl	(%r12,%rcx,4), %esi
100004907: 4d 63 f6                    	movslq	%r14d, %r14
10000490a: 43 8b 3c b4                 	movl	(%r12,%r14,4), %edi
10000490e: 31 c0                       	xorl	%eax, %eax
100004910: 31 db                       	xorl	%ebx, %ebx
100004912: 39 fe                       	cmpl	%edi, %esi
100004914: 0f 9f c0                    	setg	%al
100004917: 0f 9e c3                    	setle	%bl
10000491a: 0f 4f f7                    	cmovgl	%edi, %esi
10000491d: 01 d9                       	addl	%ebx, %ecx
10000491f: 41 01 c6                    	addl	%eax, %r14d
100004922: 89 32                       	movl	%esi, (%rdx)
100004924: 41 ff c7                    	incl	%r15d
100004927: 44 39 e9                    	cmpl	%r13d, %ecx
10000492a: 7f 17                       	jg	0x100004943 <_sort_merge_standard+0xb3>
10000492c: 48 83 c2 04                 	addq	$4, %rdx
100004930: 45 39 d6                    	cmpl	%r10d, %r14d
100004933: 7e cb                       	jle	0x100004900 <_sort_merge_standard+0x70>
100004935: eb 0c                       	jmp	0x100004943 <_sort_merge_standard+0xb3>
100004937: 89 d9                       	movl	%ebx, %ecx
100004939: eb 05                       	jmp	0x100004940 <_sort_merge_standard+0xb0>
10000493b: 89 d9                       	movl	%ebx, %ecx
10000493d: 4d 89 fa                    	movq	%r15, %r10
100004940: 41 89 df                    	movl	%ebx, %r15d
100004943: 45 89 eb                    	movl	%r13d, %r11d
100004946: 41 29 cb                    	subl	%ecx, %r11d
100004949: 0f 8c db 02 00 00           	jl	0x100004c2a <_sort_merge_standard+0x39a>
10000494f: 4d 63 ff                    	movslq	%r15d, %r15
100004952: 48 63 c9                    	movslq	%ecx, %rcx
100004955: 41 83 fb 1f                 	cmpl	$31, %r11d
100004959: 0f 82 1e 02 00 00           	jb	0x100004b7d <_sort_merge_standard+0x2ed>
10000495f: 48 8d 1d da 76 00 00        	leaq	30426(%rip), %rbx  # 10000c040 <_b>
100004966: 4a 8d 14 bb                 	leaq	(%rbx,%r15,4), %rdx
10000496a: 4a 8d 34 19                 	leaq	(%rcx,%r11), %rsi
10000496e: 49 8d 34 b4                 	leaq	(%r12,%rsi,4), %rsi
100004972: 48 83 c6 04                 	addq	$4, %rsi
100004976: 48 39 f2                    	cmpq	%rsi, %rdx
100004979: 73 19                       	jae	0x100004994 <_sort_merge_standard+0x104>
10000497b: 4b 8d 14 1f                 	leaq	(%r15,%r11), %rdx
10000497f: 48 8d 14 93                 	leaq	(%rbx,%rdx,4), %rdx
100004983: 48 83 c2 04                 	addq	$4, %rdx
100004987: 49 8d 34 8c                 	leaq	(%r12,%rcx,4), %rsi
10000498b: 48 39 d6                    	cmpq	%rdx, %rsi
10000498e: 0f 82 e9 01 00 00           	jb	0x100004b7d <_sort_merge_standard+0x2ed>
100004994: 4c 89 d0                    	movq	%r10, %rax
100004997: 49 ff c3                    	incq	%r11
10000499a: 4d 89 d9                    	movq	%r11, %r9
10000499d: 49 83 e1 e0                 	andq	$-32, %r9
1000049a1: 49 8d 51 e0                 	leaq	-32(%r9), %rdx
1000049a5: 48 89 d7                    	movq	%rdx, %rdi
1000049a8: 48 c1 ef 05                 	shrq	$5, %rdi
1000049ac: 48 ff c7                    	incq	%rdi
1000049af: 41 89 fa                    	movl	%edi, %r10d
1000049b2: 41 83 e2 03                 	andl	$3, %r10d
1000049b6: 48 83 fa 60                 	cmpq	$96, %rdx
1000049ba: 73 07                       	jae	0x1000049c3 <_sort_merge_standard+0x133>
1000049bc: 31 f6                       	xorl	%esi, %esi
1000049be: e9 4b 01 00 00              	jmp	0x100004b0e <_sort_merge_standard+0x27e>
1000049c3: 49 8d 14 8c                 	leaq	(%r12,%rcx,4), %rdx
1000049c7: 48 81 c2 e0 01 00 00        	addq	$480, %rdx
1000049ce: 4e 8d 04 bb                 	leaq	(%rbx,%r15,4), %r8
1000049d2: 49 81 c0 e0 01 00 00        	addq	$480, %r8
1000049d9: 48 83 e7 fc                 	andq	$-4, %rdi
1000049dd: 48 f7 df                    	negq	%rdi
1000049e0: 31 f6                       	xorl	%esi, %esi
1000049e2: 66 66 66 66 66 2e 0f 1f 84 00 00 00 00 00   	nopw	%cs:(%rax,%rax)
1000049f0: c5 fc 10 84 b2 20 fe ff ff  	vmovups	-480(%rdx,%rsi,4), %ymm0
1000049f9: c5 fc 10 8c b2 40 fe ff ff  	vmovups	-448(%rdx,%rsi,4), %ymm1
100004a02: c5 fc 10 94 b2 60 fe ff ff  	vmovups	-416(%rdx,%rsi,4), %ymm2
100004a0b: c5 fc 10 9c b2 80 fe ff ff  	vmovups	-384(%rdx,%rsi,4), %ymm3
100004a14: c4 c1 7c 11 84 b0 20 fe ff ff       	vmovups	%ymm0, -480(%r8,%rsi,4)
100004a1e: c4 c1 7c 11 8c b0 40 fe ff ff       	vmovups	%ymm1, -448(%r8,%rsi,4)
100004a28: c4 c1 7c 11 94 b0 60 fe ff ff       	vmovups	%ymm2, -416(%r8,%rsi,4)
100004a32: c4 c1 7c 11 9c b0 80 fe ff ff       	vmovups	%ymm3, -384(%r8,%rsi,4)
100004a3c: c5 fc 10 84 b2 a0 fe ff ff  	vmovups	-352(%rdx,%rsi,4), %ymm0
100004a45: c5 fc 10 8c b2 c0 fe ff ff  	vmovups	-320(%rdx,%rsi,4), %ymm1
100004a4e: c5 fc 10 94 b2 e0 fe ff ff  	vmovups	-288(%rdx,%rsi,4), %ymm2
100004a57: c5 fc 10 9c b2 00 ff ff ff  	vmovups	-256(%rdx,%rsi,4), %ymm3
100004a60: c4 c1 7c 11 84 b0 a0 fe ff ff       	vmovups	%ymm0, -352(%r8,%rsi,4)
100004a6a: c4 c1 7c 11 8c b0 c0 fe ff ff       	vmovups	%ymm1, -320(%r8,%rsi,4)
100004a74: c4 c1 7c 11 94 b0 e0 fe ff ff       	vmovups	%ymm2, -288(%r8,%rsi,4)
100004a7e: c4 c1 7c 11 9c b0 00 ff ff ff       	vmovups	%ymm3, -256(%r8,%rsi,4)
100004a88: c5 fc 10 84 b2 20 ff ff ff  	vmovups	-224(%rdx,%rsi,4), %ymm0
100004a91: c5 fc 10 8c b2 40 ff ff ff  	vmovups	-192(%rdx,%rsi,4), %ymm1
100004a9a: c5 fc 10 94 b2 60 ff ff ff  	vmovups	-160(%rdx,%rsi,4), %ymm2
100004aa3: c5 fc 10 5c b2 80           	vmovups	-128(%rdx,%rsi,4), %ymm3
100004aa9: c4 c1 7c 11 84 b0 20 ff ff ff       	vmovups	%ymm0, -224(%r8,%rsi,4)
100004ab3: c4 c1 7c 11 8c b0 40 ff ff ff       	vmovups	%ymm1, -192(%r8,%rsi,4)
100004abd: c4 c1 7c 11 94 b0 60 ff ff ff       	vmovups	%ymm2, -160(%r8,%rsi,4)
100004ac7: c4 c1 7c 11 5c b0 80        	vmovups	%ymm3, -128(%r8,%rsi,4)
100004ace: c5 fc 10 44 b2 a0           	vmovups	-96(%rdx,%rsi,4), %ymm0
100004ad4: c5 fc 10 4c b2 c0           	vmovups	-64(%rdx,%rsi,4), %ymm1
100004ada: c5 fc 10 54 b2 e0           	vmovups	-32(%rdx,%rsi,4), %ymm2
100004ae0: c5 fc 10 1c b2              	vmovups	(%rdx,%rsi,4), %ymm3
100004ae5: c4 c1 7c 11 44 b0 a0        	vmovups	%ymm0, -96(%r8,%rsi,4)
100004aec: c4 c1 7c 11 4c b0 c0        	vmovups	%ymm1, -64(%r8,%rsi,4)
100004af3: c4 c1 7c 11 54 b0 e0        	vmovups	%ymm2, -32(%r8,%rsi,4)
100004afa: c4 c1 7c 11 1c b0           	vmovups	%ymm3, (%r8,%rsi,4)
100004b00: 48 83 ee 80                 	subq	$-128, %rsi
100004b04: 48 83 c7 04                 	addq	$4, %rdi
100004b08: 0f 85 e2 fe ff ff           	jne	0x1000049f0 <_sort_merge_standard+0x160>
100004b0e: 4d 85 d2                    	testq	%r10, %r10
100004b11: 74 54                       	je	0x100004b67 <_sort_merge_standard+0x2d7>
100004b13: 4a 8d 14 3e                 	leaq	(%rsi,%r15), %rdx
100004b17: 48 8d 14 93                 	leaq	(%rbx,%rdx,4), %rdx
100004b1b: 48 83 c2 60                 	addq	$96, %rdx
100004b1f: 48 01 ce                    	addq	%rcx, %rsi
100004b22: 49 8d 34 b4                 	leaq	(%r12,%rsi,4), %rsi
100004b26: 48 83 c6 60                 	addq	$96, %rsi
100004b2a: 49 c1 e2 07                 	shlq	$7, %r10
100004b2e: 31 ff                       	xorl	%edi, %edi
100004b30: c5 fc 10 44 3e a0           	vmovups	-96(%rsi,%rdi), %ymm0
100004b36: c5 fc 10 4c 3e c0           	vmovups	-64(%rsi,%rdi), %ymm1
100004b3c: c5 fc 10 54 3e e0           	vmovups	-32(%rsi,%rdi), %ymm2
100004b42: c5 fc 10 1c 3e              	vmovups	(%rsi,%rdi), %ymm3
100004b47: c5 fc 11 44 3a a0           	vmovups	%ymm0, -96(%rdx,%rdi)
100004b4d: c5 fc 11 4c 3a c0           	vmovups	%ymm1, -64(%rdx,%rdi)
100004b53: c5 fc 11 54 3a e0           	vmovups	%ymm2, -32(%rdx,%rdi)
100004b59: c5 fc 11 1c 3a              	vmovups	%ymm3, (%rdx,%rdi)
100004b5e: 48 83 ef 80                 	subq	$-128, %rdi
100004b62: 49 39 fa                    	cmpq	%rdi, %r10
100004b65: 75 c9                       	jne	0x100004b30 <_sort_merge_standard+0x2a0>
100004b67: 4d 01 cf                    	addq	%r9, %r15
100004b6a: 4d 39 cb                    	cmpq	%r9, %r11
100004b6d: 75 08                       	jne	0x100004b77 <_sort_merge_standard+0x2e7>
100004b6f: 49 89 c2                    	movq	%rax, %r10
100004b72: e9 b3 00 00 00              	jmp	0x100004c2a <_sort_merge_standard+0x39a>
100004b77: 4c 01 c9                    	addq	%r9, %rcx
100004b7a: 49 89 c2                    	movq	%rax, %r10
100004b7d: 45 89 e8                    	movl	%r13d, %r8d
100004b80: 41 29 c8                    	subl	%ecx, %r8d
100004b83: 41 8d 70 01                 	leal	1(%r8), %esi
100004b87: 83 e6 07                    	andl	$7, %esi
100004b8a: 74 26                       	je	0x100004bb2 <_sort_merge_standard+0x322>
100004b8c: 48 8d 3d ad 74 00 00        	leaq	29869(%rip), %rdi  # 10000c040 <_b>
100004b93: 66 66 66 66 2e 0f 1f 84 00 00 00 00 00      	nopw	%cs:(%rax,%rax)
100004ba0: 41 8b 14 8c                 	movl	(%r12,%rcx,4), %edx
100004ba4: 48 ff c1                    	incq	%rcx
100004ba7: 42 89 14 bf                 	movl	%edx, (%rdi,%r15,4)
100004bab: 49 ff c7                    	incq	%r15
100004bae: ff ce                       	decl	%esi
100004bb0: 75 ee                       	jne	0x100004ba0 <_sort_merge_standard+0x310>
100004bb2: 41 83 f8 07                 	cmpl	$7, %r8d
100004bb6: 72 72                       	jb	0x100004c2a <_sort_merge_standard+0x39a>
100004bb8: 41 29 cd                    	subl	%ecx, %r13d
100004bbb: 41 ff c5                    	incl	%r13d
100004bbe: 49 8d 0c 8c                 	leaq	(%r12,%rcx,4), %rcx
100004bc2: 48 83 c1 1c                 	addq	$28, %rcx
100004bc6: 48 8d 15 73 74 00 00        	leaq	29811(%rip), %rdx  # 10000c040 <_b>
100004bcd: 4a 8d 34 ba                 	leaq	(%rdx,%r15,4), %rsi
100004bd1: 48 83 c6 1c                 	addq	$28, %rsi
100004bd5: 31 d2                       	xorl	%edx, %edx
100004bd7: 66 0f 1f 84 00 00 00 00 00  	nopw	(%rax,%rax)
100004be0: 8b 44 91 e4                 	movl	-28(%rcx,%rdx,4), %eax
100004be4: 89 44 96 e4                 	movl	%eax, -28(%rsi,%rdx,4)
100004be8: 8b 44 91 e8                 	movl	-24(%rcx,%rdx,4), %eax
100004bec: 89 44 96 e8                 	movl	%eax, -24(%rsi,%rdx,4)
100004bf0: 8b 44 91 ec                 	movl	-20(%rcx,%rdx,4), %eax
100004bf4: 89 44 96 ec                 	movl	%eax, -20(%rsi,%rdx,4)
100004bf8: 8b 44 91 f0                 	movl	-16(%rcx,%rdx,4), %eax
100004bfc: 89 44 96 f0                 	movl	%eax, -16(%rsi,%rdx,4)
100004c00: 8b 44 91 f4                 	movl	-12(%rcx,%rdx,4), %eax
100004c04: 89 44 96 f4                 	movl	%eax, -12(%rsi,%rdx,4)
100004c08: 8b 44 91 f8                 	movl	-8(%rcx,%rdx,4), %eax
100004c0c: 89 44 96 f8                 	movl	%eax, -8(%rsi,%rdx,4)
100004c10: 8b 44 91 fc                 	movl	-4(%rcx,%rdx,4), %eax
100004c14: 89 44 96 fc                 	movl	%eax, -4(%rsi,%rdx,4)
100004c18: 8b 04 91                    	movl	(%rcx,%rdx,4), %eax
100004c1b: 89 04 96                    	movl	%eax, (%rsi,%rdx,4)
100004c1e: 48 83 c2 08                 	addq	$8, %rdx
100004c22: 41 39 d5                    	cmpl	%edx, %r13d
100004c25: 75 b9                       	jne	0x100004be0 <_sort_merge_standard+0x350>
100004c27: 49 01 d7                    	addq	%rdx, %r15
100004c2a: 45 39 d6                    	cmpl	%r10d, %r14d
100004c2d: 0f 8f bc 02 00 00           	jg	0x100004eef <_sort_merge_standard+0x65f>
100004c33: 49 63 c7                    	movslq	%r15d, %rax
100004c36: 49 63 ce                    	movslq	%r14d, %rcx
100004c39: 4d 89 d7                    	movq	%r10, %r15
100004c3c: 45 29 f2                    	subl	%r14d, %r10d
100004c3f: 41 83 fa 1f                 	cmpl	$31, %r10d
100004c43: 72 39                       	jb	0x100004c7e <_sort_merge_standard+0x3ee>
100004c45: 4c 8d 05 f4 73 00 00        	leaq	29684(%rip), %r8  # 10000c040 <_b>
100004c4c: 49 8d 14 80                 	leaq	(%r8,%rax,4), %rdx
100004c50: 4a 8d 34 11                 	leaq	(%rcx,%r10), %rsi
100004c54: 49 8d 34 b4                 	leaq	(%r12,%rsi,4), %rsi
100004c58: 48 83 c6 04                 	addq	$4, %rsi
100004c5c: 48 39 f2                    	cmpq	%rsi, %rdx
100004c5f: 0f 83 c6 00 00 00           	jae	0x100004d2b <_sort_merge_standard+0x49b>
100004c65: 4a 8d 14 10                 	leaq	(%rax,%r10), %rdx
100004c69: 49 8d 14 90                 	leaq	(%r8,%rdx,4), %rdx
100004c6d: 48 83 c2 04                 	addq	$4, %rdx
100004c71: 49 8d 34 8c                 	leaq	(%r12,%rcx,4), %rsi
100004c75: 48 39 d6                    	cmpq	%rdx, %rsi
100004c78: 0f 83 ad 00 00 00           	jae	0x100004d2b <_sort_merge_standard+0x49b>
100004c7e: 4d 89 fa                    	movq	%r15, %r10
100004c81: 44 89 d2                    	movl	%r10d, %edx
100004c84: 29 ca                       	subl	%ecx, %edx
100004c86: 8d 72 01                    	leal	1(%rdx), %esi
100004c89: 83 e6 07                    	andl	$7, %esi
100004c8c: 74 23                       	je	0x100004cb1 <_sort_merge_standard+0x421>
100004c8e: 48 8d 3d ab 73 00 00        	leaq	29611(%rip), %rdi  # 10000c040 <_b>
100004c95: 66 66 2e 0f 1f 84 00 00 00 00 00    	nopw	%cs:(%rax,%rax)
100004ca0: 41 8b 1c 8c                 	movl	(%r12,%rcx,4), %ebx
100004ca4: 48 ff c1                    	incq	%rcx
100004ca7: 89 1c 87                    	movl	%ebx, (%rdi,%rax,4)
100004caa: 48 ff c0                    	incq	%rax
100004cad: ff ce                       	decl	%esi
100004caf: 75 ef                       	jne	0x100004ca0 <_sort_merge_standard+0x410>
100004cb1: 83 fa 07                    	cmpl	$7, %edx
100004cb4: 0f 82 35 02 00 00           	jb	0x100004eef <_sort_merge_standard+0x65f>
100004cba: 44 89 d2                    	movl	%r10d, %edx
100004cbd: 29 ca                       	subl	%ecx, %edx
100004cbf: ff c2                       	incl	%edx
100004cc1: 49 8d 0c 8c                 	leaq	(%r12,%rcx,4), %rcx
100004cc5: 48 83 c1 1c                 	addq	$28, %rcx
100004cc9: 48 8d 35 70 73 00 00        	leaq	29552(%rip), %rsi  # 10000c040 <_b>
100004cd0: 48 8d 04 86                 	leaq	(%rsi,%rax,4), %rax
100004cd4: 48 83 c0 1c                 	addq	$28, %rax
100004cd8: 31 f6                       	xorl	%esi, %esi
100004cda: 66 0f 1f 44 00 00           	nopw	(%rax,%rax)
100004ce0: 8b 7c b1 e4                 	movl	-28(%rcx,%rsi,4), %edi
100004ce4: 89 7c b0 e4                 	movl	%edi, -28(%rax,%rsi,4)
100004ce8: 8b 7c b1 e8                 	movl	-24(%rcx,%rsi,4), %edi
100004cec: 89 7c b0 e8                 	movl	%edi, -24(%rax,%rsi,4)
100004cf0: 8b 7c b1 ec                 	movl	-20(%rcx,%rsi,4), %edi
100004cf4: 89 7c b0 ec                 	movl	%edi, -20(%rax,%rsi,4)
100004cf8: 8b 7c b1 f0                 	movl	-16(%rcx,%rsi,4), %edi
100004cfc: 89 7c b0 f0                 	movl	%edi, -16(%rax,%rsi,4)
100004d00: 8b 7c b1 f4                 	movl	-12(%rcx,%rsi,4), %edi
100004d04: 89 7c b0 f4                 	movl	%edi, -12(%rax,%rsi,4)
100004d08: 8b 7c b1 f8                 	movl	-8(%rcx,%rsi,4), %edi
100004d0c: 89 7c b0 f8                 	movl	%edi, -8(%rax,%rsi,4)
100004d10: 8b 7c b1 fc                 	movl	-4(%rcx,%rsi,4), %edi
100004d14: 89 7c b0 fc                 	movl	%edi, -4(%rax,%rsi,4)
100004d18: 8b 3c b1                    	movl	(%rcx,%rsi,4), %edi
100004d1b: 89 3c b0                    	movl	%edi, (%rax,%rsi,4)
100004d1e: 48 83 c6 08                 	addq	$8, %rsi
100004d22: 39 f2                       	cmpl	%esi, %edx
100004d24: 75 ba                       	jne	0x100004ce0 <_sort_merge_standard+0x450>
100004d26: e9 c4 01 00 00              	jmp	0x100004eef <_sort_merge_standard+0x65f>
100004d2b: 49 ff c2                    	incq	%r10
100004d2e: 4d 89 d1                    	movq	%r10, %r9
100004d31: 49 83 e1 e0                 	andq	$-32, %r9
100004d35: 49 8d 51 e0                 	leaq	-32(%r9), %rdx
100004d39: 48 89 d3                    	movq	%rdx, %rbx
100004d3c: 48 c1 eb 05                 	shrq	$5, %rbx
100004d40: 48 ff c3                    	incq	%rbx
100004d43: 41 89 db                    	movl	%ebx, %r11d
100004d46: 41 83 e3 03                 	andl	$3, %r11d
100004d4a: 48 83 fa 60                 	cmpq	$96, %rdx
100004d4e: 73 07                       	jae	0x100004d57 <_sort_merge_standard+0x4c7>
100004d50: 31 f6                       	xorl	%esi, %esi
100004d52: e9 37 01 00 00              	jmp	0x100004e8e <_sort_merge_standard+0x5fe>
100004d57: 49 8d 14 8c                 	leaq	(%r12,%rcx,4), %rdx
100004d5b: 48 81 c2 e0 01 00 00        	addq	$480, %rdx
100004d62: 49 8d 3c 80                 	leaq	(%r8,%rax,4), %rdi
100004d66: 48 81 c7 e0 01 00 00        	addq	$480, %rdi
100004d6d: 48 83 e3 fc                 	andq	$-4, %rbx
100004d71: 48 f7 db                    	negq	%rbx
100004d74: 31 f6                       	xorl	%esi, %esi
100004d76: 66 2e 0f 1f 84 00 00 00 00 00       	nopw	%cs:(%rax,%rax)
100004d80: c5 fc 10 84 b2 20 fe ff ff  	vmovups	-480(%rdx,%rsi,4), %ymm0
100004d89: c5 fc 10 8c b2 40 fe ff ff  	vmovups	-448(%rdx,%rsi,4), %ymm1
100004d92: c5 fc 10 94 b2 60 fe ff ff  	vmovups	-416(%rdx,%rsi,4), %ymm2
100004d9b: c5 fc 10 9c b2 80 fe ff ff  	vmovups	-384(%rdx,%rsi,4), %ymm3
100004da4: c5 fc 11 84 b7 20 fe ff ff  	vmovups	%ymm0, -480(%rdi,%rsi,4)
100004dad: c5 fc 11 8c b7 40 fe ff ff  	vmovups	%ymm1, -448(%rdi,%rsi,4)
100004db6: c5 fc 11 94 b7 60 fe ff ff  	vmovups	%ymm2, -416(%rdi,%rsi,4)
100004dbf: c5 fc 11 9c b7 80 fe ff ff  	vmovups	%ymm3, -384(%rdi,%rsi,4)
100004dc8: c5 fc 10 84 b2 a0 fe ff ff  	vmovups	-352(%rdx,%rsi,4), %ymm0
100004dd1: c5 fc 10 8c b2 c0 fe ff ff  	vmovups	-320(%rdx,%rsi,4), %ymm1
100004dda: c5 fc 10 94 b2 e0 fe ff ff  	vmovups	-288(%rdx,%rsi,4), %ymm2
100004de3: c5 fc 10 9c b2 00 ff ff ff  	vmovups	-256(%rdx,%rsi,4), %ymm3
100004dec: c5 fc 11 84 b7 a0 fe ff ff  	vmovups	%ymm0, -352(%rdi,%rsi,4)
100004df5: c5 fc 11 8c b7 c0 fe ff ff  	vmovups	%ymm1, -320(%rdi,%rsi,4)
100004dfe: c5 fc 11 94 b7 e0 fe ff ff  	vmovups	%ymm2, -288(%rdi,%rsi,4)
100004e07: c5 fc 11 9c b7 00 ff ff ff  	vmovups	%ymm3, -256(%rdi,%rsi,4)
100004e10: c5 fc 10 84 b2 20 ff ff ff  	vmovups	-224(%rdx,%rsi,4), %ymm0
100004e19: c5 fc 10 8c b2 40 ff ff ff  	vmovups	-192(%rdx,%rsi,4), %ymm1
100004e22: c5 fc 10 94 b2 60 ff ff ff  	vmovups	-160(%rdx,%rsi,4), %ymm2
100004e2b: c5 fc 10 5c b2 80           	vmovups	-128(%rdx,%rsi,4), %ymm3
100004e31: c5 fc 11 84 b7 20 ff ff ff  	vmovups	%ymm0, -224(%rdi,%rsi,4)
100004e3a: c5 fc 11 8c b7 40 ff ff ff  	vmovups	%ymm1, -192(%rdi,%rsi,4)
100004e43: c5 fc 11 94 b7 60 ff ff ff  	vmovups	%ymm2, -160(%rdi,%rsi,4)
100004e4c: c5 fc 11 5c b7 80           	vmovups	%ymm3, -128(%rdi,%rsi,4)
100004e52: c5 fc 10 44 b2 a0           	vmovups	-96(%rdx,%rsi,4), %ymm0
100004e58: c5 fc 10 4c b2 c0           	vmovups	-64(%rdx,%rsi,4), %ymm1
100004e5e: c5 fc 10 54 b2 e0           	vmovups	-32(%rdx,%rsi,4), %ymm2
100004e64: c5 fc 10 1c b2              	vmovups	(%rdx,%rsi,4), %ymm3
100004e69: c5 fc 11 44 b7 a0           	vmovups	%ymm0, -96(%rdi,%rsi,4)
100004e6f: c5 fc 11 4c b7 c0           	vmovups	%ymm1, -64(%rdi,%rsi,4)
100004e75: c5 fc 11 54 b7 e0           	vmovups	%ymm2, -32(%rdi,%rsi,4)
100004e7b: c5 fc 11 1c b7              	vmovups	%ymm3, (%rdi,%rsi,4)
100004e80: 48 83 ee 80                 	subq	$-128, %rsi
100004e84: 48 83 c3 04                 	addq	$4, %rbx
100004e88: 0f 85 f2 fe ff ff           	jne	0x100004d80 <_sort_merge_standard+0x4f0>
100004e8e: 4d 85 db                    	testq	%r11, %r11
100004e91: 74 54                       	je	0x100004ee7 <_sort_merge_standard+0x657>
100004e93: 48 8d 14 06                 	leaq	(%rsi,%rax), %rdx
100004e97: 49 8d 14 90                 	leaq	(%r8,%rdx,4), %rdx
100004e9b: 48 83 c2 60                 	addq	$96, %rdx
100004e9f: 48 01 ce                    	addq	%rcx, %rsi
100004ea2: 49 8d 34 b4                 	leaq	(%r12,%rsi,4), %rsi
100004ea6: 48 83 c6 60                 	addq	$96, %rsi
100004eaa: 49 c1 e3 07                 	shlq	$7, %r11
100004eae: 31 ff                       	xorl	%edi, %edi
100004eb0: c5 fc 10 44 3e a0           	vmovups	-96(%rsi,%rdi), %ymm0
100004eb6: c5 fc 10 4c 3e c0           	vmovups	-64(%rsi,%rdi), %ymm1
100004ebc: c5 fc 10 54 3e e0           	vmovups	-32(%rsi,%rdi), %ymm2
100004ec2: c5 fc 10 1c 3e              	vmovups	(%rsi,%rdi), %ymm3
100004ec7: c5 fc 11 44 3a a0           	vmovups	%ymm0, -96(%rdx,%rdi)
100004ecd: c5 fc 11 4c 3a c0           	vmovups	%ymm1, -64(%rdx,%rdi)
100004ed3: c5 fc 11 54 3a e0           	vmovups	%ymm2, -32(%rdx,%rdi)
100004ed9: c5 fc 11 1c 3a              	vmovups	%ymm3, (%rdx,%rdi)
100004ede: 48 83 ef 80                 	subq	$-128, %rdi
100004ee2: 49 39 fb                    	cmpq	%rdi, %r11
100004ee5: 75 c9                       	jne	0x100004eb0 <_sort_merge_standard+0x620>
100004ee7: 4d 39 ca                    	cmpq	%r9, %r10
100004eea: 4d 89 fa                    	movq	%r15, %r10
100004eed: 75 77                       	jne	0x100004f66 <_sort_merge_standard+0x6d6>
100004eef: 44 89 d1                    	movl	%r10d, %ecx
100004ef2: 48 8b 45 d0                 	movq	-48(%rbp), %rax
100004ef6: 29 c1                       	subl	%eax, %ecx
100004ef8: 0f 8c b0 02 00 00           	jl	0x1000051ae <_sort_merge_standard+0x91e>
100004efe: 48 98                       	cltq
100004f00: 83 f9 1f                    	cmpl	$31, %ecx
100004f03: 0f 82 1a 02 00 00           	jb	0x100005123 <_sort_merge_standard+0x893>
100004f09: 49 8d 3c 84                 	leaq	(%r12,%rax,4), %rdi
100004f0d: 48 8d 14 01                 	leaq	(%rcx,%rax), %rdx
100004f11: 48 8d 35 28 71 00 00        	leaq	28968(%rip), %rsi  # 10000c040 <_b>
100004f18: 48 8d 1c 96                 	leaq	(%rsi,%rdx,4), %rbx
100004f1c: 48 83 c3 04                 	addq	$4, %rbx
100004f20: 48 39 df                    	cmpq	%rbx, %rdi
100004f23: 73 15                       	jae	0x100004f3a <_sort_merge_standard+0x6aa>
100004f25: 49 8d 14 94                 	leaq	(%r12,%rdx,4), %rdx
100004f29: 48 83 c2 04                 	addq	$4, %rdx
100004f2d: 48 8d 34 86                 	leaq	(%rsi,%rax,4), %rsi
100004f31: 48 39 d6                    	cmpq	%rdx, %rsi
100004f34: 0f 82 e9 01 00 00           	jb	0x100005123 <_sort_merge_standard+0x893>
100004f3a: 48 ff c1                    	incq	%rcx
100004f3d: 49 89 c8                    	movq	%rcx, %r8
100004f40: 49 83 e0 e0                 	andq	$-32, %r8
100004f44: 49 8d 50 e0                 	leaq	-32(%r8), %rdx
100004f48: 48 89 d7                    	movq	%rdx, %rdi
100004f4b: 48 c1 ef 05                 	shrq	$5, %rdi
100004f4f: 48 ff c7                    	incq	%rdi
100004f52: 41 89 f9                    	movl	%edi, %r9d
100004f55: 41 83 e1 03                 	andl	$3, %r9d
100004f59: 48 83 fa 60                 	cmpq	$96, %rdx
100004f5d: 73 12                       	jae	0x100004f71 <_sort_merge_standard+0x6e1>
100004f5f: 31 db                       	xorl	%ebx, %ebx
100004f61: e9 48 01 00 00              	jmp	0x1000050ae <_sort_merge_standard+0x81e>
100004f66: 4c 01 c9                    	addq	%r9, %rcx
100004f69: 4c 01 c8                    	addq	%r9, %rax
100004f6c: e9 10 fd ff ff              	jmp	0x100004c81 <_sort_merge_standard+0x3f1>
100004f71: 49 8d 14 84                 	leaq	(%r12,%rax,4), %rdx
100004f75: 48 81 c2 e0 01 00 00        	addq	$480, %rdx
100004f7c: 48 8d 34 85 e0 01 00 00     	leaq	480(,%rax,4), %rsi
100004f84: 48 03 35 7d 30 00 00        	addq	12413(%rip), %rsi  # 100008008 <dyld_stub_binder+0x100008008>
100004f8b: 48 83 e7 fc                 	andq	$-4, %rdi
100004f8f: 48 f7 df                    	negq	%rdi
100004f92: 31 db                       	xorl	%ebx, %ebx
100004f94: 66 66 66 2e 0f 1f 84 00 00 00 00 00 	nopw	%cs:(%rax,%rax)
100004fa0: c5 fc 10 84 9e 20 fe ff ff  	vmovups	-480(%rsi,%rbx,4), %ymm0
100004fa9: c5 fc 10 8c 9e 40 fe ff ff  	vmovups	-448(%rsi,%rbx,4), %ymm1
100004fb2: c5 fc 10 94 9e 60 fe ff ff  	vmovups	-416(%rsi,%rbx,4), %ymm2
100004fbb: c5 fc 10 9c 9e 80 fe ff ff  	vmovups	-384(%rsi,%rbx,4), %ymm3
100004fc4: c5 fc 11 84 9a 20 fe ff ff  	vmovups	%ymm0, -480(%rdx,%rbx,4)
100004fcd: c5 fc 11 8c 9a 40 fe ff ff  	vmovups	%ymm1, -448(%rdx,%rbx,4)
100004fd6: c5 fc 11 94 9a 60 fe ff ff  	vmovups	%ymm2, -416(%rdx,%rbx,4)
100004fdf: c5 fc 11 9c 9a 80 fe ff ff  	vmovups	%ymm3, -384(%rdx,%rbx,4)
100004fe8: c5 fc 10 84 9e a0 fe ff ff  	vmovups	-352(%rsi,%rbx,4), %ymm0
100004ff1: c5 fc 10 8c 9e c0 fe ff ff  	vmovups	-320(%rsi,%rbx,4), %ymm1
100004ffa: c5 fc 10 94 9e e0 fe ff ff  	vmovups	-288(%rsi,%rbx,4), %ymm2
100005003: c5 fc 10 9c 9e 00 ff ff ff  	vmovups	-256(%rsi,%rbx,4), %ymm3
10000500c: c5 fc 11 84 9a a0 fe ff ff  	vmovups	%ymm0, -352(%rdx,%rbx,4)
100005015: c5 fc 11 8c 9a c0 fe ff ff  	vmovups	%ymm1, -320(%rdx,%rbx,4)
10000501e: c5 fc 11 94 9a e0 fe ff ff  	vmovups	%ymm2, -288(%rdx,%rbx,4)
100005027: c5 fc 11 9c 9a 00 ff ff ff  	vmovups	%ymm3, -256(%rdx,%rbx,4)
100005030: c5 fc 10 84 9e 20 ff ff ff  	vmovups	-224(%rsi,%rbx,4), %ymm0
100005039: c5 fc 10 8c 9e 40 ff ff ff  	vmovups	-192(%rsi,%rbx,4), %ymm1
100005042: c5 fc 10 94 9e 60 ff ff ff  	vmovups	-160(%rsi,%rbx,4), %ymm2
10000504b: c5 fc 10 5c 9e 80           	vmovups	-128(%rsi,%rbx,4), %ymm3
100005051: c5 fc 11 84 9a 20 ff ff ff  	vmovups	%ymm0, -224(%rdx,%rbx,4)
10000505a: c5 fc 11 8c 9a 40 ff ff ff  	vmovups	%ymm1, -192(%rdx,%rbx,4)
100005063: c5 fc 11 94 9a 60 ff ff ff  	vmovups	%ymm2, -160(%rdx,%rbx,4)
10000506c: c5 fc 11 5c 9a 80           	vmovups	%ymm3, -128(%rdx,%rbx,4)
100005072: c5 fc 10 44 9e a0           	vmovups	-96(%rsi,%rbx,4), %ymm0
100005078: c5 fc 10 4c 9e c0           	vmovups	-64(%rsi,%rbx,4), %ymm1
10000507e: c5 fc 10 54 9e e0           	vmovups	-32(%rsi,%rbx,4), %ymm2
100005084: c5 fc 10 1c 9e              	vmovups	(%rsi,%rbx,4), %ymm3
100005089: c5 fc 11 44 9a a0           	vmovups	%ymm0, -96(%rdx,%rbx,4)
10000508f: c5 fc 11 4c 9a c0           	vmovups	%ymm1, -64(%rdx,%rbx,4)
100005095: c5 fc 11 54 9a e0           	vmovups	%ymm2, -32(%rdx,%rbx,4)
10000509b: c5 fc 11 1c 9a              	vmovups	%ymm3, (%rdx,%rbx,4)
1000050a0: 48 83 eb 80                 	subq	$-128, %rbx
1000050a4: 48 83 c7 04                 	addq	$4, %rdi
1000050a8: 0f 85 f2 fe ff ff           	jne	0x100004fa0 <_sort_merge_standard+0x710>
1000050ae: 4d 85 c9                    	testq	%r9, %r9
1000050b1: 74 64                       	je	0x100005117 <_sort_merge_standard+0x887>
1000050b3: 48 01 c3                    	addq	%rax, %rbx
1000050b6: 49 8d 14 9c                 	leaq	(%r12,%rbx,4), %rdx
1000050ba: 48 83 c2 60                 	addq	$96, %rdx
1000050be: 48 8d 34 9d 60 00 00 00     	leaq	96(,%rbx,4), %rsi
1000050c6: 48 03 35 3b 2f 00 00        	addq	12091(%rip), %rsi  # 100008008 <dyld_stub_binder+0x100008008>
1000050cd: 49 c1 e1 07                 	shlq	$7, %r9
1000050d1: 31 ff                       	xorl	%edi, %edi
1000050d3: 66 66 66 66 2e 0f 1f 84 00 00 00 00 00      	nopw	%cs:(%rax,%rax)
1000050e0: c5 fc 10 44 3e a0           	vmovups	-96(%rsi,%rdi), %ymm0
1000050e6: c5 fc 10 4c 3e c0           	vmovups	-64(%rsi,%rdi), %ymm1
1000050ec: c5 fc 10 54 3e e0           	vmovups	-32(%rsi,%rdi), %ymm2
1000050f2: c5 fc 10 1c 3e              	vmovups	(%rsi,%rdi), %ymm3
1000050f7: c5 fc 11 44 3a a0           	vmovups	%ymm0, -96(%rdx,%rdi)
1000050fd: c5 fc 11 4c 3a c0           	vmovups	%ymm1, -64(%rdx,%rdi)
100005103: c5 fc 11 54 3a e0           	vmovups	%ymm2, -32(%rdx,%rdi)
100005109: c5 fc 11 1c 3a              	vmovups	%ymm3, (%rdx,%rdi)
10000510e: 48 83 ef 80                 	subq	$-128, %rdi
100005112: 49 39 f9                    	cmpq	%rdi, %r9
100005115: 75 c9                       	jne	0x1000050e0 <_sort_merge_standard+0x850>
100005117: 4c 39 c1                    	cmpq	%r8, %rcx
10000511a: 0f 84 8e 00 00 00           	je	0x1000051ae <_sort_merge_standard+0x91e>
100005120: 4c 01 c0                    	addq	%r8, %rax
100005123: 41 8d 4a 01                 	leal	1(%r10), %ecx
100005127: 89 ca                       	movl	%ecx, %edx
100005129: 29 c2                       	subl	%eax, %edx
10000512b: 41 29 c2                    	subl	%eax, %r10d
10000512e: 83 e2 07                    	andl	$7, %edx
100005131: 74 1b                       	je	0x10000514e <_sort_merge_standard+0x8be>
100005133: 48 8d 35 06 6f 00 00        	leaq	28422(%rip), %rsi  # 10000c040 <_b>
10000513a: 66 0f 1f 44 00 00           	nopw	(%rax,%rax)
100005140: 8b 3c 86                    	movl	(%rsi,%rax,4), %edi
100005143: 41 89 3c 84                 	movl	%edi, (%r12,%rax,4)
100005147: 48 ff c0                    	incq	%rax
10000514a: ff ca                       	decl	%edx
10000514c: 75 f2                       	jne	0x100005140 <_sort_merge_standard+0x8b0>
10000514e: 41 83 fa 07                 	cmpl	$7, %r10d
100005152: 72 5a                       	jb	0x1000051ae <_sort_merge_standard+0x91e>
100005154: 89 c9                       	movl	%ecx, %ecx
100005156: 48 8d 15 e3 6e 00 00        	leaq	28387(%rip), %rdx  # 10000c040 <_b>
10000515d: 0f 1f 00                    	nopl	(%rax)
100005160: 8b 34 82                    	movl	(%rdx,%rax,4), %esi
100005163: 41 89 34 84                 	movl	%esi, (%r12,%rax,4)
100005167: 8b 74 82 04                 	movl	4(%rdx,%rax,4), %esi
10000516b: 41 89 74 84 04              	movl	%esi, 4(%r12,%rax,4)
100005170: 8b 74 82 08                 	movl	8(%rdx,%rax,4), %esi
100005174: 41 89 74 84 08              	movl	%esi, 8(%r12,%rax,4)
100005179: 8b 74 82 0c                 	movl	12(%rdx,%rax,4), %esi
10000517d: 41 89 74 84 0c              	movl	%esi, 12(%r12,%rax,4)
100005182: 8b 74 82 10                 	movl	16(%rdx,%rax,4), %esi
100005186: 41 89 74 84 10              	movl	%esi, 16(%r12,%rax,4)
10000518b: 8b 74 82 14                 	movl	20(%rdx,%rax,4), %esi
10000518f: 41 89 74 84 14              	movl	%esi, 20(%r12,%rax,4)
100005194: 8b 74 82 18                 	movl	24(%rdx,%rax,4), %esi
100005198: 41 89 74 84 18              	movl	%esi, 24(%r12,%rax,4)
10000519d: 8b 74 82 1c                 	movl	28(%rdx,%rax,4), %esi
1000051a1: 41 89 74 84 1c              	movl	%esi, 28(%r12,%rax,4)
1000051a6: 48 83 c0 08                 	addq	$8, %rax
1000051aa: 39 c1                       	cmpl	%eax, %ecx
1000051ac: 75 b2                       	jne	0x100005160 <_sort_merge_standard+0x8d0>
1000051ae: 48 83 c4 08                 	addq	$8, %rsp
1000051b2: 5b                          	popq	%rbx
1000051b3: 41 5c                       	popq	%r12
1000051b5: 41 5d                       	popq	%r13
1000051b7: 41 5e                       	popq	%r14
1000051b9: 41 5f                       	popq	%r15
1000051bb: 5d                          	popq	%rbp
1000051bc: c5 f8 77                    	vzeroupper
1000051bf: c3                          	retq

00000001000051c0 <_min>:
1000051c0: 55                          	pushq	%rbp
1000051c1: 48 89 e5                    	movq	%rsp, %rbp
1000051c4: 89 f0                       	movl	%esi, %eax
1000051c6: 39 f7                       	cmpl	%esi, %edi
1000051c8: 0f 4c c7                    	cmovll	%edi, %eax
1000051cb: 5d                          	popq	%rbp
1000051cc: c3                          	retq
1000051cd: 0f 1f 00                    	nopl	(%rax)

00000001000051d0 <_max>:
1000051d0: 55                          	pushq	%rbp
1000051d1: 48 89 e5                    	movq	%rsp, %rbp
1000051d4: 89 f0                       	movl	%esi, %eax
1000051d6: 39 f7                       	cmpl	%esi, %edi
1000051d8: 0f 4f c7                    	cmovgl	%edi, %eax
1000051db: 5d                          	popq	%rbp
1000051dc: c3                          	retq
1000051dd: 0f 1f 00                    	nopl	(%rax)

00000001000051e0 <_min_branchless>:
1000051e0: 55                          	pushq	%rbp
1000051e1: 48 89 e5                    	movq	%rsp, %rbp
1000051e4: 31 c0                       	xorl	%eax, %eax
1000051e6: 39 f7                       	cmpl	%esi, %edi
1000051e8: b9 00 00 00 00              	movl	$0, %ecx
1000051ed: 0f 4c cf                    	cmovll	%edi, %ecx
1000051f0: 39 fe                       	cmpl	%edi, %esi
1000051f2: 0f 4c c6                    	cmovll	%esi, %eax
1000051f5: 01 c8                       	addl	%ecx, %eax
1000051f7: 5d                          	popq	%rbp
1000051f8: c3                          	retq
1000051f9: 0f 1f 80 00 00 00 00        	nopl	(%rax)

0000000100005200 <_max_branchless>:
100005200: 55                          	pushq	%rbp
100005201: 48 89 e5                    	movq	%rsp, %rbp
100005204: 31 c0                       	xorl	%eax, %eax
100005206: 39 f7                       	cmpl	%esi, %edi
100005208: b9 00 00 00 00              	movl	$0, %ecx
10000520d: 0f 4f cf                    	cmovgl	%edi, %ecx
100005210: 39 fe                       	cmpl	%edi, %esi
100005212: 0f 4f c6                    	cmovgl	%esi, %eax
100005215: 01 c8                       	addl	%ecx, %eax
100005217: 5d                          	popq	%rbp
100005218: c3                          	retq
100005219: 0f 1f 80 00 00 00 00        	nopl	(%rax)

0000000100005220 <_swap_quick_optimized>:
100005220: 55                          	pushq	%rbp
100005221: 48 89 e5                    	movq	%rsp, %rbp
100005224: 8b 07                       	movl	(%rdi), %eax
100005226: 8b 0e                       	movl	(%rsi), %ecx
100005228: 89 0f                       	movl	%ecx, (%rdi)
10000522a: 89 06                       	movl	%eax, (%rsi)
10000522c: 5d                          	popq	%rbp
10000522d: c3                          	retq
10000522e: 66 90                       	nop

0000000100005230 <_partition_quick_optimized>:
100005230: 55                          	pushq	%rbp
100005231: 48 89 e5                    	movq	%rsp, %rbp
100005234: 41 57                       	pushq	%r15
100005236: 41 56                       	pushq	%r14
100005238: 53                          	pushq	%rbx
100005239: 89 d0                       	movl	%edx, %eax
10000523b: 29 f0                       	subl	%esi, %eax
10000523d: 83 f8 02                    	cmpl	$2, %eax
100005240: 7c 66                       	jl	0x1000052a8 <_partition_quick_optimized+0x78>
100005242: 8d 04 32                    	leal	(%rdx,%rsi), %eax
100005245: 89 c1                       	movl	%eax, %ecx
100005247: c1 e9 1f                    	shrl	$31, %ecx
10000524a: 01 c1                       	addl	%eax, %ecx
10000524c: d1 f9                       	sarl	%ecx
10000524e: 4c 63 c6                    	movslq	%esi, %r8
100005251: 42 8b 04 87                 	movl	(%rdi,%r8,4), %eax
100005255: 4c 63 c9                    	movslq	%ecx, %r9
100005258: 42 8b 0c 8f                 	movl	(%rdi,%r9,4), %ecx
10000525c: 4c 63 d2                    	movslq	%edx, %r10
10000525f: 46 8b 1c 97                 	movl	(%rdi,%r10,4), %r11d
100005263: 39 c8                       	cmpl	%ecx, %eax
100005265: 89 cb                       	movl	%ecx, %ebx
100005267: 0f 4c d8                    	cmovll	%eax, %ebx
10000526a: 0f 4f c8                    	cmovgl	%eax, %ecx
10000526d: 44 39 db                    	cmpl	%r11d, %ebx
100005270: 45 89 de                    	movl	%r11d, %r14d
100005273: 44 0f 4c f3                 	cmovll	%ebx, %r14d
100005277: 44 39 d9                    	cmpl	%r11d, %ecx
10000527a: 45 89 df                    	movl	%r11d, %r15d
10000527d: 44 0f 4c f9                 	cmovll	%ecx, %r15d
100005281: 41 0f 4e cb                 	cmovlel	%r11d, %ecx
100005285: 44 39 fb                    	cmpl	%r15d, %ebx
100005288: 44 0f 4f fb                 	cmovgl	%ebx, %r15d
10000528c: 46 89 34 87                 	movl	%r14d, (%rdi,%r8,4)
100005290: 46 89 3c 97                 	movl	%r15d, (%rdi,%r10,4)
100005294: 42 89 0c 8f                 	movl	%ecx, (%rdi,%r9,4)
100005298: 41 89 d1                    	movl	%edx, %r9d
10000529b: 41 29 f1                    	subl	%esi, %r9d
10000529e: 7f 17                       	jg	0x1000052b7 <_partition_quick_optimized+0x87>
1000052a0: 4c 63 f2                    	movslq	%edx, %r14
1000052a3: e9 bb 00 00 00              	jmp	0x100005363 <_partition_quick_optimized+0x133>
1000052a8: 48 63 c2                    	movslq	%edx, %rax
1000052ab: 44 8b 3c 87                 	movl	(%rdi,%rax,4), %r15d
1000052af: 41 89 d1                    	movl	%edx, %r9d
1000052b2: 41 29 f1                    	subl	%esi, %r9d
1000052b5: 7e e9                       	jle	0x1000052a0 <_partition_quick_optimized+0x70>
1000052b7: 48 63 ce                    	movslq	%esi, %rcx
1000052ba: 4c 63 f2                    	movslq	%edx, %r14
1000052bd: 49 89 c8                    	movq	%rcx, %r8
1000052c0: 49 f7 d0                    	notq	%r8
1000052c3: 41 f6 c1 01                 	testb	$1, %r9b
1000052c7: 75 07                       	jne	0x1000052d0 <_partition_quick_optimized+0xa0>
1000052c9: 4d 01 f0                    	addq	%r14, %r8
1000052cc: 75 42                       	jne	0x100005310 <_partition_quick_optimized+0xe0>
1000052ce: eb 32                       	jmp	0x100005302 <_partition_quick_optimized+0xd2>
1000052d0: 44 8b 1c 8f                 	movl	(%rdi,%rcx,4), %r11d
1000052d4: 45 31 c9                    	xorl	%r9d, %r9d
1000052d7: 45 39 df                    	cmpl	%r11d, %r15d
1000052da: 41 0f 9f c1                 	setg	%r9b
1000052de: 44 8b 14 8f                 	movl	(%rdi,%rcx,4), %r10d
1000052e2: 44 89 d3                    	movl	%r10d, %ebx
1000052e5: 41 0f 4f db                 	cmovgl	%r11d, %ebx
1000052e9: 89 1c 8f                    	movl	%ebx, (%rdi,%rcx,4)
1000052ec: 45 0f 4f da                 	cmovgl	%r10d, %r11d
1000052f0: 44 89 1c 8f                 	movl	%r11d, (%rdi,%rcx,4)
1000052f4: 41 01 f1                    	addl	%esi, %r9d
1000052f7: 48 ff c1                    	incq	%rcx
1000052fa: 44 89 ce                    	movl	%r9d, %esi
1000052fd: 4d 01 f0                    	addq	%r14, %r8
100005300: 75 0e                       	jne	0x100005310 <_partition_quick_optimized+0xe0>
100005302: 44 89 ce                    	movl	%r9d, %esi
100005305: eb 5c                       	jmp	0x100005363 <_partition_quick_optimized+0x133>
100005307: 66 0f 1f 84 00 00 00 00 00  	nopw	(%rax,%rax)
100005310: 8b 1c 8f                    	movl	(%rdi,%rcx,4), %ebx
100005313: 45 31 c0                    	xorl	%r8d, %r8d
100005316: 41 39 df                    	cmpl	%ebx, %r15d
100005319: 41 0f 9f c0                 	setg	%r8b
10000531d: 48 63 f6                    	movslq	%esi, %rsi
100005320: 8b 14 b7                    	movl	(%rdi,%rsi,4), %edx
100005323: 89 d0                       	movl	%edx, %eax
100005325: 0f 4f c3                    	cmovgl	%ebx, %eax
100005328: 89 04 b7                    	movl	%eax, (%rdi,%rsi,4)
10000532b: 0f 4f da                    	cmovgl	%edx, %ebx
10000532e: 89 1c 8f                    	movl	%ebx, (%rdi,%rcx,4)
100005331: 44 01 c6                    	addl	%r8d, %esi
100005334: 8b 44 8f 04                 	movl	4(%rdi,%rcx,4), %eax
100005338: 45 31 c0                    	xorl	%r8d, %r8d
10000533b: 41 39 c7                    	cmpl	%eax, %r15d
10000533e: 41 0f 9f c0                 	setg	%r8b
100005342: 48 63 f6                    	movslq	%esi, %rsi
100005345: 8b 14 b7                    	movl	(%rdi,%rsi,4), %edx
100005348: 89 d3                       	movl	%edx, %ebx
10000534a: 0f 4f d8                    	cmovgl	%eax, %ebx
10000534d: 89 1c b7                    	movl	%ebx, (%rdi,%rsi,4)
100005350: 0f 4f c2                    	cmovgl	%edx, %eax
100005353: 89 44 8f 04                 	movl	%eax, 4(%rdi,%rcx,4)
100005357: 44 01 c6                    	addl	%r8d, %esi
10000535a: 48 83 c1 02                 	addq	$2, %rcx
10000535e: 49 39 ce                    	cmpq	%rcx, %r14
100005361: 75 ad                       	jne	0x100005310 <_partition_quick_optimized+0xe0>
100005363: 48 63 c6                    	movslq	%esi, %rax
100005366: 8b 0c 87                    	movl	(%rdi,%rax,4), %ecx
100005369: 42 8b 34 b7                 	movl	(%rdi,%r14,4), %esi
10000536d: 89 34 87                    	movl	%esi, (%rdi,%rax,4)
100005370: 42 89 0c b7                 	movl	%ecx, (%rdi,%r14,4)
100005374: 5b                          	popq	%rbx
100005375: 41 5e                       	popq	%r14
100005377: 41 5f                       	popq	%r15
100005379: 5d                          	popq	%rbp
10000537a: c3                          	retq
10000537b: 0f 1f 44 00 00              	nopl	(%rax,%rax)

0000000100005380 <_median_of_three>:
100005380: 55                          	pushq	%rbp
100005381: 48 89 e5                    	movq	%rsp, %rbp
100005384: 8d 04 32                    	leal	(%rdx,%rsi), %eax
100005387: 89 c1                       	movl	%eax, %ecx
100005389: c1 e9 1f                    	shrl	$31, %ecx
10000538c: 01 c1                       	addl	%eax, %ecx
10000538e: d1 f9                       	sarl	%ecx
100005390: 4c 63 ce                    	movslq	%esi, %r9
100005393: 42 8b 04 8f                 	movl	(%rdi,%r9,4), %eax
100005397: 4c 63 c1                    	movslq	%ecx, %r8
10000539a: 42 8b 0c 87                 	movl	(%rdi,%r8,4), %ecx
10000539e: 4c 63 d2                    	movslq	%edx, %r10
1000053a1: 42 8b 34 97                 	movl	(%rdi,%r10,4), %esi
1000053a5: 39 c8                       	cmpl	%ecx, %eax
1000053a7: 89 ca                       	movl	%ecx, %edx
1000053a9: 0f 4c d0                    	cmovll	%eax, %edx
1000053ac: 0f 4f c8                    	cmovgl	%eax, %ecx
1000053af: 39 f2                       	cmpl	%esi, %edx
1000053b1: 41 89 f3                    	movl	%esi, %r11d
1000053b4: 44 0f 4c da                 	cmovll	%edx, %r11d
1000053b8: 39 f1                       	cmpl	%esi, %ecx
1000053ba: 89 f0                       	movl	%esi, %eax
1000053bc: 0f 4c c1                    	cmovll	%ecx, %eax
1000053bf: 0f 4e ce                    	cmovlel	%esi, %ecx
1000053c2: 39 c2                       	cmpl	%eax, %edx
1000053c4: 0f 4f c2                    	cmovgl	%edx, %eax
1000053c7: 46 89 1c 8f                 	movl	%r11d, (%rdi,%r9,4)
1000053cb: 42 89 04 97                 	movl	%eax, (%rdi,%r10,4)
1000053cf: 42 89 0c 87                 	movl	%ecx, (%rdi,%r8,4)
1000053d3: 5d                          	popq	%rbp
1000053d4: c3                          	retq
1000053d5: 66 66 2e 0f 1f 84 00 00 00 00 00    	nopw	%cs:(%rax,%rax)

00000001000053e0 <_sort_quick_optimized>:
1000053e0: 55                          	pushq	%rbp
1000053e1: 48 89 e5                    	movq	%rsp, %rbp
1000053e4: 41 57                       	pushq	%r15
1000053e6: 41 56                       	pushq	%r14
1000053e8: 41 55                       	pushq	%r13
1000053ea: 41 54                       	pushq	%r12
1000053ec: 53                          	pushq	%rbx
1000053ed: 50                          	pushq	%rax
1000053ee: 39 f2                       	cmpl	%esi, %edx
1000053f0: 0f 8e 5a 01 00 00           	jle	0x100005550 <_sort_quick_optimized+0x170>
1000053f6: 41 89 d6                    	movl	%edx, %r14d
1000053f9: 49 89 fc                    	movq	%rdi, %r12
1000053fc: 4c 63 fa                    	movslq	%edx, %r15
1000053ff: 4c 89 f8                    	movq	%r15, %rax
100005402: 48 f7 d8                    	negq	%rax
100005405: 48 89 45 d0                 	movq	%rax, -48(%rbp)
100005409: eb 30                       	jmp	0x10000543b <_sort_quick_optimized+0x5b>
10000540b: 0f 1f 44 00 00              	nopl	(%rax,%rax)
100005410: 48 63 df                    	movslq	%edi, %rbx
100005413: 41 8b 04 9c                 	movl	(%r12,%rbx,4), %eax
100005417: 43 8b 0c bc                 	movl	(%r12,%r15,4), %ecx
10000541b: 41 89 0c 9c                 	movl	%ecx, (%r12,%rbx,4)
10000541f: 43 89 04 bc                 	movl	%eax, (%r12,%r15,4)
100005423: 8d 53 ff                    	leal	-1(%rbx), %edx
100005426: 4c 89 e7                    	movq	%r12, %rdi
100005429: e8 b2 ff ff ff              	callq	0x1000053e0 <_sort_quick_optimized>
10000542e: ff c3                       	incl	%ebx
100005430: 89 de                       	movl	%ebx, %esi
100005432: 44 39 f3                    	cmpl	%r14d, %ebx
100005435: 0f 8d 15 01 00 00           	jge	0x100005550 <_sort_quick_optimized+0x170>
10000543b: 44 89 f0                    	movl	%r14d, %eax
10000543e: 29 f0                       	subl	%esi, %eax
100005440: 83 f8 02                    	cmpl	$2, %eax
100005443: 7c 5b                       	jl	0x1000054a0 <_sort_quick_optimized+0xc0>
100005445: 42 8d 04 36                 	leal	(%rsi,%r14), %eax
100005449: 89 c2                       	movl	%eax, %edx
10000544b: c1 ea 1f                    	shrl	$31, %edx
10000544e: 01 c2                       	addl	%eax, %edx
100005450: d1 fa                       	sarl	%edx
100005452: 4c 63 de                    	movslq	%esi, %r11
100005455: 43 8b 04 9c                 	movl	(%r12,%r11,4), %eax
100005459: 4c 63 c2                    	movslq	%edx, %r8
10000545c: 43 8b 3c 84                 	movl	(%r12,%r8,4), %edi
100005460: 47 8b 0c bc                 	movl	(%r12,%r15,4), %r9d
100005464: 39 f8                       	cmpl	%edi, %eax
100005466: 89 fa                       	movl	%edi, %edx
100005468: 0f 4c d0                    	cmovll	%eax, %edx
10000546b: 0f 4f f8                    	cmovgl	%eax, %edi
10000546e: 44 39 ca                    	cmpl	%r9d, %edx
100005471: 45 89 ca                    	movl	%r9d, %r10d
100005474: 44 0f 4c d2                 	cmovll	%edx, %r10d
100005478: 44 39 cf                    	cmpl	%r9d, %edi
10000547b: 45 89 cd                    	movl	%r9d, %r13d
10000547e: 44 0f 4c ef                 	cmovll	%edi, %r13d
100005482: 41 0f 4e f9                 	cmovlel	%r9d, %edi
100005486: 44 39 ea                    	cmpl	%r13d, %edx
100005489: 44 0f 4f ea                 	cmovgl	%edx, %r13d
10000548d: 47 89 14 9c                 	movl	%r10d, (%r12,%r11,4)
100005491: 47 89 2c bc                 	movl	%r13d, (%r12,%r15,4)
100005495: 43 89 3c 84                 	movl	%edi, (%r12,%r8,4)
100005499: eb 0c                       	jmp	0x1000054a7 <_sort_quick_optimized+0xc7>
10000549b: 0f 1f 44 00 00              	nopl	(%rax,%rax)
1000054a0: 47 8b 2c bc                 	movl	(%r12,%r15,4), %r13d
1000054a4: 4c 63 de                    	movslq	%esi, %r11
1000054a7: 44 89 f1                    	movl	%r14d, %ecx
1000054aa: 44 29 d9                    	subl	%r11d, %ecx
1000054ad: 4c 89 da                    	movq	%r11, %rdx
1000054b0: 89 f7                       	movl	%esi, %edi
1000054b2: f6 c1 01                    	testb	$1, %cl
1000054b5: 74 2c                       	je	0x1000054e3 <_sort_quick_optimized+0x103>
1000054b7: 43 8b 0c 9c                 	movl	(%r12,%r11,4), %ecx
1000054bb: 31 ff                       	xorl	%edi, %edi
1000054bd: 41 39 cd                    	cmpl	%ecx, %r13d
1000054c0: 40 0f 9f c7                 	setg	%dil
1000054c4: 4c 63 ce                    	movslq	%esi, %r9
1000054c7: 47 8b 04 8c                 	movl	(%r12,%r9,4), %r8d
1000054cb: 44 89 c2                    	movl	%r8d, %edx
1000054ce: 0f 4f d1                    	cmovgl	%ecx, %edx
1000054d1: 43 89 14 8c                 	movl	%edx, (%r12,%r9,4)
1000054d5: 41 0f 4f c8                 	cmovgl	%r8d, %ecx
1000054d9: 43 89 0c 9c                 	movl	%ecx, (%r12,%r11,4)
1000054dd: 01 f7                       	addl	%esi, %edi
1000054df: 49 8d 53 01                 	leaq	1(%r11), %rdx
1000054e3: 49 f7 d3                    	notq	%r11
1000054e6: 4c 3b 5d d0                 	cmpq	-48(%rbp), %r11
1000054ea: 0f 84 20 ff ff ff           	je	0x100005410 <_sort_quick_optimized+0x30>
1000054f0: 41 8b 0c 94                 	movl	(%r12,%rdx,4), %ecx
1000054f4: 45 31 c0                    	xorl	%r8d, %r8d
1000054f7: 41 39 cd                    	cmpl	%ecx, %r13d
1000054fa: 41 0f 9f c0                 	setg	%r8b
1000054fe: 48 63 ff                    	movslq	%edi, %rdi
100005501: 41 8b 04 bc                 	movl	(%r12,%rdi,4), %eax
100005505: 89 c3                       	movl	%eax, %ebx
100005507: 0f 4f d9                    	cmovgl	%ecx, %ebx
10000550a: 41 89 1c bc                 	movl	%ebx, (%r12,%rdi,4)
10000550e: 0f 4f c8                    	cmovgl	%eax, %ecx
100005511: 41 89 0c 94                 	movl	%ecx, (%r12,%rdx,4)
100005515: 44 01 c7                    	addl	%r8d, %edi
100005518: 41 8b 44 94 04              	movl	4(%r12,%rdx,4), %eax
10000551d: 45 31 c0                    	xorl	%r8d, %r8d
100005520: 41 39 c5                    	cmpl	%eax, %r13d
100005523: 41 0f 9f c0                 	setg	%r8b
100005527: 48 63 ff                    	movslq	%edi, %rdi
10000552a: 41 8b 0c bc                 	movl	(%r12,%rdi,4), %ecx
10000552e: 89 cb                       	movl	%ecx, %ebx
100005530: 0f 4f d8                    	cmovgl	%eax, %ebx
100005533: 41 89 1c bc                 	movl	%ebx, (%r12,%rdi,4)
100005537: 0f 4f c1                    	cmovgl	%ecx, %eax
10000553a: 41 89 44 94 04              	movl	%eax, 4(%r12,%rdx,4)
10000553f: 44 01 c7                    	addl	%r8d, %edi
100005542: 48 83 c2 02                 	addq	$2, %rdx
100005546: 49 39 d7                    	cmpq	%rdx, %r15
100005549: 75 a5                       	jne	0x1000054f0 <_sort_quick_optimized+0x110>
10000554b: e9 c0 fe ff ff              	jmp	0x100005410 <_sort_quick_optimized+0x30>
100005550: 48 83 c4 08                 	addq	$8, %rsp
100005554: 5b                          	popq	%rbx
100005555: 41 5c                       	popq	%r12
100005557: 41 5d                       	popq	%r13
100005559: 41 5e                       	popq	%r14
10000555b: 41 5f                       	popq	%r15
10000555d: 5d                          	popq	%rbp
10000555e: c3                          	retq
10000555f: 90                          	nop

0000000100005560 <_swap_quick_simd>:
100005560: 55                          	pushq	%rbp
100005561: 48 89 e5                    	movq	%rsp, %rbp
100005564: 8b 07                       	movl	(%rdi), %eax
100005566: 8b 0e                       	movl	(%rsi), %ecx
100005568: 89 0f                       	movl	%ecx, (%rdi)
10000556a: 89 06                       	movl	%eax, (%rsi)
10000556c: 5d                          	popq	%rbp
10000556d: c3                          	retq
10000556e: 66 90                       	nop

0000000100005570 <_partition_quick_simd>:
100005570: 55                          	pushq	%rbp
100005571: 48 89 e5                    	movq	%rsp, %rbp
100005574: 41 57                       	pushq	%r15
100005576: 41 56                       	pushq	%r14
100005578: 53                          	pushq	%rbx
100005579: 89 d1                       	movl	%edx, %ecx
10000557b: 29 f1                       	subl	%esi, %ecx
10000557d: 83 f9 02                    	cmpl	$2, %ecx
100005580: 7c 5e                       	jl	0x1000055e0 <_partition_quick_simd+0x70>
100005582: 44 8d 04 32                 	leal	(%rdx,%rsi), %r8d
100005586: 44 89 c0                    	movl	%r8d, %eax
100005589: c1 e8 1f                    	shrl	$31, %eax
10000558c: 44 01 c0                    	addl	%r8d, %eax
10000558f: d1 f8                       	sarl	%eax
100005591: 4c 63 ce                    	movslq	%esi, %r9
100005594: 46 8b 04 8f                 	movl	(%rdi,%r9,4), %r8d
100005598: 4c 63 d0                    	movslq	%eax, %r10
10000559b: 42 8b 04 97                 	movl	(%rdi,%r10,4), %eax
10000559f: 4c 63 da                    	movslq	%edx, %r11
1000055a2: 46 8b 34 9f                 	movl	(%rdi,%r11,4), %r14d
1000055a6: 41 39 c0                    	cmpl	%eax, %r8d
1000055a9: 89 c3                       	movl	%eax, %ebx
1000055ab: 41 0f 4c d8                 	cmovll	%r8d, %ebx
1000055af: 41 0f 4f c0                 	cmovgl	%r8d, %eax
1000055b3: 44 39 f3                    	cmpl	%r14d, %ebx
1000055b6: 45 89 f7                    	movl	%r14d, %r15d
1000055b9: 44 0f 4c fb                 	cmovll	%ebx, %r15d
1000055bd: 44 39 f0                    	cmpl	%r14d, %eax
1000055c0: 45 89 f0                    	movl	%r14d, %r8d
1000055c3: 44 0f 4c c0                 	cmovll	%eax, %r8d
1000055c7: 41 0f 4e c6                 	cmovlel	%r14d, %eax
1000055cb: 44 39 c3                    	cmpl	%r8d, %ebx
1000055ce: 44 0f 4f c3                 	cmovgl	%ebx, %r8d
1000055d2: 46 89 3c 8f                 	movl	%r15d, (%rdi,%r9,4)
1000055d6: 46 89 04 9f                 	movl	%r8d, (%rdi,%r11,4)
1000055da: 42 89 04 97                 	movl	%eax, (%rdi,%r10,4)
1000055de: eb 07                       	jmp	0x1000055e7 <_partition_quick_simd+0x77>
1000055e0: 48 63 c2                    	movslq	%edx, %rax
1000055e3: 44 8b 04 87                 	movl	(%rdi,%rax,4), %r8d
1000055e7: 8d 41 07                    	leal	7(%rcx), %eax
1000055ea: 85 c9                       	testl	%ecx, %ecx
1000055ec: 0f 49 c1                    	cmovnsl	%ecx, %eax
1000055ef: 83 e0 f8                    	andl	$-8, %eax
1000055f2: 39 f0                       	cmpl	%esi, %eax
1000055f4: 0f 8e 19 02 00 00           	jle	0x100005813 <_partition_quick_simd+0x2a3>
1000055fa: c4 c1 79 6e c0              	vmovd	%r8d, %xmm0
1000055ff: c4 e2 7d 58 c0              	vpbroadcastd	%xmm0, %ymm0
100005604: 48 63 ce                    	movslq	%esi, %rcx
100005607: 4c 63 c8                    	movslq	%eax, %r9
10000560a: 66 0f 1f 44 00 00           	nopw	(%rax,%rax)
100005610: c5 fd 66 0c 8f              	vpcmpgtd	(%rdi,%rcx,4), %ymm0, %ymm1
100005615: c5 f5 72 d1 1f              	vpsrld	$31, %ymm1, %ymm1
10000561a: c5 fa 6f 14 8f              	vmovdqu	(%rdi,%rcx,4), %xmm2
10000561f: c5 fe 7f 4d c0              	vmovdqu	%ymm1, -64(%rbp)
100005624: c4 c1 79 7e ca              	vmovd	%xmm1, %r10d
100005629: 48 63 f6                    	movslq	%esi, %rsi
10000562c: 8b 04 b7                    	movl	(%rdi,%rsi,4), %eax
10000562f: c4 c1 79 7e d3              	vmovd	%xmm2, %r11d
100005634: 45 85 d2                    	testl	%r10d, %r10d
100005637: 44 89 db                    	movl	%r11d, %ebx
10000563a: 0f 44 d8                    	cmovel	%eax, %ebx
10000563d: 89 1c b7                    	movl	%ebx, (%rdi,%rsi,4)
100005640: 41 0f 44 c3                 	cmovel	%r11d, %eax
100005644: 89 04 8f                    	movl	%eax, (%rdi,%rcx,4)
100005647: 44 01 d6                    	addl	%r10d, %esi
10000564a: c4 c3 79 16 ca 01           	vpextrd	$1, %xmm1, %r10d
100005650: 48 63 f6                    	movslq	%esi, %rsi
100005653: 8b 1c b7                    	movl	(%rdi,%rsi,4), %ebx
100005656: 44 8b 5c 8f 04              	movl	4(%rdi,%rcx,4), %r11d
10000565b: 45 85 d2                    	testl	%r10d, %r10d
10000565e: 44 89 d8                    	movl	%r11d, %eax
100005661: 0f 44 c3                    	cmovel	%ebx, %eax
100005664: 89 04 b7                    	movl	%eax, (%rdi,%rsi,4)
100005667: 41 0f 44 db                 	cmovel	%r11d, %ebx
10000566b: 89 5c 8f 04                 	movl	%ebx, 4(%rdi,%rcx,4)
10000566f: c4 c3 79 16 cb 02           	vpextrd	$2, %xmm1, %r11d
100005675: 44 01 d6                    	addl	%r10d, %esi
100005678: 48 63 f6                    	movslq	%esi, %rsi
10000567b: 8b 1c b7                    	movl	(%rdi,%rsi,4), %ebx
10000567e: 44 8b 54 8f 08              	movl	8(%rdi,%rcx,4), %r10d
100005683: 45 85 db                    	testl	%r11d, %r11d
100005686: 44 89 d0                    	movl	%r10d, %eax
100005689: 0f 44 c3                    	cmovel	%ebx, %eax
10000568c: 89 04 b7                    	movl	%eax, (%rdi,%rsi,4)
10000568f: 41 0f 44 da                 	cmovel	%r10d, %ebx
100005693: 89 5c 8f 08                 	movl	%ebx, 8(%rdi,%rcx,4)
100005697: 44 01 de                    	addl	%r11d, %esi
10000569a: c4 c3 79 16 ca 03           	vpextrd	$3, %xmm1, %r10d
1000056a0: 48 63 f6                    	movslq	%esi, %rsi
1000056a3: 8b 1c b7                    	movl	(%rdi,%rsi,4), %ebx
1000056a6: 44 8b 5c 8f 0c              	movl	12(%rdi,%rcx,4), %r11d
1000056ab: 45 85 d2                    	testl	%r10d, %r10d
1000056ae: 44 89 d8                    	movl	%r11d, %eax
1000056b1: 0f 44 c3                    	cmovel	%ebx, %eax
1000056b4: 89 04 b7                    	movl	%eax, (%rdi,%rsi,4)
1000056b7: 41 0f 44 db                 	cmovel	%r11d, %ebx
1000056bb: 89 5c 8f 0c                 	movl	%ebx, 12(%rdi,%rcx,4)
1000056bf: 44 01 d6                    	addl	%r10d, %esi
1000056c2: c4 e3 7d 39 c9 01           	vextracti128	$1, %ymm1, %xmm1
1000056c8: c4 c1 79 7e ca              	vmovd	%xmm1, %r10d
1000056cd: 48 63 f6                    	movslq	%esi, %rsi
1000056d0: 8b 1c b7                    	movl	(%rdi,%rsi,4), %ebx
1000056d3: 44 8b 5c 8f 10              	movl	16(%rdi,%rcx,4), %r11d
1000056d8: 45 85 d2                    	testl	%r10d, %r10d
1000056db: 44 89 d8                    	movl	%r11d, %eax
1000056de: 0f 44 c3                    	cmovel	%ebx, %eax
1000056e1: 89 04 b7                    	movl	%eax, (%rdi,%rsi,4)
1000056e4: 41 0f 44 db                 	cmovel	%r11d, %ebx
1000056e8: 89 5c 8f 10                 	movl	%ebx, 16(%rdi,%rcx,4)
1000056ec: 44 01 d6                    	addl	%r10d, %esi
1000056ef: c4 c3 79 16 ca 01           	vpextrd	$1, %xmm1, %r10d
1000056f5: 48 63 f6                    	movslq	%esi, %rsi
1000056f8: 8b 1c b7                    	movl	(%rdi,%rsi,4), %ebx
1000056fb: 44 8b 5c 8f 14              	movl	20(%rdi,%rcx,4), %r11d
100005700: 45 85 d2                    	testl	%r10d, %r10d
100005703: 44 89 d8                    	movl	%r11d, %eax
100005706: 0f 44 c3                    	cmovel	%ebx, %eax
100005709: 89 04 b7                    	movl	%eax, (%rdi,%rsi,4)
10000570c: 41 0f 44 db                 	cmovel	%r11d, %ebx
100005710: 89 5c 8f 14                 	movl	%ebx, 20(%rdi,%rcx,4)
100005714: 44 01 d6                    	addl	%r10d, %esi
100005717: c4 c3 79 16 ca 02           	vpextrd	$2, %xmm1, %r10d
10000571d: 48 63 f6                    	movslq	%esi, %rsi
100005720: 8b 1c b7                    	movl	(%rdi,%rsi,4), %ebx
100005723: 44 8b 5c 8f 18              	movl	24(%rdi,%rcx,4), %r11d
100005728: 45 85 d2                    	testl	%r10d, %r10d
10000572b: 44 89 d8                    	movl	%r11d, %eax
10000572e: 0f 44 c3                    	cmovel	%ebx, %eax
100005731: 89 04 b7                    	movl	%eax, (%rdi,%rsi,4)
100005734: 41 0f 44 db                 	cmovel	%r11d, %ebx
100005738: 89 5c 8f 18                 	movl	%ebx, 24(%rdi,%rcx,4)
10000573c: 44 01 d6                    	addl	%r10d, %esi
10000573f: 44 8b 55 dc                 	movl	-36(%rbp), %r10d
100005743: 48 63 f6                    	movslq	%esi, %rsi
100005746: 8b 1c b7                    	movl	(%rdi,%rsi,4), %ebx
100005749: 44 8b 5c 8f 1c              	movl	28(%rdi,%rcx,4), %r11d
10000574e: 45 85 d2                    	testl	%r10d, %r10d
100005751: 44 89 d8                    	movl	%r11d, %eax
100005754: 0f 44 c3                    	cmovel	%ebx, %eax
100005757: 89 04 b7                    	movl	%eax, (%rdi,%rsi,4)
10000575a: 41 0f 44 db                 	cmovel	%r11d, %ebx
10000575e: 89 5c 8f 1c                 	movl	%ebx, 28(%rdi,%rcx,4)
100005762: 44 01 d6                    	addl	%r10d, %esi
100005765: 48 83 c1 08                 	addq	$8, %rcx
100005769: 4c 39 c9                    	cmpq	%r9, %rcx
10000576c: 0f 8c 9e fe ff ff           	jl	0x100005610 <_partition_quick_simd+0xa0>
100005772: 39 d1                       	cmpl	%edx, %ecx
100005774: 0f 8d a3 00 00 00           	jge	0x10000581d <_partition_quick_simd+0x2ad>
10000577a: 4c 63 f1                    	movslq	%ecx, %r14
10000577d: 4c 63 ca                    	movslq	%edx, %r9
100005780: 29 ca                       	subl	%ecx, %edx
100005782: 4c 89 f1                    	movq	%r14, %rcx
100005785: 48 f7 d1                    	notq	%rcx
100005788: f6 c2 01                    	testb	$1, %dl
10000578b: 74 2c                       	je	0x1000057b9 <_partition_quick_simd+0x249>
10000578d: 42 8b 14 b7                 	movl	(%rdi,%r14,4), %edx
100005791: 45 31 d2                    	xorl	%r10d, %r10d
100005794: 41 39 d0                    	cmpl	%edx, %r8d
100005797: 41 0f 9f c2                 	setg	%r10b
10000579b: 48 63 f6                    	movslq	%esi, %rsi
10000579e: 44 8b 1c b7                 	movl	(%rdi,%rsi,4), %r11d
1000057a2: 44 89 db                    	movl	%r11d, %ebx
1000057a5: 0f 4f da                    	cmovgl	%edx, %ebx
1000057a8: 89 1c b7                    	movl	%ebx, (%rdi,%rsi,4)
1000057ab: 41 0f 4f d3                 	cmovgl	%r11d, %edx
1000057af: 42 89 14 b7                 	movl	%edx, (%rdi,%r14,4)
1000057b3: 44 01 d6                    	addl	%r10d, %esi
1000057b6: 49 ff c6                    	incq	%r14
1000057b9: 4c 01 c9                    	addq	%r9, %rcx
1000057bc: 74 62                       	je	0x100005820 <_partition_quick_simd+0x2b0>
1000057be: 66 90                       	nop
1000057c0: 42 8b 0c b7                 	movl	(%rdi,%r14,4), %ecx
1000057c4: 31 d2                       	xorl	%edx, %edx
1000057c6: 41 39 c8                    	cmpl	%ecx, %r8d
1000057c9: 0f 9f c2                    	setg	%dl
1000057cc: 48 63 f6                    	movslq	%esi, %rsi
1000057cf: 8b 04 b7                    	movl	(%rdi,%rsi,4), %eax
1000057d2: 89 c3                       	movl	%eax, %ebx
1000057d4: 0f 4f d9                    	cmovgl	%ecx, %ebx
1000057d7: 89 1c b7                    	movl	%ebx, (%rdi,%rsi,4)
1000057da: 0f 4f c8                    	cmovgl	%eax, %ecx
1000057dd: 42 89 0c b7                 	movl	%ecx, (%rdi,%r14,4)
1000057e1: 01 d6                       	addl	%edx, %esi
1000057e3: 42 8b 44 b7 04              	movl	4(%rdi,%r14,4), %eax
1000057e8: 31 c9                       	xorl	%ecx, %ecx
1000057ea: 41 39 c0                    	cmpl	%eax, %r8d
1000057ed: 0f 9f c1                    	setg	%cl
1000057f0: 48 63 f6                    	movslq	%esi, %rsi
1000057f3: 8b 1c b7                    	movl	(%rdi,%rsi,4), %ebx
1000057f6: 89 da                       	movl	%ebx, %edx
1000057f8: 0f 4f d0                    	cmovgl	%eax, %edx
1000057fb: 89 14 b7                    	movl	%edx, (%rdi,%rsi,4)
1000057fe: 0f 4f c3                    	cmovgl	%ebx, %eax
100005801: 42 89 44 b7 04              	movl	%eax, 4(%rdi,%r14,4)
100005806: 01 ce                       	addl	%ecx, %esi
100005808: 49 83 c6 02                 	addq	$2, %r14
10000580c: 4d 39 f1                    	cmpq	%r14, %r9
10000580f: 75 af                       	jne	0x1000057c0 <_partition_quick_simd+0x250>
100005811: eb 0d                       	jmp	0x100005820 <_partition_quick_simd+0x2b0>
100005813: 89 f1                       	movl	%esi, %ecx
100005815: 39 d1                       	cmpl	%edx, %ecx
100005817: 0f 8c 5d ff ff ff           	jl	0x10000577a <_partition_quick_simd+0x20a>
10000581d: 4c 63 ca                    	movslq	%edx, %r9
100005820: 48 63 c6                    	movslq	%esi, %rax
100005823: 8b 0c 87                    	movl	(%rdi,%rax,4), %ecx
100005826: 42 8b 14 8f                 	movl	(%rdi,%r9,4), %edx
10000582a: 89 14 87                    	movl	%edx, (%rdi,%rax,4)
10000582d: 42 89 0c 8f                 	movl	%ecx, (%rdi,%r9,4)
100005831: 5b                          	popq	%rbx
100005832: 41 5e                       	popq	%r14
100005834: 41 5f                       	popq	%r15
100005836: 5d                          	popq	%rbp
100005837: c5 f8 77                    	vzeroupper
10000583a: c3                          	retq
10000583b: 0f 1f 44 00 00              	nopl	(%rax,%rax)

0000000100005840 <_sort_quick_simd>:
100005840: 55                          	pushq	%rbp
100005841: 48 89 e5                    	movq	%rsp, %rbp
100005844: 41 57                       	pushq	%r15
100005846: 41 56                       	pushq	%r14
100005848: 41 54                       	pushq	%r12
10000584a: 53                          	pushq	%rbx
10000584b: 39 d6                       	cmpl	%edx, %esi
10000584d: 7d 39                       	jge	0x100005888 <_sort_quick_simd+0x48>
10000584f: 41 89 d6                    	movl	%edx, %r14d
100005852: 41 89 f4                    	movl	%esi, %r12d
100005855: 49 89 ff                    	movq	%rdi, %r15
100005858: 0f 1f 84 00 00 00 00 00     	nopl	(%rax,%rax)
100005860: 4c 89 ff                    	movq	%r15, %rdi
100005863: 44 89 e6                    	movl	%r12d, %esi
100005866: 44 89 f2                    	movl	%r14d, %edx
100005869: e8 02 fd ff ff              	callq	0x100005570 <_partition_quick_simd>
10000586e: 89 c3                       	movl	%eax, %ebx
100005870: 8d 53 ff                    	leal	-1(%rbx), %edx
100005873: 4c 89 ff                    	movq	%r15, %rdi
100005876: 44 89 e6                    	movl	%r12d, %esi
100005879: e8 c2 ff ff ff              	callq	0x100005840 <_sort_quick_simd>
10000587e: ff c3                       	incl	%ebx
100005880: 41 89 dc                    	movl	%ebx, %r12d
100005883: 44 39 f3                    	cmpl	%r14d, %ebx
100005886: 7c d8                       	jl	0x100005860 <_sort_quick_simd+0x20>
100005888: 5b                          	popq	%rbx
100005889: 41 5c                       	popq	%r12
10000588b: 41 5e                       	popq	%r14
10000588d: 41 5f                       	popq	%r15
10000588f: 5d                          	popq	%rbp
100005890: c3                          	retq
100005891: 66 66 66 66 66 66 2e 0f 1f 84 00 00 00 00 00	nopw	%cs:(%rax,%rax)

00000001000058a0 <_swap_quick_standard>:
1000058a0: 55                          	pushq	%rbp
1000058a1: 48 89 e5                    	movq	%rsp, %rbp
1000058a4: 8b 07                       	movl	(%rdi), %eax
1000058a6: 8b 0e                       	movl	(%rsi), %ecx
1000058a8: 89 0f                       	movl	%ecx, (%rdi)
1000058aa: 89 06                       	movl	%eax, (%rsi)
1000058ac: 5d                          	popq	%rbp
1000058ad: c3                          	retq
1000058ae: 66 90                       	nop

00000001000058b0 <_partition_quick_standard>:
1000058b0: 55                          	pushq	%rbp
1000058b1: 48 89 e5                    	movq	%rsp, %rbp
1000058b4: 41 56                       	pushq	%r14
1000058b6: 53                          	pushq	%rbx
1000058b7: 89 d0                       	movl	%edx, %eax
1000058b9: 29 f0                       	subl	%esi, %eax
1000058bb: 83 f8 02                    	cmpl	$2, %eax
1000058be: 7c 64                       	jl	0x100005924 <_partition_quick_standard+0x74>
1000058c0: 8d 04 32                    	leal	(%rdx,%rsi), %eax
1000058c3: 89 c1                       	movl	%eax, %ecx
1000058c5: c1 e9 1f                    	shrl	$31, %ecx
1000058c8: 01 c1                       	addl	%eax, %ecx
1000058ca: d1 f9                       	sarl	%ecx
1000058cc: 4c 63 c6                    	movslq	%esi, %r8
1000058cf: 46 8b 0c 87                 	movl	(%rdi,%r8,4), %r9d
1000058d3: 4c 63 d1                    	movslq	%ecx, %r10
1000058d6: 42 8b 0c 97                 	movl	(%rdi,%r10,4), %ecx
1000058da: 4c 63 da                    	movslq	%edx, %r11
1000058dd: 42 8b 1c 9f                 	movl	(%rdi,%r11,4), %ebx
1000058e1: 41 39 c9                    	cmpl	%ecx, %r9d
1000058e4: 89 c8                       	movl	%ecx, %eax
1000058e6: 41 0f 4c c1                 	cmovll	%r9d, %eax
1000058ea: 41 0f 4f c9                 	cmovgl	%r9d, %ecx
1000058ee: 39 d8                       	cmpl	%ebx, %eax
1000058f0: 41 89 de                    	movl	%ebx, %r14d
1000058f3: 44 0f 4c f0                 	cmovll	%eax, %r14d
1000058f7: 39 d9                       	cmpl	%ebx, %ecx
1000058f9: 41 89 d9                    	movl	%ebx, %r9d
1000058fc: 44 0f 4c c9                 	cmovll	%ecx, %r9d
100005900: 0f 4e cb                    	cmovlel	%ebx, %ecx
100005903: 44 39 c8                    	cmpl	%r9d, %eax
100005906: 44 0f 4f c8                 	cmovgl	%eax, %r9d
10000590a: 46 89 34 87                 	movl	%r14d, (%rdi,%r8,4)
10000590e: 46 89 0c 9f                 	movl	%r9d, (%rdi,%r11,4)
100005912: 42 89 0c 97                 	movl	%ecx, (%rdi,%r10,4)
100005916: 8d 46 ff                    	leal	-1(%rsi), %eax
100005919: 89 d1                       	movl	%edx, %ecx
10000591b: 29 f1                       	subl	%esi, %ecx
10000591d: 7f 15                       	jg	0x100005934 <_partition_quick_standard+0x84>
10000591f: 4c 63 d2                    	movslq	%edx, %r10
100005922: eb 2b                       	jmp	0x10000594f <_partition_quick_standard+0x9f>
100005924: 48 63 c2                    	movslq	%edx, %rax
100005927: 44 8b 0c 87                 	movl	(%rdi,%rax,4), %r9d
10000592b: 8d 46 ff                    	leal	-1(%rsi), %eax
10000592e: 89 d1                       	movl	%edx, %ecx
100005930: 29 f1                       	subl	%esi, %ecx
100005932: 7e eb                       	jle	0x10000591f <_partition_quick_standard+0x6f>
100005934: 48 63 f6                    	movslq	%esi, %rsi
100005937: 4c 63 d2                    	movslq	%edx, %r10
10000593a: 49 89 f0                    	movq	%rsi, %r8
10000593d: 49 f7 d0                    	notq	%r8
100005940: 4d 01 d0                    	addq	%r10, %r8
100005943: 48 83 e1 03                 	andq	$3, %rcx
100005947: 75 2f                       	jne	0x100005978 <_partition_quick_standard+0xc8>
100005949: 49 83 f8 03                 	cmpq	$3, %r8
10000594d: 73 5a                       	jae	0x1000059a9 <_partition_quick_standard+0xf9>
10000594f: 48 63 c8                    	movslq	%eax, %rcx
100005952: ff c0                       	incl	%eax
100005954: 8b 54 8f 04                 	movl	4(%rdi,%rcx,4), %edx
100005958: 42 8b 34 97                 	movl	(%rdi,%r10,4), %esi
10000595c: 89 74 8f 04                 	movl	%esi, 4(%rdi,%rcx,4)
100005960: 42 89 14 97                 	movl	%edx, (%rdi,%r10,4)
100005964: 5b                          	popq	%rbx
100005965: 41 5e                       	popq	%r14
100005967: 5d                          	popq	%rbp
100005968: c3                          	retq
100005969: 0f 1f 80 00 00 00 00        	nopl	(%rax)
100005970: 48 ff c6                    	incq	%rsi
100005973: 48 ff c9                    	decq	%rcx
100005976: 74 d1                       	je	0x100005949 <_partition_quick_standard+0x99>
100005978: 8b 14 b7                    	movl	(%rdi,%rsi,4), %edx
10000597b: 44 39 ca                    	cmpl	%r9d, %edx
10000597e: 7f f0                       	jg	0x100005970 <_partition_quick_standard+0xc0>
100005980: 48 63 d8                    	movslq	%eax, %rbx
100005983: ff c0                       	incl	%eax
100005985: 44 8b 5c 9f 04              	movl	4(%rdi,%rbx,4), %r11d
10000598a: 89 54 9f 04                 	movl	%edx, 4(%rdi,%rbx,4)
10000598e: 44 89 1c b7                 	movl	%r11d, (%rdi,%rsi,4)
100005992: eb dc                       	jmp	0x100005970 <_partition_quick_standard+0xc0>
100005994: 66 66 66 2e 0f 1f 84 00 00 00 00 00 	nopw	%cs:(%rax,%rax)
1000059a0: 48 83 c6 04                 	addq	$4, %rsi
1000059a4: 49 39 f2                    	cmpq	%rsi, %r10
1000059a7: 74 a6                       	je	0x10000594f <_partition_quick_standard+0x9f>
1000059a9: 8b 0c b7                    	movl	(%rdi,%rsi,4), %ecx
1000059ac: 44 39 c9                    	cmpl	%r9d, %ecx
1000059af: 7e 1f                       	jle	0x1000059d0 <_partition_quick_standard+0x120>
1000059b1: 8b 4c b7 04                 	movl	4(%rdi,%rsi,4), %ecx
1000059b5: 44 39 c9                    	cmpl	%r9d, %ecx
1000059b8: 7e 2f                       	jle	0x1000059e9 <_partition_quick_standard+0x139>
1000059ba: 8b 4c b7 08                 	movl	8(%rdi,%rsi,4), %ecx
1000059be: 44 39 c9                    	cmpl	%r9d, %ecx
1000059c1: 7e 40                       	jle	0x100005a03 <_partition_quick_standard+0x153>
1000059c3: 8b 4c b7 0c                 	movl	12(%rdi,%rsi,4), %ecx
1000059c7: 44 39 c9                    	cmpl	%r9d, %ecx
1000059ca: 7f d4                       	jg	0x1000059a0 <_partition_quick_standard+0xf0>
1000059cc: eb 4f                       	jmp	0x100005a1d <_partition_quick_standard+0x16d>
1000059ce: 66 90                       	nop
1000059d0: 48 63 d0                    	movslq	%eax, %rdx
1000059d3: ff c0                       	incl	%eax
1000059d5: 8b 5c 97 04                 	movl	4(%rdi,%rdx,4), %ebx
1000059d9: 89 4c 97 04                 	movl	%ecx, 4(%rdi,%rdx,4)
1000059dd: 89 1c b7                    	movl	%ebx, (%rdi,%rsi,4)
1000059e0: 8b 4c b7 04                 	movl	4(%rdi,%rsi,4), %ecx
1000059e4: 44 39 c9                    	cmpl	%r9d, %ecx
1000059e7: 7f d1                       	jg	0x1000059ba <_partition_quick_standard+0x10a>
1000059e9: 48 63 d0                    	movslq	%eax, %rdx
1000059ec: ff c0                       	incl	%eax
1000059ee: 8b 5c 97 04                 	movl	4(%rdi,%rdx,4), %ebx
1000059f2: 89 4c 97 04                 	movl	%ecx, 4(%rdi,%rdx,4)
1000059f6: 89 5c b7 04                 	movl	%ebx, 4(%rdi,%rsi,4)
1000059fa: 8b 4c b7 08                 	movl	8(%rdi,%rsi,4), %ecx
1000059fe: 44 39 c9                    	cmpl	%r9d, %ecx
100005a01: 7f c0                       	jg	0x1000059c3 <_partition_quick_standard+0x113>
100005a03: 48 63 d0                    	movslq	%eax, %rdx
100005a06: ff c0                       	incl	%eax
100005a08: 8b 5c 97 04                 	movl	4(%rdi,%rdx,4), %ebx
100005a0c: 89 4c 97 04                 	movl	%ecx, 4(%rdi,%rdx,4)
100005a10: 89 5c b7 08                 	movl	%ebx, 8(%rdi,%rsi,4)
100005a14: 8b 4c b7 0c                 	movl	12(%rdi,%rsi,4), %ecx
100005a18: 44 39 c9                    	cmpl	%r9d, %ecx
100005a1b: 7f 83                       	jg	0x1000059a0 <_partition_quick_standard+0xf0>
100005a1d: 48 63 d0                    	movslq	%eax, %rdx
100005a20: ff c0                       	incl	%eax
100005a22: 8b 5c 97 04                 	movl	4(%rdi,%rdx,4), %ebx
100005a26: 89 4c 97 04                 	movl	%ecx, 4(%rdi,%rdx,4)
100005a2a: 89 5c b7 0c                 	movl	%ebx, 12(%rdi,%rsi,4)
100005a2e: e9 6d ff ff ff              	jmp	0x1000059a0 <_partition_quick_standard+0xf0>
100005a33: 66 66 66 66 2e 0f 1f 84 00 00 00 00 00      	nopw	%cs:(%rax,%rax)

0000000100005a40 <_sort_quick_standard>:
100005a40: 55                          	pushq	%rbp
100005a41: 48 89 e5                    	movq	%rsp, %rbp
100005a44: 41 57                       	pushq	%r15
100005a46: 41 56                       	pushq	%r14
100005a48: 41 54                       	pushq	%r12
100005a4a: 53                          	pushq	%rbx
100005a4b: 39 f2                       	cmpl	%esi, %edx
100005a4d: 0f 8e a8 01 00 00           	jle	0x100005bfb <_sort_quick_standard+0x1bb>
100005a53: 41 89 d6                    	movl	%edx, %r14d
100005a56: 48 89 fb                    	movq	%rdi, %rbx
100005a59: 4c 63 e2                    	movslq	%edx, %r12
100005a5c: eb 32                       	jmp	0x100005a90 <_sort_quick_standard+0x50>
100005a5e: 66 90                       	nop
100005a60: 4d 63 fa                    	movslq	%r10d, %r15
100005a63: 42 8b 44 bb 04              	movl	4(%rbx,%r15,4), %eax
100005a68: 42 8b 0c a3                 	movl	(%rbx,%r12,4), %ecx
100005a6c: 42 89 4c bb 04              	movl	%ecx, 4(%rbx,%r15,4)
100005a71: 42 89 04 a3                 	movl	%eax, (%rbx,%r12,4)
100005a75: 48 89 df                    	movq	%rbx, %rdi
100005a78: 44 89 fa                    	movl	%r15d, %edx
100005a7b: e8 c0 ff ff ff              	callq	0x100005a40 <_sort_quick_standard>
100005a80: 41 83 c7 02                 	addl	$2, %r15d
100005a84: 44 89 fe                    	movl	%r15d, %esi
100005a87: 45 39 f7                    	cmpl	%r14d, %r15d
100005a8a: 0f 8d 6b 01 00 00           	jge	0x100005bfb <_sort_quick_standard+0x1bb>
100005a90: 44 89 f0                    	movl	%r14d, %eax
100005a93: 29 f0                       	subl	%esi, %eax
100005a95: 83 f8 02                    	cmpl	$2, %eax
100005a98: 7c 56                       	jl	0x100005af0 <_sort_quick_standard+0xb0>
100005a9a: 42 8d 04 36                 	leal	(%rsi,%r14), %eax
100005a9e: 89 c1                       	movl	%eax, %ecx
100005aa0: c1 e9 1f                    	shrl	$31, %ecx
100005aa3: 01 c1                       	addl	%eax, %ecx
100005aa5: d1 f9                       	sarl	%ecx
100005aa7: 48 63 c6                    	movslq	%esi, %rax
100005aaa: 44 8b 0c 83                 	movl	(%rbx,%rax,4), %r9d
100005aae: 4c 63 c1                    	movslq	%ecx, %r8
100005ab1: 42 8b 3c 83                 	movl	(%rbx,%r8,4), %edi
100005ab5: 42 8b 0c a3                 	movl	(%rbx,%r12,4), %ecx
100005ab9: 41 39 f9                    	cmpl	%edi, %r9d
100005abc: 89 fa                       	movl	%edi, %edx
100005abe: 41 0f 4c d1                 	cmovll	%r9d, %edx
100005ac2: 41 0f 4f f9                 	cmovgl	%r9d, %edi
100005ac6: 39 ca                       	cmpl	%ecx, %edx
100005ac8: 41 89 ca                    	movl	%ecx, %r10d
100005acb: 44 0f 4c d2                 	cmovll	%edx, %r10d
100005acf: 39 cf                       	cmpl	%ecx, %edi
100005ad1: 41 89 c9                    	movl	%ecx, %r9d
100005ad4: 44 0f 4c cf                 	cmovll	%edi, %r9d
100005ad8: 0f 4e f9                    	cmovlel	%ecx, %edi
100005adb: 44 39 ca                    	cmpl	%r9d, %edx
100005ade: 44 0f 4f ca                 	cmovgl	%edx, %r9d
100005ae2: 44 89 14 83                 	movl	%r10d, (%rbx,%rax,4)
100005ae6: 46 89 0c a3                 	movl	%r9d, (%rbx,%r12,4)
100005aea: 42 89 3c 83                 	movl	%edi, (%rbx,%r8,4)
100005aee: eb 07                       	jmp	0x100005af7 <_sort_quick_standard+0xb7>
100005af0: 46 8b 0c a3                 	movl	(%rbx,%r12,4), %r9d
100005af4: 48 63 c6                    	movslq	%esi, %rax
100005af7: 44 8d 56 ff                 	leal	-1(%rsi), %r10d
100005afb: 44 89 f7                    	movl	%r14d, %edi
100005afe: 29 c7                       	subl	%eax, %edi
100005b00: 49 89 c0                    	movq	%rax, %r8
100005b03: 49 f7 d0                    	notq	%r8
100005b06: 4d 01 e0                    	addq	%r12, %r8
100005b09: 48 83 e7 03                 	andq	$3, %rdi
100005b0d: 75 19                       	jne	0x100005b28 <_sort_quick_standard+0xe8>
100005b0f: 49 83 f8 03                 	cmpq	$3, %r8
100005b13: 73 48                       	jae	0x100005b5d <_sort_quick_standard+0x11d>
100005b15: e9 46 ff ff ff              	jmp	0x100005a60 <_sort_quick_standard+0x20>
100005b1a: 66 0f 1f 44 00 00           	nopw	(%rax,%rax)
100005b20: 48 ff c0                    	incq	%rax
100005b23: 48 ff cf                    	decq	%rdi
100005b26: 74 e7                       	je	0x100005b0f <_sort_quick_standard+0xcf>
100005b28: 8b 0c 83                    	movl	(%rbx,%rax,4), %ecx
100005b2b: 44 39 c9                    	cmpl	%r9d, %ecx
100005b2e: 7f f0                       	jg	0x100005b20 <_sort_quick_standard+0xe0>
100005b30: 49 63 d2                    	movslq	%r10d, %rdx
100005b33: 41 ff c2                    	incl	%r10d
100005b36: 44 8b 5c 93 04              	movl	4(%rbx,%rdx,4), %r11d
100005b3b: 89 4c 93 04                 	movl	%ecx, 4(%rbx,%rdx,4)
100005b3f: 44 89 1c 83                 	movl	%r11d, (%rbx,%rax,4)
100005b43: eb db                       	jmp	0x100005b20 <_sort_quick_standard+0xe0>
100005b45: 66 66 2e 0f 1f 84 00 00 00 00 00    	nopw	%cs:(%rax,%rax)
100005b50: 48 83 c0 04                 	addq	$4, %rax
100005b54: 49 39 c4                    	cmpq	%rax, %r12
100005b57: 0f 84 03 ff ff ff           	je	0x100005a60 <_sort_quick_standard+0x20>
100005b5d: 8b 0c 83                    	movl	(%rbx,%rax,4), %ecx
100005b60: 44 39 c9                    	cmpl	%r9d, %ecx
100005b63: 7e 2b                       	jle	0x100005b90 <_sort_quick_standard+0x150>
100005b65: 8b 4c 83 04                 	movl	4(%rbx,%rax,4), %ecx
100005b69: 44 39 c9                    	cmpl	%r9d, %ecx
100005b6c: 7e 3c                       	jle	0x100005baa <_sort_quick_standard+0x16a>
100005b6e: 8b 4c 83 08                 	movl	8(%rbx,%rax,4), %ecx
100005b72: 44 39 c9                    	cmpl	%r9d, %ecx
100005b75: 7e 4e                       	jle	0x100005bc5 <_sort_quick_standard+0x185>
100005b77: 8b 4c 83 0c                 	movl	12(%rbx,%rax,4), %ecx
100005b7b: 44 39 c9                    	cmpl	%r9d, %ecx
100005b7e: 7f d0                       	jg	0x100005b50 <_sort_quick_standard+0x110>
100005b80: eb 62                       	jmp	0x100005be4 <_sort_quick_standard+0x1a4>
100005b82: 66 66 66 66 66 2e 0f 1f 84 00 00 00 00 00   	nopw	%cs:(%rax,%rax)
100005b90: 49 63 d2                    	movslq	%r10d, %rdx
100005b93: 41 ff c2                    	incl	%r10d
100005b96: 8b 7c 93 04                 	movl	4(%rbx,%rdx,4), %edi
100005b9a: 89 4c 93 04                 	movl	%ecx, 4(%rbx,%rdx,4)
100005b9e: 89 3c 83                    	movl	%edi, (%rbx,%rax,4)
100005ba1: 8b 4c 83 04                 	movl	4(%rbx,%rax,4), %ecx
100005ba5: 44 39 c9                    	cmpl	%r9d, %ecx
100005ba8: 7f c4                       	jg	0x100005b6e <_sort_quick_standard+0x12e>
100005baa: 49 63 d2                    	movslq	%r10d, %rdx
100005bad: 41 ff c2                    	incl	%r10d
100005bb0: 8b 7c 93 04                 	movl	4(%rbx,%rdx,4), %edi
100005bb4: 89 4c 93 04                 	movl	%ecx, 4(%rbx,%rdx,4)
100005bb8: 89 7c 83 04                 	movl	%edi, 4(%rbx,%rax,4)
100005bbc: 8b 4c 83 08                 	movl	8(%rbx,%rax,4), %ecx
100005bc0: 44 39 c9                    	cmpl	%r9d, %ecx
100005bc3: 7f b2                       	jg	0x100005b77 <_sort_quick_standard+0x137>
100005bc5: 49 63 d2                    	movslq	%r10d, %rdx
100005bc8: 41 ff c2                    	incl	%r10d
100005bcb: 8b 7c 93 04                 	movl	4(%rbx,%rdx,4), %edi
100005bcf: 89 4c 93 04                 	movl	%ecx, 4(%rbx,%rdx,4)
100005bd3: 89 7c 83 08                 	movl	%edi, 8(%rbx,%rax,4)
100005bd7: 8b 4c 83 0c                 	movl	12(%rbx,%rax,4), %ecx
100005bdb: 44 39 c9                    	cmpl	%r9d, %ecx
100005bde: 0f 8f 6c ff ff ff           	jg	0x100005b50 <_sort_quick_standard+0x110>
100005be4: 49 63 d2                    	movslq	%r10d, %rdx
100005be7: 41 ff c2                    	incl	%r10d
100005bea: 8b 7c 93 04                 	movl	4(%rbx,%rdx,4), %edi
100005bee: 89 4c 93 04                 	movl	%ecx, 4(%rbx,%rdx,4)
100005bf2: 89 7c 83 0c                 	movl	%edi, 12(%rbx,%rax,4)
100005bf6: e9 55 ff ff ff              	jmp	0x100005b50 <_sort_quick_standard+0x110>
100005bfb: 5b                          	popq	%rbx
100005bfc: 41 5c                       	popq	%r12
100005bfe: 41 5e                       	popq	%r14
100005c00: 41 5f                       	popq	%r15
100005c02: 5d                          	popq	%rbp
100005c03: c3                          	retq
100005c04: 66 66 66 2e 0f 1f 84 00 00 00 00 00 	nopw	%cs:(%rax,%rax)

0000000100005c10 <_shuffle_data>:
100005c10: 55                          	pushq	%rbp
100005c11: 48 89 e5                    	movq	%rsp, %rbp
100005c14: 41 57                       	pushq	%r15
100005c16: 41 56                       	pushq	%r14
100005c18: 41 55                       	pushq	%r13
100005c1a: 41 54                       	pushq	%r12
100005c1c: 53                          	pushq	%rbx
100005c1d: 50                          	pushq	%rax
100005c1e: 89 f8                       	movl	%edi, %eax
100005c20: ff c8                       	decl	%eax
100005c22: 74 5a                       	je	0x100005c7e <_shuffle_data+0x6e>
100005c24: 41 89 fe                    	movl	%edi, %r14d
100005c27: 4c 63 f8                    	movslq	%eax, %r15
100005c2a: 4c 63 e7                    	movslq	%edi, %r12
100005c2d: 31 db                       	xorl	%ebx, %ebx
100005c2f: 4c 8d 2d 0a 6d 3d 00        	leaq	4025610(%rip), %r13  # 1003dc940 <_data_to_sort>
100005c36: eb 29                       	jmp	0x100005c61 <_shuffle_data+0x51>
100005c38: 0f 1f 84 00 00 00 00 00     	nopl	(%rax,%rax)
100005c40: 31 d2                       	xorl	%edx, %edx
100005c42: 49 f7 f4                    	divq	%r12
100005c45: 41 8b 44 95 00              	movl	(%r13,%rdx,4), %eax
100005c4a: 41 8b 4c 9d 00              	movl	(%r13,%rbx,4), %ecx
100005c4f: 41 89 4c 95 00              	movl	%ecx, (%r13,%rdx,4)
100005c54: 41 89 44 9d 00              	movl	%eax, (%r13,%rbx,4)
100005c59: 48 ff c3                    	incq	%rbx
100005c5c: 4c 39 fb                    	cmpq	%r15, %rbx
100005c5f: 73 1d                       	jae	0x100005c7e <_shuffle_data+0x6e>
100005c61: e8 e0 21 00 00              	callq	0x100007e46 <dyld_stub_binder+0x100007e46>
100005c66: 48 98                       	cltq
100005c68: 48 01 d8                    	addq	%rbx, %rax
100005c6b: 48 89 c1                    	movq	%rax, %rcx
100005c6e: 4c 09 e1                    	orq	%r12, %rcx
100005c71: 48 c1 e9 20                 	shrq	$32, %rcx
100005c75: 75 c9                       	jne	0x100005c40 <_shuffle_data+0x30>
100005c77: 31 d2                       	xorl	%edx, %edx
100005c79: 41 f7 f6                    	divl	%r14d
100005c7c: eb c7                       	jmp	0x100005c45 <_shuffle_data+0x35>
100005c7e: 48 83 c4 08                 	addq	$8, %rsp
100005c82: 5b                          	popq	%rbx
100005c83: 41 5c                       	popq	%r12
100005c85: 41 5d                       	popq	%r13
100005c87: 41 5e                       	popq	%r14
100005c89: 41 5f                       	popq	%r15
100005c8b: 5d                          	popq	%rbp
100005c8c: c3                          	retq
100005c8d: 0f 1f 00                    	nopl	(%rax)

0000000100005c90 <_bench>:
100005c90: 55                          	pushq	%rbp
100005c91: 48 89 e5                    	movq	%rsp, %rbp
100005c94: 41 57                       	pushq	%r15
100005c96: 41 56                       	pushq	%r14
100005c98: 41 55                       	pushq	%r13
100005c9a: 41 54                       	pushq	%r12
100005c9c: 53                          	pushq	%rbx
100005c9d: 48 83 ec 28                 	subq	$40, %rsp
100005ca1: 48 89 75 c0                 	movq	%rsi, -64(%rbp)
100005ca5: 41 89 d4                    	movl	%edx, %r12d
100005ca8: 41 ff cc                    	decl	%r12d
100005cab: 0f 84 97 00 00 00           	je	0x100005d48 <_bench+0xb8>
100005cb1: 4d 63 f4                    	movslq	%r12d, %r14
100005cb4: 89 55 cc                    	movl	%edx, -52(%rbp)
100005cb7: 4c 63 ea                    	movslq	%edx, %r13
100005cba: 45 31 ff                    	xorl	%r15d, %r15d
100005cbd: 48 8d 1d 7c 6c 3d 00        	leaq	4025468(%rip), %rbx  # 1003dc940 <_data_to_sort>
100005cc4: 31 c0                       	xorl	%eax, %eax
100005cc6: 44 89 65 d4                 	movl	%r12d, -44(%rbp)
100005cca: eb 32                       	jmp	0x100005cfe <_bench+0x6e>
100005ccc: 0f 1f 40 00                 	nopl	(%rax)
100005cd0: e8 5f 21 00 00              	callq	0x100007e34 <dyld_stub_binder+0x100007e34>
100005cd5: 48 89 45 b8                 	movq	%rax, -72(%rbp)
100005cd9: 48 89 df                    	movq	%rbx, %rdi
100005cdc: 31 f6                       	xorl	%esi, %esi
100005cde: 8b 55 d4                    	movl	-44(%rbp), %edx
100005ce1: ff 55 c0                    	callq	*-64(%rbp)
100005ce4: e8 4b 21 00 00              	callq	0x100007e34 <dyld_stub_binder+0x100007e34>
100005ce9: 4c 2b 7d b8                 	subq	-72(%rbp), %r15
100005ced: 49 01 c7                    	addq	%rax, %r15
100005cf0: 8b 45 d0                    	movl	-48(%rbp), %eax
100005cf3: ff c0                       	incl	%eax
100005cf5: 83 f8 32                    	cmpl	$50, %eax
100005cf8: 0f 84 83 00 00 00           	je	0x100005d81 <_bench+0xf1>
100005cfe: 89 45 d0                    	movl	%eax, -48(%rbp)
100005d01: 45 31 e4                    	xorl	%r12d, %r12d
100005d04: eb 25                       	jmp	0x100005d2b <_bench+0x9b>
100005d06: 66 2e 0f 1f 84 00 00 00 00 00       	nopw	%cs:(%rax,%rax)
100005d10: 31 d2                       	xorl	%edx, %edx
100005d12: 49 f7 f5                    	divq	%r13
100005d15: 8b 04 93                    	movl	(%rbx,%rdx,4), %eax
100005d18: 42 8b 0c a3                 	movl	(%rbx,%r12,4), %ecx
100005d1c: 89 0c 93                    	movl	%ecx, (%rbx,%rdx,4)
100005d1f: 42 89 04 a3                 	movl	%eax, (%rbx,%r12,4)
100005d23: 49 ff c4                    	incq	%r12
100005d26: 4d 39 f4                    	cmpq	%r14, %r12
100005d29: 73 a5                       	jae	0x100005cd0 <_bench+0x40>
100005d2b: e8 16 21 00 00              	callq	0x100007e46 <dyld_stub_binder+0x100007e46>
100005d30: 48 98                       	cltq
100005d32: 4c 01 e0                    	addq	%r12, %rax
100005d35: 48 89 c1                    	movq	%rax, %rcx
100005d38: 4c 09 e9                    	orq	%r13, %rcx
100005d3b: 48 c1 e9 20                 	shrq	$32, %rcx
100005d3f: 75 cf                       	jne	0x100005d10 <_bench+0x80>
100005d41: 31 d2                       	xorl	%edx, %edx
100005d43: f7 75 cc                    	divl	-52(%rbp)
100005d46: eb cd                       	jmp	0x100005d15 <_bench+0x85>
100005d48: bb 32 00 00 00              	movl	$50, %ebx
100005d4d: 45 31 ff                    	xorl	%r15d, %r15d
100005d50: 4c 8d 25 e9 6b 3d 00        	leaq	4025321(%rip), %r12  # 1003dc940 <_data_to_sort>
100005d57: 4c 8b 6d c0                 	movq	-64(%rbp), %r13
100005d5b: 0f 1f 44 00 00              	nopl	(%rax,%rax)
100005d60: e8 cf 20 00 00              	callq	0x100007e34 <dyld_stub_binder+0x100007e34>
100005d65: 49 89 c6                    	movq	%rax, %r14
100005d68: 4c 89 e7                    	movq	%r12, %rdi
100005d6b: 31 f6                       	xorl	%esi, %esi
100005d6d: 31 d2                       	xorl	%edx, %edx
100005d6f: 41 ff d5                    	callq	*%r13
100005d72: e8 bd 20 00 00              	callq	0x100007e34 <dyld_stub_binder+0x100007e34>
100005d77: 4d 29 f7                    	subq	%r14, %r15
100005d7a: 49 01 c7                    	addq	%rax, %r15
100005d7d: ff cb                       	decl	%ebx
100005d7f: 75 df                       	jne	0x100005d60 <_bench+0xd0>
100005d81: 4d 85 ff                    	testq	%r15, %r15
100005d84: 78 07                       	js	0x100005d8d <_bench+0xfd>
100005d86: c4 c1 fa 2a c7              	vcvtsi2ss	%r15, %xmm0, %xmm0
100005d8b: eb 16                       	jmp	0x100005da3 <_bench+0x113>
100005d8d: 4c 89 f8                    	movq	%r15, %rax
100005d90: 48 d1 e8                    	shrq	%rax
100005d93: 41 83 e7 01                 	andl	$1, %r15d
100005d97: 49 09 c7                    	orq	%rax, %r15
100005d9a: c4 c1 fa 2a c7              	vcvtsi2ss	%r15, %xmm0, %xmm0
100005d9f: c5 fa 58 c0                 	vaddss	%xmm0, %xmm0, %xmm0
100005da3: c5 fa 10 0d 9d 21 00 00     	vmovss	8605(%rip), %xmm1  # 100007f48 <_RUNS_PER_BENCH+0x64>
100005dab: c5 fa 59 c1                 	vmulss	%xmm1, %xmm0, %xmm0
100005daf: c5 fa 5e c1                 	vdivss	%xmm1, %xmm0, %xmm0
100005db3: c5 fa 5e 05 91 21 00 00     	vdivss	8593(%rip), %xmm0, %xmm0  # 100007f4c <_RUNS_PER_BENCH+0x68>
100005dbb: c5 fa 5a c0                 	vcvtss2sd	%xmm0, %xmm0, %xmm0
100005dbf: 48 8d 3d 8a 21 00 00        	leaq	8586(%rip), %rdi  # 100007f50 <dyld_stub_binder+0x100007f50>
100005dc6: b0 01                       	movb	$1, %al
100005dc8: 48 83 c4 28                 	addq	$40, %rsp
100005dcc: 5b                          	popq	%rbx
100005dcd: 41 5c                       	popq	%r12
100005dcf: 41 5d                       	popq	%r13
100005dd1: 41 5e                       	popq	%r14
100005dd3: 41 5f                       	popq	%r15
100005dd5: 5d                          	popq	%rbp
100005dd6: e9 5f 20 00 00              	jmp	0x100007e3a <dyld_stub_binder+0x100007e3a>
100005ddb: 0f 1f 44 00 00              	nopl	(%rax,%rax)

0000000100005de0 <_main>:
100005de0: 55                          	pushq	%rbp
100005de1: 48 89 e5                    	movq	%rsp, %rbp
100005de4: 41 57                       	pushq	%r15
100005de6: 41 56                       	pushq	%r14
100005de8: 41 55                       	pushq	%r13
100005dea: 41 54                       	pushq	%r12
100005dec: 53                          	pushq	%rbx
100005ded: 48 83 e4 e0                 	andq	$-32, %rsp
100005df1: 48 81 ec 60 01 00 00        	subq	$352, %rsp
100005df8: e8 37 20 00 00              	callq	0x100007e34 <dyld_stub_binder+0x100007e34>
100005dfd: 89 c7                       	movl	%eax, %edi
100005dff: e8 48 20 00 00              	callq	0x100007e4c <dyld_stub_binder+0x100007e4c>
100005e04: c5 fd 6f 05 b4 20 00 00     	vmovdqa	8372(%rip), %ymm0  # 100007ec0 <dyld_stub_binder+0x100007ec0>
100005e0c: b8 38 00 00 00              	movl	$56, %eax
100005e11: c4 e2 7d 58 25 ee 20 00 00  	vpbroadcastd	8430(%rip), %ymm4  # 100007f08 <_RUNS_PER_BENCH+0x24>
100005e1a: c4 e2 7d 58 2d e9 20 00 00  	vpbroadcastd	8425(%rip), %ymm5  # 100007f0c <_RUNS_PER_BENCH+0x28>
100005e23: c4 e2 7d 58 35 e4 20 00 00  	vpbroadcastd	8420(%rip), %ymm6  # 100007f10 <_RUNS_PER_BENCH+0x2c>
100005e2c: 4c 8d 25 0d 6b 3d 00        	leaq	4025101(%rip), %r12  # 1003dc940 <_data_to_sort>
100005e33: c4 e2 7d 58 3d d8 20 00 00  	vpbroadcastd	8408(%rip), %ymm7  # 100007f14 <_RUNS_PER_BENCH+0x30>
100005e3c: c4 62 7d 58 05 d3 20 00 00  	vpbroadcastd	8403(%rip), %ymm8  # 100007f18 <_RUNS_PER_BENCH+0x34>
100005e45: c4 62 7d 58 0d ce 20 00 00  	vpbroadcastd	8398(%rip), %ymm9  # 100007f1c <_RUNS_PER_BENCH+0x38>
100005e4e: c4 62 7d 58 15 c9 20 00 00  	vpbroadcastd	8393(%rip), %ymm10  # 100007f20 <_RUNS_PER_BENCH+0x3c>
100005e57: c4 62 7d 58 1d c4 20 00 00  	vpbroadcastd	8388(%rip), %ymm11  # 100007f24 <_RUNS_PER_BENCH+0x40>
100005e60: c5 fd fe cc                 	vpaddd	%ymm4, %ymm0, %ymm1
100005e64: c5 fd fe d5                 	vpaddd	%ymm5, %ymm0, %ymm2
100005e68: c4 c1 7e 7f 84 84 20 ff ff ff       	vmovdqu	%ymm0, -224(%r12,%rax,4)
100005e72: c4 c1 7e 7f 8c 84 40 ff ff ff       	vmovdqu	%ymm1, -192(%r12,%rax,4)
100005e7c: c4 c1 7e 7f 94 84 60 ff ff ff       	vmovdqu	%ymm2, -160(%r12,%rax,4)
100005e86: c5 fd fe ce                 	vpaddd	%ymm6, %ymm0, %ymm1
100005e8a: c4 c1 7e 7f 4c 84 80        	vmovdqu	%ymm1, -128(%r12,%rax,4)
100005e91: c5 fd fe cf                 	vpaddd	%ymm7, %ymm0, %ymm1
100005e95: c5 bd fe d0                 	vpaddd	%ymm0, %ymm8, %ymm2
100005e99: c5 b5 fe d8                 	vpaddd	%ymm0, %ymm9, %ymm3
100005e9d: c4 c1 7e 7f 4c 84 a0        	vmovdqu	%ymm1, -96(%r12,%rax,4)
100005ea4: c4 c1 7e 7f 54 84 c0        	vmovdqu	%ymm2, -64(%r12,%rax,4)
100005eab: c4 c1 7e 7f 5c 84 e0        	vmovdqu	%ymm3, -32(%r12,%rax,4)
100005eb2: c5 ad fe c8                 	vpaddd	%ymm0, %ymm10, %ymm1
100005eb6: c4 c1 7e 7f 0c 84           	vmovdqu	%ymm1, (%r12,%rax,4)
100005ebc: c5 a5 fe c0                 	vpaddd	%ymm0, %ymm11, %ymm0
100005ec0: 48 83 c0 40                 	addq	$64, %rax
100005ec4: 48 3d 78 42 0f 00           	cmpq	$1000056, %rax
100005eca: 75 94                       	jne	0x100005e60 <_main+0x80>
100005ecc: c5 7d 7f 5c 24 40           	vmovdqa	%ymm11, 64(%rsp)
100005ed2: c5 7d 7f 54 24 60           	vmovdqa	%ymm10, 96(%rsp)
100005ed8: c5 7d 7f 8c 24 80 00 00 00  	vmovdqa	%ymm9, 128(%rsp)
100005ee1: c5 7d 7f 84 24 a0 00 00 00  	vmovdqa	%ymm8, 160(%rsp)
100005eea: c5 fd 7f bc 24 c0 00 00 00  	vmovdqa	%ymm7, 192(%rsp)
100005ef3: c5 fd 7f b4 24 e0 00 00 00  	vmovdqa	%ymm6, 224(%rsp)
100005efc: c5 fd 7f ac 24 00 01 00 00  	vmovdqa	%ymm5, 256(%rsp)
100005f05: c5 fd 7f a4 24 20 01 00 00  	vmovdqa	%ymm4, 288(%rsp)
100005f0e: 31 db                       	xorl	%ebx, %ebx
100005f10: eb 59                       	jmp	0x100005f6b <_main+0x18b>
100005f12: 66 66 66 66 66 2e 0f 1f 84 00 00 00 00 00   	nopw	%cs:(%rax,%rax)
100005f20: c4 e1 ea 2a c3              	vcvtsi2ss	%rbx, %xmm2, %xmm0
100005f25: 48 8b 5c 24 38              	movq	56(%rsp), %rbx
100005f2a: c5 fa 10 0d 16 20 00 00     	vmovss	8214(%rip), %xmm1  # 100007f48 <_RUNS_PER_BENCH+0x64>
100005f32: c5 fa 59 c1                 	vmulss	%xmm1, %xmm0, %xmm0
100005f36: c5 fa 5e c1                 	vdivss	%xmm1, %xmm0, %xmm0
100005f3a: c5 fa 5e 05 0a 20 00 00     	vdivss	8202(%rip), %xmm0, %xmm0  # 100007f4c <_RUNS_PER_BENCH+0x68>
100005f42: c5 fa 5a c0                 	vcvtss2sd	%xmm0, %xmm0, %xmm0
100005f46: 48 8d 3d 03 20 00 00        	leaq	8195(%rip), %rdi  # 100007f50 <dyld_stub_binder+0x100007f50>
100005f4d: b0 01                       	movb	$1, %al
100005f4f: e8 e6 1e 00 00              	callq	0x100007e3a <dyld_stub_binder+0x100007e3a>
100005f54: bf 0a 00 00 00              	movl	$10, %edi
100005f59: e8 e2 1e 00 00              	callq	0x100007e40 <dyld_stub_binder+0x100007e40>
100005f5e: 48 ff c3                    	incq	%rbx
100005f61: 48 83 fb 06                 	cmpq	$6, %rbx
100005f65: 0f 84 b2 1e 00 00           	je	0x100007e1d <_main+0x203d>
100005f6b: c5 f8 77                    	vzeroupper
100005f6e: e8 c1 1e 00 00              	callq	0x100007e34 <dyld_stub_binder+0x100007e34>
100005f73: 89 c7                       	movl	%eax, %edi
100005f75: e8 d2 1e 00 00              	callq	0x100007e4c <dyld_stub_binder+0x100007e4c>
100005f7a: b8 38 00 00 00              	movl	$56, %eax
100005f7f: c5 fd 6f 05 39 1f 00 00     	vmovdqa	7993(%rip), %ymm0  # 100007ec0 <dyld_stub_binder+0x100007ec0>
100005f87: c5 fd 6f a4 24 20 01 00 00  	vmovdqa	288(%rsp), %ymm4
100005f90: c5 fd 6f ac 24 00 01 00 00  	vmovdqa	256(%rsp), %ymm5
100005f99: c5 fd 6f b4 24 e0 00 00 00  	vmovdqa	224(%rsp), %ymm6
100005fa2: c5 fd 6f bc 24 c0 00 00 00  	vmovdqa	192(%rsp), %ymm7
100005fab: c5 7d 6f 84 24 a0 00 00 00  	vmovdqa	160(%rsp), %ymm8
100005fb4: c5 7d 6f 8c 24 80 00 00 00  	vmovdqa	128(%rsp), %ymm9
100005fbd: c5 7d 6f 54 24 60           	vmovdqa	96(%rsp), %ymm10
100005fc3: c5 7d 6f 5c 24 40           	vmovdqa	64(%rsp), %ymm11
100005fc9: 0f 1f 80 00 00 00 00        	nopl	(%rax)
100005fd0: c5 fd fe cc                 	vpaddd	%ymm4, %ymm0, %ymm1
100005fd4: c5 fd fe d5                 	vpaddd	%ymm5, %ymm0, %ymm2
100005fd8: c4 c1 7e 7f 84 84 20 ff ff ff       	vmovdqu	%ymm0, -224(%r12,%rax,4)
100005fe2: c4 c1 7e 7f 8c 84 40 ff ff ff       	vmovdqu	%ymm1, -192(%r12,%rax,4)
100005fec: c4 c1 7e 7f 94 84 60 ff ff ff       	vmovdqu	%ymm2, -160(%r12,%rax,4)
100005ff6: c5 fd fe ce                 	vpaddd	%ymm6, %ymm0, %ymm1
100005ffa: c4 c1 7e 7f 4c 84 80        	vmovdqu	%ymm1, -128(%r12,%rax,4)
100006001: c5 fd fe cf                 	vpaddd	%ymm7, %ymm0, %ymm1
100006005: c5 bd fe d0                 	vpaddd	%ymm0, %ymm8, %ymm2
100006009: c5 b5 fe d8                 	vpaddd	%ymm0, %ymm9, %ymm3
10000600d: c4 c1 7e 7f 4c 84 a0        	vmovdqu	%ymm1, -96(%r12,%rax,4)
100006014: c4 c1 7e 7f 54 84 c0        	vmovdqu	%ymm2, -64(%r12,%rax,4)
10000601b: c4 c1 7e 7f 5c 84 e0        	vmovdqu	%ymm3, -32(%r12,%rax,4)
100006022: c5 ad fe c8                 	vpaddd	%ymm0, %ymm10, %ymm1
100006026: c4 c1 7e 7f 0c 84           	vmovdqu	%ymm1, (%r12,%rax,4)
10000602c: c5 a5 fe c0                 	vpaddd	%ymm0, %ymm11, %ymm0
100006030: 48 83 c0 40                 	addq	$64, %rax
100006034: 48 3d 78 42 0f 00           	cmpq	$1000056, %rax
10000603a: 75 94                       	jne	0x100005fd0 <_main+0x1f0>
10000603c: 48 8d 05 ad 1e 00 00        	leaq	7853(%rip), %rax  # 100007ef0 <_RUNS_PER_BENCH+0xc>
100006043: 4c 63 3c 98                 	movslq	(%rax,%rbx,4), %r15
100006047: 4c 89 f9                    	movq	%r15, %rcx
10000604a: 48 ff c9                    	decq	%rcx
10000604d: 49 89 ce                    	movq	%rcx, %r14
100006050: b8 01 00 00 00              	movl	$1, %eax
100006055: 4c 0f 44 f0                 	cmoveq	%rax, %r14
100006059: 48 89 4c 24 20              	movq	%rcx, 32(%rsp)
10000605e: 85 c9                       	testl	%ecx, %ecx
100006060: 4c 89 74 24 28              	movq	%r14, 40(%rsp)
100006065: 48 89 5c 24 38              	movq	%rbx, 56(%rsp)
10000606a: 0f 84 a0 00 00 00           	je	0x100006110 <_main+0x330>
100006070: 31 db                       	xorl	%ebx, %ebx
100006072: 45 31 ed                    	xorl	%r13d, %r13d
100006075: eb 42                       	jmp	0x1000060b9 <_main+0x2d9>
100006077: 66 0f 1f 84 00 00 00 00 00  	nopw	(%rax,%rax)
100006080: e8 af 1d 00 00              	callq	0x100007e34 <dyld_stub_binder+0x100007e34>
100006085: 49 89 c6                    	movq	%rax, %r14
100006088: 4c 89 e7                    	movq	%r12, %rdi
10000608b: 31 f6                       	xorl	%esi, %esi
10000608d: 48 8b 54 24 20              	movq	32(%rsp), %rdx
100006092: e8 a9 f9 ff ff              	callq	0x100005a40 <_sort_quick_standard>
100006097: e8 98 1d 00 00              	callq	0x100007e34 <dyld_stub_binder+0x100007e34>
10000609c: 48 8b 5c 24 10              	movq	16(%rsp), %rbx
1000060a1: 4c 29 f3                    	subq	%r14, %rbx
1000060a4: 4c 8b 74 24 28              	movq	40(%rsp), %r14
1000060a9: 48 01 c3                    	addq	%rax, %rbx
1000060ac: 41 ff c5                    	incl	%r13d
1000060af: 41 83 fd 32                 	cmpl	$50, %r13d
1000060b3: 0f 84 69 05 00 00           	je	0x100006622 <_main+0x842>
1000060b9: 48 89 5c 24 10              	movq	%rbx, 16(%rsp)
1000060be: 31 db                       	xorl	%ebx, %ebx
1000060c0: eb 2b                       	jmp	0x1000060ed <_main+0x30d>
1000060c2: 66 66 66 66 66 2e 0f 1f 84 00 00 00 00 00   	nopw	%cs:(%rax,%rax)
1000060d0: 31 d2                       	xorl	%edx, %edx
1000060d2: 49 f7 f7                    	divq	%r15
1000060d5: 41 8b 04 94                 	movl	(%r12,%rdx,4), %eax
1000060d9: 41 8b 0c 9c                 	movl	(%r12,%rbx,4), %ecx
1000060dd: 41 89 0c 94                 	movl	%ecx, (%r12,%rdx,4)
1000060e1: 41 89 04 9c                 	movl	%eax, (%r12,%rbx,4)
1000060e5: 48 ff c3                    	incq	%rbx
1000060e8: 49 39 de                    	cmpq	%rbx, %r14
1000060eb: 74 93                       	je	0x100006080 <_main+0x2a0>
1000060ed: c5 f8 77                    	vzeroupper
1000060f0: e8 51 1d 00 00              	callq	0x100007e46 <dyld_stub_binder+0x100007e46>
1000060f5: 48 98                       	cltq
1000060f7: 48 01 d8                    	addq	%rbx, %rax
1000060fa: 48 89 c1                    	movq	%rax, %rcx
1000060fd: 4c 09 f9                    	orq	%r15, %rcx
100006100: 48 c1 e9 20                 	shrq	$32, %rcx
100006104: 75 ca                       	jne	0x1000060d0 <_main+0x2f0>
100006106: 31 d2                       	xorl	%edx, %edx
100006108: 41 f7 f7                    	divl	%r15d
10000610b: eb c8                       	jmp	0x1000060d5 <_main+0x2f5>
10000610d: 0f 1f 00                    	nopl	(%rax)
100006110: c5 f8 77                    	vzeroupper
100006113: e8 1c 1d 00 00              	callq	0x100007e34 <dyld_stub_binder+0x100007e34>
100006118: 48 89 44 24 10              	movq	%rax, 16(%rsp)
10000611d: e8 12 1d 00 00              	callq	0x100007e34 <dyld_stub_binder+0x100007e34>
100006122: 48 89 44 24 18              	movq	%rax, 24(%rsp)
100006127: e8 08 1d 00 00              	callq	0x100007e34 <dyld_stub_binder+0x100007e34>
10000612c: 49 89 c5                    	movq	%rax, %r13
10000612f: e8 00 1d 00 00              	callq	0x100007e34 <dyld_stub_binder+0x100007e34>
100006134: 48 89 c3                    	movq	%rax, %rbx
100006137: e8 f8 1c 00 00              	callq	0x100007e34 <dyld_stub_binder+0x100007e34>
10000613c: 49 89 c6                    	movq	%rax, %r14
10000613f: e8 f0 1c 00 00              	callq	0x100007e34 <dyld_stub_binder+0x100007e34>
100006144: 48 89 44 24 30              	movq	%rax, 48(%rsp)
100006149: 4d 01 ee                    	addq	%r13, %r14
10000614c: 48 03 5c 24 18              	addq	24(%rsp), %rbx
100006151: 4c 03 74 24 10              	addq	16(%rsp), %r14
100006156: e8 d9 1c 00 00              	callq	0x100007e34 <dyld_stub_binder+0x100007e34>
10000615b: 49 89 c5                    	movq	%rax, %r13
10000615e: e8 d1 1c 00 00              	callq	0x100007e34 <dyld_stub_binder+0x100007e34>
100006163: 48 89 44 24 10              	movq	%rax, 16(%rsp)
100006168: 48 03 5c 24 30              	addq	48(%rsp), %rbx
10000616d: 4d 01 f5                    	addq	%r14, %r13
100006170: e8 bf 1c 00 00              	callq	0x100007e34 <dyld_stub_binder+0x100007e34>
100006175: 49 89 c6                    	movq	%rax, %r14
100006178: e8 b7 1c 00 00              	callq	0x100007e34 <dyld_stub_binder+0x100007e34>
10000617d: 48 89 44 24 18              	movq	%rax, 24(%rsp)
100006182: 48 03 5c 24 10              	addq	16(%rsp), %rbx
100006187: 4d 01 ee                    	addq	%r13, %r14
10000618a: e8 a5 1c 00 00              	callq	0x100007e34 <dyld_stub_binder+0x100007e34>
10000618f: 49 89 c5                    	movq	%rax, %r13
100006192: e8 9d 1c 00 00              	callq	0x100007e34 <dyld_stub_binder+0x100007e34>
100006197: 48 89 44 24 10              	movq	%rax, 16(%rsp)
10000619c: 48 03 5c 24 18              	addq	24(%rsp), %rbx
1000061a1: 4d 01 f5                    	addq	%r14, %r13
1000061a4: e8 8b 1c 00 00              	callq	0x100007e34 <dyld_stub_binder+0x100007e34>
1000061a9: 49 89 c6                    	movq	%rax, %r14
1000061ac: e8 83 1c 00 00              	callq	0x100007e34 <dyld_stub_binder+0x100007e34>
1000061b1: 48 89 44 24 18              	movq	%rax, 24(%rsp)
1000061b6: 48 03 5c 24 10              	addq	16(%rsp), %rbx
1000061bb: 4d 01 ee                    	addq	%r13, %r14
1000061be: e8 71 1c 00 00              	callq	0x100007e34 <dyld_stub_binder+0x100007e34>
1000061c3: 49 89 c5                    	movq	%rax, %r13
1000061c6: e8 69 1c 00 00              	callq	0x100007e34 <dyld_stub_binder+0x100007e34>
1000061cb: 48 89 44 24 10              	movq	%rax, 16(%rsp)
1000061d0: 48 03 5c 24 18              	addq	24(%rsp), %rbx
1000061d5: 4d 01 f5                    	addq	%r14, %r13
1000061d8: e8 57 1c 00 00              	callq	0x100007e34 <dyld_stub_binder+0x100007e34>
1000061dd: 49 89 c6                    	movq	%rax, %r14
1000061e0: e8 4f 1c 00 00              	callq	0x100007e34 <dyld_stub_binder+0x100007e34>
1000061e5: 48 89 44 24 18              	movq	%rax, 24(%rsp)
1000061ea: 48 03 5c 24 10              	addq	16(%rsp), %rbx
1000061ef: 4d 01 ee                    	addq	%r13, %r14
1000061f2: e8 3d 1c 00 00              	callq	0x100007e34 <dyld_stub_binder+0x100007e34>
1000061f7: 49 89 c5                    	movq	%rax, %r13
1000061fa: e8 35 1c 00 00              	callq	0x100007e34 <dyld_stub_binder+0x100007e34>
1000061ff: 48 89 44 24 10              	movq	%rax, 16(%rsp)
100006204: 48 03 5c 24 18              	addq	24(%rsp), %rbx
100006209: 4d 01 f5                    	addq	%r14, %r13
10000620c: e8 23 1c 00 00              	callq	0x100007e34 <dyld_stub_binder+0x100007e34>
100006211: 49 89 c6                    	movq	%rax, %r14
100006214: e8 1b 1c 00 00              	callq	0x100007e34 <dyld_stub_binder+0x100007e34>
100006219: 48 89 44 24 18              	movq	%rax, 24(%rsp)
10000621e: 48 03 5c 24 10              	addq	16(%rsp), %rbx
100006223: 4d 01 ee                    	addq	%r13, %r14
100006226: e8 09 1c 00 00              	callq	0x100007e34 <dyld_stub_binder+0x100007e34>
10000622b: 49 89 c5                    	movq	%rax, %r13
10000622e: e8 01 1c 00 00              	callq	0x100007e34 <dyld_stub_binder+0x100007e34>
100006233: 48 89 44 24 10              	movq	%rax, 16(%rsp)
100006238: 48 03 5c 24 18              	addq	24(%rsp), %rbx
10000623d: 4d 01 f5                    	addq	%r14, %r13
100006240: e8 ef 1b 00 00              	callq	0x100007e34 <dyld_stub_binder+0x100007e34>
100006245: 49 89 c6                    	movq	%rax, %r14
100006248: e8 e7 1b 00 00              	callq	0x100007e34 <dyld_stub_binder+0x100007e34>
10000624d: 48 89 44 24 18              	movq	%rax, 24(%rsp)
100006252: 48 03 5c 24 10              	addq	16(%rsp), %rbx
100006257: 4d 01 ee                    	addq	%r13, %r14
10000625a: e8 d5 1b 00 00              	callq	0x100007e34 <dyld_stub_binder+0x100007e34>
10000625f: 49 89 c5                    	movq	%rax, %r13
100006262: e8 cd 1b 00 00              	callq	0x100007e34 <dyld_stub_binder+0x100007e34>
100006267: 48 89 44 24 10              	movq	%rax, 16(%rsp)
10000626c: 48 03 5c 24 18              	addq	24(%rsp), %rbx
100006271: 4d 01 f5                    	addq	%r14, %r13
100006274: e8 bb 1b 00 00              	callq	0x100007e34 <dyld_stub_binder+0x100007e34>
100006279: 49 89 c6                    	movq	%rax, %r14
10000627c: e8 b3 1b 00 00              	callq	0x100007e34 <dyld_stub_binder+0x100007e34>
100006281: 48 89 44 24 18              	movq	%rax, 24(%rsp)
100006286: 48 03 5c 24 10              	addq	16(%rsp), %rbx
10000628b: 4d 01 ee                    	addq	%r13, %r14
10000628e: e8 a1 1b 00 00              	callq	0x100007e34 <dyld_stub_binder+0x100007e34>
100006293: 49 89 c5                    	movq	%rax, %r13
100006296: e8 99 1b 00 00              	callq	0x100007e34 <dyld_stub_binder+0x100007e34>
10000629b: 48 89 44 24 10              	movq	%rax, 16(%rsp)
1000062a0: 48 03 5c 24 18              	addq	24(%rsp), %rbx
1000062a5: 4d 01 f5                    	addq	%r14, %r13
1000062a8: e8 87 1b 00 00              	callq	0x100007e34 <dyld_stub_binder+0x100007e34>
1000062ad: 49 89 c6                    	movq	%rax, %r14
1000062b0: e8 7f 1b 00 00              	callq	0x100007e34 <dyld_stub_binder+0x100007e34>
1000062b5: 48 89 44 24 18              	movq	%rax, 24(%rsp)
1000062ba: 48 03 5c 24 10              	addq	16(%rsp), %rbx
1000062bf: 4d 01 ee                    	addq	%r13, %r14
1000062c2: e8 6d 1b 00 00              	callq	0x100007e34 <dyld_stub_binder+0x100007e34>
1000062c7: 49 89 c5                    	movq	%rax, %r13
1000062ca: e8 65 1b 00 00              	callq	0x100007e34 <dyld_stub_binder+0x100007e34>
1000062cf: 48 89 44 24 10              	movq	%rax, 16(%rsp)
1000062d4: 48 03 5c 24 18              	addq	24(%rsp), %rbx
1000062d9: 4d 01 f5                    	addq	%r14, %r13
1000062dc: e8 53 1b 00 00              	callq	0x100007e34 <dyld_stub_binder+0x100007e34>
1000062e1: 49 89 c6                    	movq	%rax, %r14
1000062e4: e8 4b 1b 00 00              	callq	0x100007e34 <dyld_stub_binder+0x100007e34>
1000062e9: 48 89 44 24 18              	movq	%rax, 24(%rsp)
1000062ee: 48 03 5c 24 10              	addq	16(%rsp), %rbx
1000062f3: 4d 01 ee                    	addq	%r13, %r14
1000062f6: e8 39 1b 00 00              	callq	0x100007e34 <dyld_stub_binder+0x100007e34>
1000062fb: 49 89 c5                    	movq	%rax, %r13
1000062fe: e8 31 1b 00 00              	callq	0x100007e34 <dyld_stub_binder+0x100007e34>
100006303: 48 89 44 24 10              	movq	%rax, 16(%rsp)
100006308: 48 03 5c 24 18              	addq	24(%rsp), %rbx
10000630d: 4d 01 f5                    	addq	%r14, %r13
100006310: e8 1f 1b 00 00              	callq	0x100007e34 <dyld_stub_binder+0x100007e34>
100006315: 49 89 c6                    	movq	%rax, %r14
100006318: e8 17 1b 00 00              	callq	0x100007e34 <dyld_stub_binder+0x100007e34>
10000631d: 48 89 44 24 18              	movq	%rax, 24(%rsp)
100006322: 48 03 5c 24 10              	addq	16(%rsp), %rbx
100006327: 4d 01 ee                    	addq	%r13, %r14
10000632a: e8 05 1b 00 00              	callq	0x100007e34 <dyld_stub_binder+0x100007e34>
10000632f: 49 89 c5                    	movq	%rax, %r13
100006332: e8 fd 1a 00 00              	callq	0x100007e34 <dyld_stub_binder+0x100007e34>
100006337: 48 89 44 24 10              	movq	%rax, 16(%rsp)
10000633c: 48 03 5c 24 18              	addq	24(%rsp), %rbx
100006341: 4d 01 f5                    	addq	%r14, %r13
100006344: e8 eb 1a 00 00              	callq	0x100007e34 <dyld_stub_binder+0x100007e34>
100006349: 49 89 c6                    	movq	%rax, %r14
10000634c: e8 e3 1a 00 00              	callq	0x100007e34 <dyld_stub_binder+0x100007e34>
100006351: 48 89 44 24 18              	movq	%rax, 24(%rsp)
100006356: 48 03 5c 24 10              	addq	16(%rsp), %rbx
10000635b: 4d 01 ee                    	addq	%r13, %r14
10000635e: e8 d1 1a 00 00              	callq	0x100007e34 <dyld_stub_binder+0x100007e34>
100006363: 49 89 c5                    	movq	%rax, %r13
100006366: e8 c9 1a 00 00              	callq	0x100007e34 <dyld_stub_binder+0x100007e34>
10000636b: 48 89 44 24 10              	movq	%rax, 16(%rsp)
100006370: 48 03 5c 24 18              	addq	24(%rsp), %rbx
100006375: 4d 01 f5                    	addq	%r14, %r13
100006378: e8 b7 1a 00 00              	callq	0x100007e34 <dyld_stub_binder+0x100007e34>
10000637d: 49 89 c6                    	movq	%rax, %r14
100006380: e8 af 1a 00 00              	callq	0x100007e34 <dyld_stub_binder+0x100007e34>
100006385: 48 89 44 24 18              	movq	%rax, 24(%rsp)
10000638a: 48 03 5c 24 10              	addq	16(%rsp), %rbx
10000638f: 4d 01 ee                    	addq	%r13, %r14
100006392: e8 9d 1a 00 00              	callq	0x100007e34 <dyld_stub_binder+0x100007e34>
100006397: 49 89 c5                    	movq	%rax, %r13
10000639a: e8 95 1a 00 00              	callq	0x100007e34 <dyld_stub_binder+0x100007e34>
10000639f: 48 89 44 24 10              	movq	%rax, 16(%rsp)
1000063a4: 48 03 5c 24 18              	addq	24(%rsp), %rbx
1000063a9: 4d 01 f5                    	addq	%r14, %r13
1000063ac: e8 83 1a 00 00              	callq	0x100007e34 <dyld_stub_binder+0x100007e34>
1000063b1: 49 89 c6                    	movq	%rax, %r14
1000063b4: e8 7b 1a 00 00              	callq	0x100007e34 <dyld_stub_binder+0x100007e34>
1000063b9: 48 89 44 24 18              	movq	%rax, 24(%rsp)
1000063be: 48 03 5c 24 10              	addq	16(%rsp), %rbx
1000063c3: 4d 01 ee                    	addq	%r13, %r14
1000063c6: e8 69 1a 00 00              	callq	0x100007e34 <dyld_stub_binder+0x100007e34>
1000063cb: 49 89 c5                    	movq	%rax, %r13
1000063ce: e8 61 1a 00 00              	callq	0x100007e34 <dyld_stub_binder+0x100007e34>
1000063d3: 48 89 44 24 10              	movq	%rax, 16(%rsp)
1000063d8: 48 03 5c 24 18              	addq	24(%rsp), %rbx
1000063dd: 4d 01 f5                    	addq	%r14, %r13
1000063e0: e8 4f 1a 00 00              	callq	0x100007e34 <dyld_stub_binder+0x100007e34>
1000063e5: 49 89 c6                    	movq	%rax, %r14
1000063e8: e8 47 1a 00 00              	callq	0x100007e34 <dyld_stub_binder+0x100007e34>
1000063ed: 48 89 44 24 18              	movq	%rax, 24(%rsp)
1000063f2: 48 03 5c 24 10              	addq	16(%rsp), %rbx
1000063f7: 4d 01 ee                    	addq	%r13, %r14
1000063fa: e8 35 1a 00 00              	callq	0x100007e34 <dyld_stub_binder+0x100007e34>
1000063ff: 49 89 c5                    	movq	%rax, %r13
100006402: e8 2d 1a 00 00              	callq	0x100007e34 <dyld_stub_binder+0x100007e34>
100006407: 48 89 44 24 10              	movq	%rax, 16(%rsp)
10000640c: 48 03 5c 24 18              	addq	24(%rsp), %rbx
100006411: 4d 01 f5                    	addq	%r14, %r13
100006414: e8 1b 1a 00 00              	callq	0x100007e34 <dyld_stub_binder+0x100007e34>
100006419: 49 89 c6                    	movq	%rax, %r14
10000641c: e8 13 1a 00 00              	callq	0x100007e34 <dyld_stub_binder+0x100007e34>
100006421: 48 89 44 24 18              	movq	%rax, 24(%rsp)
100006426: 48 03 5c 24 10              	addq	16(%rsp), %rbx
10000642b: 4d 01 ee                    	addq	%r13, %r14
10000642e: e8 01 1a 00 00              	callq	0x100007e34 <dyld_stub_binder+0x100007e34>
100006433: 49 89 c5                    	movq	%rax, %r13
100006436: e8 f9 19 00 00              	callq	0x100007e34 <dyld_stub_binder+0x100007e34>
10000643b: 48 89 44 24 10              	movq	%rax, 16(%rsp)
100006440: 48 03 5c 24 18              	addq	24(%rsp), %rbx
100006445: 4d 01 f5                    	addq	%r14, %r13
100006448: e8 e7 19 00 00              	callq	0x100007e34 <dyld_stub_binder+0x100007e34>
10000644d: 49 89 c6                    	movq	%rax, %r14
100006450: e8 df 19 00 00              	callq	0x100007e34 <dyld_stub_binder+0x100007e34>
100006455: 48 89 44 24 18              	movq	%rax, 24(%rsp)
10000645a: 48 03 5c 24 10              	addq	16(%rsp), %rbx
10000645f: 4d 01 ee                    	addq	%r13, %r14
100006462: e8 cd 19 00 00              	callq	0x100007e34 <dyld_stub_binder+0x100007e34>
100006467: 49 89 c5                    	movq	%rax, %r13
10000646a: e8 c5 19 00 00              	callq	0x100007e34 <dyld_stub_binder+0x100007e34>
10000646f: 48 89 44 24 10              	movq	%rax, 16(%rsp)
100006474: 48 03 5c 24 18              	addq	24(%rsp), %rbx
100006479: 4d 01 f5                    	addq	%r14, %r13
10000647c: e8 b3 19 00 00              	callq	0x100007e34 <dyld_stub_binder+0x100007e34>
100006481: 49 89 c6                    	movq	%rax, %r14
100006484: e8 ab 19 00 00              	callq	0x100007e34 <dyld_stub_binder+0x100007e34>
100006489: 48 89 44 24 18              	movq	%rax, 24(%rsp)
10000648e: 48 03 5c 24 10              	addq	16(%rsp), %rbx
100006493: 4d 01 ee                    	addq	%r13, %r14
100006496: e8 99 19 00 00              	callq	0x100007e34 <dyld_stub_binder+0x100007e34>
10000649b: 49 89 c5                    	movq	%rax, %r13
10000649e: e8 91 19 00 00              	callq	0x100007e34 <dyld_stub_binder+0x100007e34>
1000064a3: 48 89 44 24 10              	movq	%rax, 16(%rsp)
1000064a8: 48 03 5c 24 18              	addq	24(%rsp), %rbx
1000064ad: 4d 01 f5                    	addq	%r14, %r13
1000064b0: e8 7f 19 00 00              	callq	0x100007e34 <dyld_stub_binder+0x100007e34>
1000064b5: 49 89 c6                    	movq	%rax, %r14
1000064b8: e8 77 19 00 00              	callq	0x100007e34 <dyld_stub_binder+0x100007e34>
1000064bd: 48 89 44 24 18              	movq	%rax, 24(%rsp)
1000064c2: 48 03 5c 24 10              	addq	16(%rsp), %rbx
1000064c7: 4d 01 ee                    	addq	%r13, %r14
1000064ca: e8 65 19 00 00              	callq	0x100007e34 <dyld_stub_binder+0x100007e34>
1000064cf: 49 89 c5                    	movq	%rax, %r13
1000064d2: e8 5d 19 00 00              	callq	0x100007e34 <dyld_stub_binder+0x100007e34>
1000064d7: 48 89 44 24 10              	movq	%rax, 16(%rsp)
1000064dc: 48 03 5c 24 18              	addq	24(%rsp), %rbx
1000064e1: 4d 01 f5                    	addq	%r14, %r13
1000064e4: e8 4b 19 00 00              	callq	0x100007e34 <dyld_stub_binder+0x100007e34>
1000064e9: 49 89 c6                    	movq	%rax, %r14
1000064ec: e8 43 19 00 00              	callq	0x100007e34 <dyld_stub_binder+0x100007e34>
1000064f1: 48 89 44 24 18              	movq	%rax, 24(%rsp)
1000064f6: 48 03 5c 24 10              	addq	16(%rsp), %rbx
1000064fb: 4d 01 ee                    	addq	%r13, %r14
1000064fe: e8 31 19 00 00              	callq	0x100007e34 <dyld_stub_binder+0x100007e34>
100006503: 49 89 c5                    	movq	%rax, %r13
100006506: e8 29 19 00 00              	callq	0x100007e34 <dyld_stub_binder+0x100007e34>
10000650b: 48 89 44 24 10              	movq	%rax, 16(%rsp)
100006510: 48 03 5c 24 18              	addq	24(%rsp), %rbx
100006515: 4d 01 f5                    	addq	%r14, %r13
100006518: e8 17 19 00 00              	callq	0x100007e34 <dyld_stub_binder+0x100007e34>
10000651d: 49 89 c6                    	movq	%rax, %r14
100006520: e8 0f 19 00 00              	callq	0x100007e34 <dyld_stub_binder+0x100007e34>
100006525: 48 89 44 24 18              	movq	%rax, 24(%rsp)
10000652a: 48 03 5c 24 10              	addq	16(%rsp), %rbx
10000652f: 4d 01 ee                    	addq	%r13, %r14
100006532: e8 fd 18 00 00              	callq	0x100007e34 <dyld_stub_binder+0x100007e34>
100006537: 49 89 c5                    	movq	%rax, %r13
10000653a: e8 f5 18 00 00              	callq	0x100007e34 <dyld_stub_binder+0x100007e34>
10000653f: 48 89 44 24 10              	movq	%rax, 16(%rsp)
100006544: 48 03 5c 24 18              	addq	24(%rsp), %rbx
100006549: 4d 01 f5                    	addq	%r14, %r13
10000654c: e8 e3 18 00 00              	callq	0x100007e34 <dyld_stub_binder+0x100007e34>
100006551: 49 89 c6                    	movq	%rax, %r14
100006554: e8 db 18 00 00              	callq	0x100007e34 <dyld_stub_binder+0x100007e34>
100006559: 48 89 44 24 18              	movq	%rax, 24(%rsp)
10000655e: 48 03 5c 24 10              	addq	16(%rsp), %rbx
100006563: 4d 01 ee                    	addq	%r13, %r14
100006566: e8 c9 18 00 00              	callq	0x100007e34 <dyld_stub_binder+0x100007e34>
10000656b: 49 89 c5                    	movq	%rax, %r13
10000656e: e8 c1 18 00 00              	callq	0x100007e34 <dyld_stub_binder+0x100007e34>
100006573: 48 89 44 24 10              	movq	%rax, 16(%rsp)
100006578: 48 03 5c 24 18              	addq	24(%rsp), %rbx
10000657d: 4d 01 f5                    	addq	%r14, %r13
100006580: e8 af 18 00 00              	callq	0x100007e34 <dyld_stub_binder+0x100007e34>
100006585: 49 89 c6                    	movq	%rax, %r14
100006588: e8 a7 18 00 00              	callq	0x100007e34 <dyld_stub_binder+0x100007e34>
10000658d: 48 89 44 24 18              	movq	%rax, 24(%rsp)
100006592: 48 03 5c 24 10              	addq	16(%rsp), %rbx
100006597: 4d 01 ee                    	addq	%r13, %r14
10000659a: e8 95 18 00 00              	callq	0x100007e34 <dyld_stub_binder+0x100007e34>
10000659f: 49 89 c5                    	movq	%rax, %r13
1000065a2: e8 8d 18 00 00              	callq	0x100007e34 <dyld_stub_binder+0x100007e34>
1000065a7: 48 89 44 24 10              	movq	%rax, 16(%rsp)
1000065ac: 48 03 5c 24 18              	addq	24(%rsp), %rbx
1000065b1: 4d 01 f5                    	addq	%r14, %r13
1000065b4: e8 7b 18 00 00              	callq	0x100007e34 <dyld_stub_binder+0x100007e34>
1000065b9: 49 89 c6                    	movq	%rax, %r14
1000065bc: e8 73 18 00 00              	callq	0x100007e34 <dyld_stub_binder+0x100007e34>
1000065c1: 48 89 44 24 18              	movq	%rax, 24(%rsp)
1000065c6: 48 03 5c 24 10              	addq	16(%rsp), %rbx
1000065cb: 4d 01 ee                    	addq	%r13, %r14
1000065ce: e8 61 18 00 00              	callq	0x100007e34 <dyld_stub_binder+0x100007e34>
1000065d3: 49 89 c5                    	movq	%rax, %r13
1000065d6: e8 59 18 00 00              	callq	0x100007e34 <dyld_stub_binder+0x100007e34>
1000065db: 48 89 44 24 10              	movq	%rax, 16(%rsp)
1000065e0: 48 03 5c 24 18              	addq	24(%rsp), %rbx
1000065e5: 4d 01 f5                    	addq	%r14, %r13
1000065e8: e8 47 18 00 00              	callq	0x100007e34 <dyld_stub_binder+0x100007e34>
1000065ed: 49 89 c6                    	movq	%rax, %r14
1000065f0: e8 3f 18 00 00              	callq	0x100007e34 <dyld_stub_binder+0x100007e34>
1000065f5: 48 89 44 24 18              	movq	%rax, 24(%rsp)
1000065fa: 48 03 5c 24 10              	addq	16(%rsp), %rbx
1000065ff: 4d 01 ee                    	addq	%r13, %r14
100006602: e8 2d 18 00 00              	callq	0x100007e34 <dyld_stub_binder+0x100007e34>
100006607: 49 89 c5                    	movq	%rax, %r13
10000660a: e8 25 18 00 00              	callq	0x100007e34 <dyld_stub_binder+0x100007e34>
10000660f: 48 03 5c 24 18              	addq	24(%rsp), %rbx
100006614: 4d 01 f5                    	addq	%r14, %r13
100006617: 4c 8b 74 24 28              	movq	40(%rsp), %r14
10000661c: 4c 29 eb                    	subq	%r13, %rbx
10000661f: 48 01 c3                    	addq	%rax, %rbx
100006622: 48 85 db                    	testq	%rbx, %rbx
100006625: 78 09                       	js	0x100006630 <_main+0x850>
100006627: c4 e1 9a 2a c3              	vcvtsi2ss	%rbx, %xmm12, %xmm0
10000662c: eb 17                       	jmp	0x100006645 <_main+0x865>
10000662e: 66 90                       	nop
100006630: 48 89 d8                    	movq	%rbx, %rax
100006633: 48 d1 e8                    	shrq	%rax
100006636: 83 e3 01                    	andl	$1, %ebx
100006639: 48 09 c3                    	orq	%rax, %rbx
10000663c: c4 e1 9a 2a c3              	vcvtsi2ss	%rbx, %xmm12, %xmm0
100006641: c5 fa 58 c0                 	vaddss	%xmm0, %xmm0, %xmm0
100006645: c5 fa 10 0d fb 18 00 00     	vmovss	6395(%rip), %xmm1  # 100007f48 <_RUNS_PER_BENCH+0x64>
10000664d: c5 fa 59 c1                 	vmulss	%xmm1, %xmm0, %xmm0
100006651: c5 fa 5e c1                 	vdivss	%xmm1, %xmm0, %xmm0
100006655: c5 fa 5e 05 ef 18 00 00     	vdivss	6383(%rip), %xmm0, %xmm0  # 100007f4c <_RUNS_PER_BENCH+0x68>
10000665d: c5 fa 5a c0                 	vcvtss2sd	%xmm0, %xmm0, %xmm0
100006661: 48 8d 3d e8 18 00 00        	leaq	6376(%rip), %rdi  # 100007f50 <dyld_stub_binder+0x100007f50>
100006668: b0 01                       	movb	$1, %al
10000666a: e8 cb 17 00 00              	callq	0x100007e3a <dyld_stub_binder+0x100007e3a>
10000666f: 83 7c 24 20 00              	cmpl	$0, 32(%rsp)
100006674: 0f 84 a6 00 00 00           	je	0x100006720 <_main+0x940>
10000667a: 31 db                       	xorl	%ebx, %ebx
10000667c: 45 31 ed                    	xorl	%r13d, %r13d
10000667f: eb 48                       	jmp	0x1000066c9 <_main+0x8e9>
100006681: 66 66 66 66 66 66 2e 0f 1f 84 00 00 00 00 00	nopw	%cs:(%rax,%rax)
100006690: e8 9f 17 00 00              	callq	0x100007e34 <dyld_stub_binder+0x100007e34>
100006695: 49 89 c6                    	movq	%rax, %r14
100006698: 4c 89 e7                    	movq	%r12, %rdi
10000669b: 31 f6                       	xorl	%esi, %esi
10000669d: 48 8b 54 24 20              	movq	32(%rsp), %rdx
1000066a2: e8 39 ed ff ff              	callq	0x1000053e0 <_sort_quick_optimized>
1000066a7: e8 88 17 00 00              	callq	0x100007e34 <dyld_stub_binder+0x100007e34>
1000066ac: 48 8b 5c 24 10              	movq	16(%rsp), %rbx
1000066b1: 4c 29 f3                    	subq	%r14, %rbx
1000066b4: 4c 8b 74 24 28              	movq	40(%rsp), %r14
1000066b9: 48 01 c3                    	addq	%rax, %rbx
1000066bc: 41 ff c5                    	incl	%r13d
1000066bf: 41 83 fd 32                 	cmpl	$50, %r13d
1000066c3: 0f 84 66 05 00 00           	je	0x100006c2f <_main+0xe4f>
1000066c9: 48 89 5c 24 10              	movq	%rbx, 16(%rsp)
1000066ce: 31 db                       	xorl	%ebx, %ebx
1000066d0: eb 2b                       	jmp	0x1000066fd <_main+0x91d>
1000066d2: 66 66 66 66 66 2e 0f 1f 84 00 00 00 00 00   	nopw	%cs:(%rax,%rax)
1000066e0: 31 d2                       	xorl	%edx, %edx
1000066e2: 49 f7 f7                    	divq	%r15
1000066e5: 41 8b 04 94                 	movl	(%r12,%rdx,4), %eax
1000066e9: 41 8b 0c 9c                 	movl	(%r12,%rbx,4), %ecx
1000066ed: 41 89 0c 94                 	movl	%ecx, (%r12,%rdx,4)
1000066f1: 41 89 04 9c                 	movl	%eax, (%r12,%rbx,4)
1000066f5: 48 ff c3                    	incq	%rbx
1000066f8: 49 39 de                    	cmpq	%rbx, %r14
1000066fb: 74 93                       	je	0x100006690 <_main+0x8b0>
1000066fd: e8 44 17 00 00              	callq	0x100007e46 <dyld_stub_binder+0x100007e46>
100006702: 48 98                       	cltq
100006704: 48 01 d8                    	addq	%rbx, %rax
100006707: 48 89 c1                    	movq	%rax, %rcx
10000670a: 4c 09 f9                    	orq	%r15, %rcx
10000670d: 48 c1 e9 20                 	shrq	$32, %rcx
100006711: 75 cd                       	jne	0x1000066e0 <_main+0x900>
100006713: 31 d2                       	xorl	%edx, %edx
100006715: 41 f7 f7                    	divl	%r15d
100006718: eb cb                       	jmp	0x1000066e5 <_main+0x905>
10000671a: 66 0f 1f 44 00 00           	nopw	(%rax,%rax)
100006720: e8 0f 17 00 00              	callq	0x100007e34 <dyld_stub_binder+0x100007e34>
100006725: 48 89 44 24 10              	movq	%rax, 16(%rsp)
10000672a: e8 05 17 00 00              	callq	0x100007e34 <dyld_stub_binder+0x100007e34>
10000672f: 48 89 44 24 18              	movq	%rax, 24(%rsp)
100006734: e8 fb 16 00 00              	callq	0x100007e34 <dyld_stub_binder+0x100007e34>
100006739: 49 89 c6                    	movq	%rax, %r14
10000673c: e8 f3 16 00 00              	callq	0x100007e34 <dyld_stub_binder+0x100007e34>
100006741: 48 89 c3                    	movq	%rax, %rbx
100006744: e8 eb 16 00 00              	callq	0x100007e34 <dyld_stub_binder+0x100007e34>
100006749: 49 89 c5                    	movq	%rax, %r13
10000674c: e8 e3 16 00 00              	callq	0x100007e34 <dyld_stub_binder+0x100007e34>
100006751: 48 89 44 24 30              	movq	%rax, 48(%rsp)
100006756: 4d 01 f5                    	addq	%r14, %r13
100006759: 48 03 5c 24 18              	addq	24(%rsp), %rbx
10000675e: 4c 03 6c 24 10              	addq	16(%rsp), %r13
100006763: e8 cc 16 00 00              	callq	0x100007e34 <dyld_stub_binder+0x100007e34>
100006768: 49 89 c6                    	movq	%rax, %r14
10000676b: e8 c4 16 00 00              	callq	0x100007e34 <dyld_stub_binder+0x100007e34>
100006770: 48 89 44 24 10              	movq	%rax, 16(%rsp)
100006775: 48 03 5c 24 30              	addq	48(%rsp), %rbx
10000677a: 4d 01 ee                    	addq	%r13, %r14
10000677d: e8 b2 16 00 00              	callq	0x100007e34 <dyld_stub_binder+0x100007e34>
100006782: 49 89 c5                    	movq	%rax, %r13
100006785: e8 aa 16 00 00              	callq	0x100007e34 <dyld_stub_binder+0x100007e34>
10000678a: 48 89 44 24 18              	movq	%rax, 24(%rsp)
10000678f: 48 03 5c 24 10              	addq	16(%rsp), %rbx
100006794: 4d 01 f5                    	addq	%r14, %r13
100006797: e8 98 16 00 00              	callq	0x100007e34 <dyld_stub_binder+0x100007e34>
10000679c: 49 89 c6                    	movq	%rax, %r14
10000679f: e8 90 16 00 00              	callq	0x100007e34 <dyld_stub_binder+0x100007e34>
1000067a4: 48 89 44 24 10              	movq	%rax, 16(%rsp)
1000067a9: 48 03 5c 24 18              	addq	24(%rsp), %rbx
1000067ae: 4d 01 ee                    	addq	%r13, %r14
1000067b1: e8 7e 16 00 00              	callq	0x100007e34 <dyld_stub_binder+0x100007e34>
1000067b6: 49 89 c5                    	movq	%rax, %r13
1000067b9: e8 76 16 00 00              	callq	0x100007e34 <dyld_stub_binder+0x100007e34>
1000067be: 48 89 44 24 18              	movq	%rax, 24(%rsp)
1000067c3: 48 03 5c 24 10              	addq	16(%rsp), %rbx
1000067c8: 4d 01 f5                    	addq	%r14, %r13
1000067cb: e8 64 16 00 00              	callq	0x100007e34 <dyld_stub_binder+0x100007e34>
1000067d0: 49 89 c6                    	movq	%rax, %r14
1000067d3: e8 5c 16 00 00              	callq	0x100007e34 <dyld_stub_binder+0x100007e34>
1000067d8: 48 89 44 24 10              	movq	%rax, 16(%rsp)
1000067dd: 48 03 5c 24 18              	addq	24(%rsp), %rbx
1000067e2: 4d 01 ee                    	addq	%r13, %r14
1000067e5: e8 4a 16 00 00              	callq	0x100007e34 <dyld_stub_binder+0x100007e34>
1000067ea: 49 89 c5                    	movq	%rax, %r13
1000067ed: e8 42 16 00 00              	callq	0x100007e34 <dyld_stub_binder+0x100007e34>
1000067f2: 48 89 44 24 18              	movq	%rax, 24(%rsp)
1000067f7: 48 03 5c 24 10              	addq	16(%rsp), %rbx
1000067fc: 4d 01 f5                    	addq	%r14, %r13
1000067ff: e8 30 16 00 00              	callq	0x100007e34 <dyld_stub_binder+0x100007e34>
100006804: 49 89 c6                    	movq	%rax, %r14
100006807: e8 28 16 00 00              	callq	0x100007e34 <dyld_stub_binder+0x100007e34>
10000680c: 48 89 44 24 10              	movq	%rax, 16(%rsp)
100006811: 48 03 5c 24 18              	addq	24(%rsp), %rbx
100006816: 4d 01 ee                    	addq	%r13, %r14
100006819: e8 16 16 00 00              	callq	0x100007e34 <dyld_stub_binder+0x100007e34>
10000681e: 49 89 c5                    	movq	%rax, %r13
100006821: e8 0e 16 00 00              	callq	0x100007e34 <dyld_stub_binder+0x100007e34>
100006826: 48 89 44 24 18              	movq	%rax, 24(%rsp)
10000682b: 48 03 5c 24 10              	addq	16(%rsp), %rbx
100006830: 4d 01 f5                    	addq	%r14, %r13
100006833: e8 fc 15 00 00              	callq	0x100007e34 <dyld_stub_binder+0x100007e34>
100006838: 49 89 c6                    	movq	%rax, %r14
10000683b: e8 f4 15 00 00              	callq	0x100007e34 <dyld_stub_binder+0x100007e34>
100006840: 48 89 44 24 10              	movq	%rax, 16(%rsp)
100006845: 48 03 5c 24 18              	addq	24(%rsp), %rbx
10000684a: 4d 01 ee                    	addq	%r13, %r14
10000684d: e8 e2 15 00 00              	callq	0x100007e34 <dyld_stub_binder+0x100007e34>
100006852: 49 89 c5                    	movq	%rax, %r13
100006855: e8 da 15 00 00              	callq	0x100007e34 <dyld_stub_binder+0x100007e34>
10000685a: 48 89 44 24 18              	movq	%rax, 24(%rsp)
10000685f: 48 03 5c 24 10              	addq	16(%rsp), %rbx
100006864: 4d 01 f5                    	addq	%r14, %r13
100006867: e8 c8 15 00 00              	callq	0x100007e34 <dyld_stub_binder+0x100007e34>
10000686c: 49 89 c6                    	movq	%rax, %r14
10000686f: e8 c0 15 00 00              	callq	0x100007e34 <dyld_stub_binder+0x100007e34>
100006874: 48 89 44 24 10              	movq	%rax, 16(%rsp)
100006879: 48 03 5c 24 18              	addq	24(%rsp), %rbx
10000687e: 4d 01 ee                    	addq	%r13, %r14
100006881: e8 ae 15 00 00              	callq	0x100007e34 <dyld_stub_binder+0x100007e34>
100006886: 49 89 c5                    	movq	%rax, %r13
100006889: e8 a6 15 00 00              	callq	0x100007e34 <dyld_stub_binder+0x100007e34>
10000688e: 48 89 44 24 18              	movq	%rax, 24(%rsp)
100006893: 48 03 5c 24 10              	addq	16(%rsp), %rbx
100006898: 4d 01 f5                    	addq	%r14, %r13
10000689b: e8 94 15 00 00              	callq	0x100007e34 <dyld_stub_binder+0x100007e34>
1000068a0: 49 89 c6                    	movq	%rax, %r14
1000068a3: e8 8c 15 00 00              	callq	0x100007e34 <dyld_stub_binder+0x100007e34>
1000068a8: 48 89 44 24 10              	movq	%rax, 16(%rsp)
1000068ad: 48 03 5c 24 18              	addq	24(%rsp), %rbx
1000068b2: 4d 01 ee                    	addq	%r13, %r14
1000068b5: e8 7a 15 00 00              	callq	0x100007e34 <dyld_stub_binder+0x100007e34>
1000068ba: 49 89 c5                    	movq	%rax, %r13
1000068bd: e8 72 15 00 00              	callq	0x100007e34 <dyld_stub_binder+0x100007e34>
1000068c2: 48 89 44 24 18              	movq	%rax, 24(%rsp)
1000068c7: 48 03 5c 24 10              	addq	16(%rsp), %rbx
1000068cc: 4d 01 f5                    	addq	%r14, %r13
1000068cf: e8 60 15 00 00              	callq	0x100007e34 <dyld_stub_binder+0x100007e34>
1000068d4: 49 89 c6                    	movq	%rax, %r14
1000068d7: e8 58 15 00 00              	callq	0x100007e34 <dyld_stub_binder+0x100007e34>
1000068dc: 48 89 44 24 10              	movq	%rax, 16(%rsp)
1000068e1: 48 03 5c 24 18              	addq	24(%rsp), %rbx
1000068e6: 4d 01 ee                    	addq	%r13, %r14
1000068e9: e8 46 15 00 00              	callq	0x100007e34 <dyld_stub_binder+0x100007e34>
1000068ee: 49 89 c5                    	movq	%rax, %r13
1000068f1: e8 3e 15 00 00              	callq	0x100007e34 <dyld_stub_binder+0x100007e34>
1000068f6: 48 89 44 24 18              	movq	%rax, 24(%rsp)
1000068fb: 48 03 5c 24 10              	addq	16(%rsp), %rbx
100006900: 4d 01 f5                    	addq	%r14, %r13
100006903: e8 2c 15 00 00              	callq	0x100007e34 <dyld_stub_binder+0x100007e34>
100006908: 49 89 c6                    	movq	%rax, %r14
10000690b: e8 24 15 00 00              	callq	0x100007e34 <dyld_stub_binder+0x100007e34>
100006910: 48 89 44 24 10              	movq	%rax, 16(%rsp)
100006915: 48 03 5c 24 18              	addq	24(%rsp), %rbx
10000691a: 4d 01 ee                    	addq	%r13, %r14
10000691d: e8 12 15 00 00              	callq	0x100007e34 <dyld_stub_binder+0x100007e34>
100006922: 49 89 c5                    	movq	%rax, %r13
100006925: e8 0a 15 00 00              	callq	0x100007e34 <dyld_stub_binder+0x100007e34>
10000692a: 48 89 44 24 18              	movq	%rax, 24(%rsp)
10000692f: 48 03 5c 24 10              	addq	16(%rsp), %rbx
100006934: 4d 01 f5                    	addq	%r14, %r13
100006937: e8 f8 14 00 00              	callq	0x100007e34 <dyld_stub_binder+0x100007e34>
10000693c: 49 89 c6                    	movq	%rax, %r14
10000693f: e8 f0 14 00 00              	callq	0x100007e34 <dyld_stub_binder+0x100007e34>
100006944: 48 89 44 24 10              	movq	%rax, 16(%rsp)
100006949: 48 03 5c 24 18              	addq	24(%rsp), %rbx
10000694e: 4d 01 ee                    	addq	%r13, %r14
100006951: e8 de 14 00 00              	callq	0x100007e34 <dyld_stub_binder+0x100007e34>
100006956: 49 89 c5                    	movq	%rax, %r13
100006959: e8 d6 14 00 00              	callq	0x100007e34 <dyld_stub_binder+0x100007e34>
10000695e: 48 89 44 24 18              	movq	%rax, 24(%rsp)
100006963: 48 03 5c 24 10              	addq	16(%rsp), %rbx
100006968: 4d 01 f5                    	addq	%r14, %r13
10000696b: e8 c4 14 00 00              	callq	0x100007e34 <dyld_stub_binder+0x100007e34>
100006970: 49 89 c6                    	movq	%rax, %r14
100006973: e8 bc 14 00 00              	callq	0x100007e34 <dyld_stub_binder+0x100007e34>
100006978: 48 89 44 24 10              	movq	%rax, 16(%rsp)
10000697d: 48 03 5c 24 18              	addq	24(%rsp), %rbx
100006982: 4d 01 ee                    	addq	%r13, %r14
100006985: e8 aa 14 00 00              	callq	0x100007e34 <dyld_stub_binder+0x100007e34>
10000698a: 49 89 c5                    	movq	%rax, %r13
10000698d: e8 a2 14 00 00              	callq	0x100007e34 <dyld_stub_binder+0x100007e34>
100006992: 48 89 44 24 18              	movq	%rax, 24(%rsp)
100006997: 48 03 5c 24 10              	addq	16(%rsp), %rbx
10000699c: 4d 01 f5                    	addq	%r14, %r13
10000699f: e8 90 14 00 00              	callq	0x100007e34 <dyld_stub_binder+0x100007e34>
1000069a4: 49 89 c6                    	movq	%rax, %r14
1000069a7: e8 88 14 00 00              	callq	0x100007e34 <dyld_stub_binder+0x100007e34>
1000069ac: 48 89 44 24 10              	movq	%rax, 16(%rsp)
1000069b1: 48 03 5c 24 18              	addq	24(%rsp), %rbx
1000069b6: 4d 01 ee                    	addq	%r13, %r14
1000069b9: e8 76 14 00 00              	callq	0x100007e34 <dyld_stub_binder+0x100007e34>
1000069be: 49 89 c5                    	movq	%rax, %r13
1000069c1: e8 6e 14 00 00              	callq	0x100007e34 <dyld_stub_binder+0x100007e34>
1000069c6: 48 89 44 24 18              	movq	%rax, 24(%rsp)
1000069cb: 48 03 5c 24 10              	addq	16(%rsp), %rbx
1000069d0: 4d 01 f5                    	addq	%r14, %r13
1000069d3: e8 5c 14 00 00              	callq	0x100007e34 <dyld_stub_binder+0x100007e34>
1000069d8: 49 89 c6                    	movq	%rax, %r14
1000069db: e8 54 14 00 00              	callq	0x100007e34 <dyld_stub_binder+0x100007e34>
1000069e0: 48 89 44 24 10              	movq	%rax, 16(%rsp)
1000069e5: 48 03 5c 24 18              	addq	24(%rsp), %rbx
1000069ea: 4d 01 ee                    	addq	%r13, %r14
1000069ed: e8 42 14 00 00              	callq	0x100007e34 <dyld_stub_binder+0x100007e34>
1000069f2: 49 89 c5                    	movq	%rax, %r13
1000069f5: e8 3a 14 00 00              	callq	0x100007e34 <dyld_stub_binder+0x100007e34>
1000069fa: 48 89 44 24 18              	movq	%rax, 24(%rsp)
1000069ff: 48 03 5c 24 10              	addq	16(%rsp), %rbx
100006a04: 4d 01 f5                    	addq	%r14, %r13
100006a07: e8 28 14 00 00              	callq	0x100007e34 <dyld_stub_binder+0x100007e34>
100006a0c: 49 89 c6                    	movq	%rax, %r14
100006a0f: e8 20 14 00 00              	callq	0x100007e34 <dyld_stub_binder+0x100007e34>
100006a14: 48 89 44 24 10              	movq	%rax, 16(%rsp)
100006a19: 48 03 5c 24 18              	addq	24(%rsp), %rbx
100006a1e: 4d 01 ee                    	addq	%r13, %r14
100006a21: e8 0e 14 00 00              	callq	0x100007e34 <dyld_stub_binder+0x100007e34>
100006a26: 49 89 c5                    	movq	%rax, %r13
100006a29: e8 06 14 00 00              	callq	0x100007e34 <dyld_stub_binder+0x100007e34>
100006a2e: 48 89 44 24 18              	movq	%rax, 24(%rsp)
100006a33: 48 03 5c 24 10              	addq	16(%rsp), %rbx
100006a38: 4d 01 f5                    	addq	%r14, %r13
100006a3b: e8 f4 13 00 00              	callq	0x100007e34 <dyld_stub_binder+0x100007e34>
100006a40: 49 89 c6                    	movq	%rax, %r14
100006a43: e8 ec 13 00 00              	callq	0x100007e34 <dyld_stub_binder+0x100007e34>
100006a48: 48 89 44 24 10              	movq	%rax, 16(%rsp)
100006a4d: 48 03 5c 24 18              	addq	24(%rsp), %rbx
100006a52: 4d 01 ee                    	addq	%r13, %r14
100006a55: e8 da 13 00 00              	callq	0x100007e34 <dyld_stub_binder+0x100007e34>
100006a5a: 49 89 c5                    	movq	%rax, %r13
100006a5d: e8 d2 13 00 00              	callq	0x100007e34 <dyld_stub_binder+0x100007e34>
100006a62: 48 89 44 24 18              	movq	%rax, 24(%rsp)
100006a67: 48 03 5c 24 10              	addq	16(%rsp), %rbx
100006a6c: 4d 01 f5                    	addq	%r14, %r13
100006a6f: e8 c0 13 00 00              	callq	0x100007e34 <dyld_stub_binder+0x100007e34>
100006a74: 49 89 c6                    	movq	%rax, %r14
100006a77: e8 b8 13 00 00              	callq	0x100007e34 <dyld_stub_binder+0x100007e34>
100006a7c: 48 89 44 24 10              	movq	%rax, 16(%rsp)
100006a81: 48 03 5c 24 18              	addq	24(%rsp), %rbx
100006a86: 4d 01 ee                    	addq	%r13, %r14
100006a89: e8 a6 13 00 00              	callq	0x100007e34 <dyld_stub_binder+0x100007e34>
100006a8e: 49 89 c5                    	movq	%rax, %r13
100006a91: e8 9e 13 00 00              	callq	0x100007e34 <dyld_stub_binder+0x100007e34>
100006a96: 48 89 44 24 18              	movq	%rax, 24(%rsp)
100006a9b: 48 03 5c 24 10              	addq	16(%rsp), %rbx
100006aa0: 4d 01 f5                    	addq	%r14, %r13
100006aa3: e8 8c 13 00 00              	callq	0x100007e34 <dyld_stub_binder+0x100007e34>
100006aa8: 49 89 c6                    	movq	%rax, %r14
100006aab: e8 84 13 00 00              	callq	0x100007e34 <dyld_stub_binder+0x100007e34>
100006ab0: 48 89 44 24 10              	movq	%rax, 16(%rsp)
100006ab5: 48 03 5c 24 18              	addq	24(%rsp), %rbx
100006aba: 4d 01 ee                    	addq	%r13, %r14
100006abd: e8 72 13 00 00              	callq	0x100007e34 <dyld_stub_binder+0x100007e34>
100006ac2: 49 89 c5                    	movq	%rax, %r13
100006ac5: e8 6a 13 00 00              	callq	0x100007e34 <dyld_stub_binder+0x100007e34>
100006aca: 48 89 44 24 18              	movq	%rax, 24(%rsp)
100006acf: 48 03 5c 24 10              	addq	16(%rsp), %rbx
100006ad4: 4d 01 f5                    	addq	%r14, %r13
100006ad7: e8 58 13 00 00              	callq	0x100007e34 <dyld_stub_binder+0x100007e34>
100006adc: 49 89 c6                    	movq	%rax, %r14
100006adf: e8 50 13 00 00              	callq	0x100007e34 <dyld_stub_binder+0x100007e34>
100006ae4: 48 89 44 24 10              	movq	%rax, 16(%rsp)
100006ae9: 48 03 5c 24 18              	addq	24(%rsp), %rbx
100006aee: 4d 01 ee                    	addq	%r13, %r14
100006af1: e8 3e 13 00 00              	callq	0x100007e34 <dyld_stub_binder+0x100007e34>
100006af6: 49 89 c5                    	movq	%rax, %r13
100006af9: e8 36 13 00 00              	callq	0x100007e34 <dyld_stub_binder+0x100007e34>
100006afe: 48 89 44 24 18              	movq	%rax, 24(%rsp)
100006b03: 48 03 5c 24 10              	addq	16(%rsp), %rbx
100006b08: 4d 01 f5                    	addq	%r14, %r13
100006b0b: e8 24 13 00 00              	callq	0x100007e34 <dyld_stub_binder+0x100007e34>
100006b10: 49 89 c6                    	movq	%rax, %r14
100006b13: e8 1c 13 00 00              	callq	0x100007e34 <dyld_stub_binder+0x100007e34>
100006b18: 48 89 44 24 10              	movq	%rax, 16(%rsp)
100006b1d: 48 03 5c 24 18              	addq	24(%rsp), %rbx
100006b22: 4d 01 ee                    	addq	%r13, %r14
100006b25: e8 0a 13 00 00              	callq	0x100007e34 <dyld_stub_binder+0x100007e34>
100006b2a: 49 89 c5                    	movq	%rax, %r13
100006b2d: e8 02 13 00 00              	callq	0x100007e34 <dyld_stub_binder+0x100007e34>
100006b32: 48 89 44 24 18              	movq	%rax, 24(%rsp)
100006b37: 48 03 5c 24 10              	addq	16(%rsp), %rbx
100006b3c: 4d 01 f5                    	addq	%r14, %r13
100006b3f: e8 f0 12 00 00              	callq	0x100007e34 <dyld_stub_binder+0x100007e34>
100006b44: 49 89 c6                    	movq	%rax, %r14
100006b47: e8 e8 12 00 00              	callq	0x100007e34 <dyld_stub_binder+0x100007e34>
100006b4c: 48 89 44 24 10              	movq	%rax, 16(%rsp)
100006b51: 48 03 5c 24 18              	addq	24(%rsp), %rbx
100006b56: 4d 01 ee                    	addq	%r13, %r14
100006b59: e8 d6 12 00 00              	callq	0x100007e34 <dyld_stub_binder+0x100007e34>
100006b5e: 49 89 c5                    	movq	%rax, %r13
100006b61: e8 ce 12 00 00              	callq	0x100007e34 <dyld_stub_binder+0x100007e34>
100006b66: 48 89 44 24 18              	movq	%rax, 24(%rsp)
100006b6b: 48 03 5c 24 10              	addq	16(%rsp), %rbx
100006b70: 4d 01 f5                    	addq	%r14, %r13
100006b73: e8 bc 12 00 00              	callq	0x100007e34 <dyld_stub_binder+0x100007e34>
100006b78: 49 89 c6                    	movq	%rax, %r14
100006b7b: e8 b4 12 00 00              	callq	0x100007e34 <dyld_stub_binder+0x100007e34>
100006b80: 48 89 44 24 10              	movq	%rax, 16(%rsp)
100006b85: 48 03 5c 24 18              	addq	24(%rsp), %rbx
100006b8a: 4d 01 ee                    	addq	%r13, %r14
100006b8d: e8 a2 12 00 00              	callq	0x100007e34 <dyld_stub_binder+0x100007e34>
100006b92: 49 89 c5                    	movq	%rax, %r13
100006b95: e8 9a 12 00 00              	callq	0x100007e34 <dyld_stub_binder+0x100007e34>
100006b9a: 48 89 44 24 18              	movq	%rax, 24(%rsp)
100006b9f: 48 03 5c 24 10              	addq	16(%rsp), %rbx
100006ba4: 4d 01 f5                    	addq	%r14, %r13
100006ba7: e8 88 12 00 00              	callq	0x100007e34 <dyld_stub_binder+0x100007e34>
100006bac: 49 89 c6                    	movq	%rax, %r14
100006baf: e8 80 12 00 00              	callq	0x100007e34 <dyld_stub_binder+0x100007e34>
100006bb4: 48 89 44 24 10              	movq	%rax, 16(%rsp)
100006bb9: 48 03 5c 24 18              	addq	24(%rsp), %rbx
100006bbe: 4d 01 ee                    	addq	%r13, %r14
100006bc1: e8 6e 12 00 00              	callq	0x100007e34 <dyld_stub_binder+0x100007e34>
100006bc6: 49 89 c5                    	movq	%rax, %r13
100006bc9: e8 66 12 00 00              	callq	0x100007e34 <dyld_stub_binder+0x100007e34>
100006bce: 48 89 44 24 18              	movq	%rax, 24(%rsp)
100006bd3: 48 03 5c 24 10              	addq	16(%rsp), %rbx
100006bd8: 4d 01 f5                    	addq	%r14, %r13
100006bdb: e8 54 12 00 00              	callq	0x100007e34 <dyld_stub_binder+0x100007e34>
100006be0: 49 89 c6                    	movq	%rax, %r14
100006be3: e8 4c 12 00 00              	callq	0x100007e34 <dyld_stub_binder+0x100007e34>
100006be8: 48 89 44 24 10              	movq	%rax, 16(%rsp)
100006bed: 48 03 5c 24 18              	addq	24(%rsp), %rbx
100006bf2: 4d 01 ee                    	addq	%r13, %r14
100006bf5: e8 3a 12 00 00              	callq	0x100007e34 <dyld_stub_binder+0x100007e34>
100006bfa: 49 89 c5                    	movq	%rax, %r13
100006bfd: e8 32 12 00 00              	callq	0x100007e34 <dyld_stub_binder+0x100007e34>
100006c02: 48 89 44 24 18              	movq	%rax, 24(%rsp)
100006c07: 48 03 5c 24 10              	addq	16(%rsp), %rbx
100006c0c: 4d 01 f5                    	addq	%r14, %r13
100006c0f: e8 20 12 00 00              	callq	0x100007e34 <dyld_stub_binder+0x100007e34>
100006c14: 49 89 c6                    	movq	%rax, %r14
100006c17: e8 18 12 00 00              	callq	0x100007e34 <dyld_stub_binder+0x100007e34>
100006c1c: 48 03 5c 24 18              	addq	24(%rsp), %rbx
100006c21: 4d 01 ee                    	addq	%r13, %r14
100006c24: 4c 29 f3                    	subq	%r14, %rbx
100006c27: 4c 8b 74 24 28              	movq	40(%rsp), %r14
100006c2c: 48 01 c3                    	addq	%rax, %rbx
100006c2f: 48 85 db                    	testq	%rbx, %rbx
100006c32: 78 0c                       	js	0x100006c40 <_main+0xe60>
100006c34: c4 e1 da 2a c3              	vcvtsi2ss	%rbx, %xmm4, %xmm0
100006c39: eb 1a                       	jmp	0x100006c55 <_main+0xe75>
100006c3b: 0f 1f 44 00 00              	nopl	(%rax,%rax)
100006c40: 48 89 d8                    	movq	%rbx, %rax
100006c43: 48 d1 e8                    	shrq	%rax
100006c46: 83 e3 01                    	andl	$1, %ebx
100006c49: 48 09 c3                    	orq	%rax, %rbx
100006c4c: c4 e1 da 2a c3              	vcvtsi2ss	%rbx, %xmm4, %xmm0
100006c51: c5 fa 58 c0                 	vaddss	%xmm0, %xmm0, %xmm0
100006c55: c5 fa 10 0d eb 12 00 00     	vmovss	4843(%rip), %xmm1  # 100007f48 <_RUNS_PER_BENCH+0x64>
100006c5d: c5 fa 59 c1                 	vmulss	%xmm1, %xmm0, %xmm0
100006c61: c5 fa 5e c1                 	vdivss	%xmm1, %xmm0, %xmm0
100006c65: c5 fa 5e 05 df 12 00 00     	vdivss	4831(%rip), %xmm0, %xmm0  # 100007f4c <_RUNS_PER_BENCH+0x68>
100006c6d: c5 fa 5a c0                 	vcvtss2sd	%xmm0, %xmm0, %xmm0
100006c71: 48 8d 3d d8 12 00 00        	leaq	4824(%rip), %rdi  # 100007f50 <dyld_stub_binder+0x100007f50>
100006c78: b0 01                       	movb	$1, %al
100006c7a: e8 bb 11 00 00              	callq	0x100007e3a <dyld_stub_binder+0x100007e3a>
100006c7f: 83 7c 24 20 00              	cmpl	$0, 32(%rsp)
100006c84: 0f 84 a6 00 00 00           	je	0x100006d30 <_main+0xf50>
100006c8a: 31 db                       	xorl	%ebx, %ebx
100006c8c: 45 31 ed                    	xorl	%r13d, %r13d
100006c8f: eb 48                       	jmp	0x100006cd9 <_main+0xef9>
100006c91: 66 66 66 66 66 66 2e 0f 1f 84 00 00 00 00 00	nopw	%cs:(%rax,%rax)
100006ca0: e8 8f 11 00 00              	callq	0x100007e34 <dyld_stub_binder+0x100007e34>
100006ca5: 49 89 c6                    	movq	%rax, %r14
100006ca8: 4c 89 e7                    	movq	%r12, %rdi
100006cab: 31 f6                       	xorl	%esi, %esi
100006cad: 48 8b 54 24 20              	movq	32(%rsp), %rdx
100006cb2: e8 89 eb ff ff              	callq	0x100005840 <_sort_quick_simd>
100006cb7: e8 78 11 00 00              	callq	0x100007e34 <dyld_stub_binder+0x100007e34>
100006cbc: 48 8b 5c 24 10              	movq	16(%rsp), %rbx
100006cc1: 4c 29 f3                    	subq	%r14, %rbx
100006cc4: 4c 8b 74 24 28              	movq	40(%rsp), %r14
100006cc9: 48 01 c3                    	addq	%rax, %rbx
100006ccc: 41 ff c5                    	incl	%r13d
100006ccf: 41 83 fd 32                 	cmpl	$50, %r13d
100006cd3: 0f 84 66 05 00 00           	je	0x10000723f <_main+0x145f>
100006cd9: 48 89 5c 24 10              	movq	%rbx, 16(%rsp)
100006cde: 31 db                       	xorl	%ebx, %ebx
100006ce0: eb 2b                       	jmp	0x100006d0d <_main+0xf2d>
100006ce2: 66 66 66 66 66 2e 0f 1f 84 00 00 00 00 00   	nopw	%cs:(%rax,%rax)
100006cf0: 31 d2                       	xorl	%edx, %edx
100006cf2: 49 f7 f7                    	divq	%r15
100006cf5: 41 8b 04 94                 	movl	(%r12,%rdx,4), %eax
100006cf9: 41 8b 0c 9c                 	movl	(%r12,%rbx,4), %ecx
100006cfd: 41 89 0c 94                 	movl	%ecx, (%r12,%rdx,4)
100006d01: 41 89 04 9c                 	movl	%eax, (%r12,%rbx,4)
100006d05: 48 ff c3                    	incq	%rbx
100006d08: 49 39 de                    	cmpq	%rbx, %r14
100006d0b: 74 93                       	je	0x100006ca0 <_main+0xec0>
100006d0d: e8 34 11 00 00              	callq	0x100007e46 <dyld_stub_binder+0x100007e46>
100006d12: 48 98                       	cltq
100006d14: 48 01 d8                    	addq	%rbx, %rax
100006d17: 48 89 c1                    	movq	%rax, %rcx
100006d1a: 4c 09 f9                    	orq	%r15, %rcx
100006d1d: 48 c1 e9 20                 	shrq	$32, %rcx
100006d21: 75 cd                       	jne	0x100006cf0 <_main+0xf10>
100006d23: 31 d2                       	xorl	%edx, %edx
100006d25: 41 f7 f7                    	divl	%r15d
100006d28: eb cb                       	jmp	0x100006cf5 <_main+0xf15>
100006d2a: 66 0f 1f 44 00 00           	nopw	(%rax,%rax)
100006d30: e8 ff 10 00 00              	callq	0x100007e34 <dyld_stub_binder+0x100007e34>
100006d35: 48 89 44 24 10              	movq	%rax, 16(%rsp)
100006d3a: e8 f5 10 00 00              	callq	0x100007e34 <dyld_stub_binder+0x100007e34>
100006d3f: 48 89 44 24 18              	movq	%rax, 24(%rsp)
100006d44: e8 eb 10 00 00              	callq	0x100007e34 <dyld_stub_binder+0x100007e34>
100006d49: 49 89 c6                    	movq	%rax, %r14
100006d4c: e8 e3 10 00 00              	callq	0x100007e34 <dyld_stub_binder+0x100007e34>
100006d51: 48 89 c3                    	movq	%rax, %rbx
100006d54: e8 db 10 00 00              	callq	0x100007e34 <dyld_stub_binder+0x100007e34>
100006d59: 49 89 c5                    	movq	%rax, %r13
100006d5c: e8 d3 10 00 00              	callq	0x100007e34 <dyld_stub_binder+0x100007e34>
100006d61: 48 89 44 24 30              	movq	%rax, 48(%rsp)
100006d66: 4d 01 f5                    	addq	%r14, %r13
100006d69: 48 03 5c 24 18              	addq	24(%rsp), %rbx
100006d6e: 4c 03 6c 24 10              	addq	16(%rsp), %r13
100006d73: e8 bc 10 00 00              	callq	0x100007e34 <dyld_stub_binder+0x100007e34>
100006d78: 49 89 c6                    	movq	%rax, %r14
100006d7b: e8 b4 10 00 00              	callq	0x100007e34 <dyld_stub_binder+0x100007e34>
100006d80: 48 89 44 24 10              	movq	%rax, 16(%rsp)
100006d85: 48 03 5c 24 30              	addq	48(%rsp), %rbx
100006d8a: 4d 01 ee                    	addq	%r13, %r14
100006d8d: e8 a2 10 00 00              	callq	0x100007e34 <dyld_stub_binder+0x100007e34>
100006d92: 49 89 c5                    	movq	%rax, %r13
100006d95: e8 9a 10 00 00              	callq	0x100007e34 <dyld_stub_binder+0x100007e34>
100006d9a: 48 89 44 24 18              	movq	%rax, 24(%rsp)
100006d9f: 48 03 5c 24 10              	addq	16(%rsp), %rbx
100006da4: 4d 01 f5                    	addq	%r14, %r13
100006da7: e8 88 10 00 00              	callq	0x100007e34 <dyld_stub_binder+0x100007e34>
100006dac: 49 89 c6                    	movq	%rax, %r14
100006daf: e8 80 10 00 00              	callq	0x100007e34 <dyld_stub_binder+0x100007e34>
100006db4: 48 89 44 24 10              	movq	%rax, 16(%rsp)
100006db9: 48 03 5c 24 18              	addq	24(%rsp), %rbx
100006dbe: 4d 01 ee                    	addq	%r13, %r14
100006dc1: e8 6e 10 00 00              	callq	0x100007e34 <dyld_stub_binder+0x100007e34>
100006dc6: 49 89 c5                    	movq	%rax, %r13
100006dc9: e8 66 10 00 00              	callq	0x100007e34 <dyld_stub_binder+0x100007e34>
100006dce: 48 89 44 24 18              	movq	%rax, 24(%rsp)
100006dd3: 48 03 5c 24 10              	addq	16(%rsp), %rbx
100006dd8: 4d 01 f5                    	addq	%r14, %r13
100006ddb: e8 54 10 00 00              	callq	0x100007e34 <dyld_stub_binder+0x100007e34>
100006de0: 49 89 c6                    	movq	%rax, %r14
100006de3: e8 4c 10 00 00              	callq	0x100007e34 <dyld_stub_binder+0x100007e34>
100006de8: 48 89 44 24 10              	movq	%rax, 16(%rsp)
100006ded: 48 03 5c 24 18              	addq	24(%rsp), %rbx
100006df2: 4d 01 ee                    	addq	%r13, %r14
100006df5: e8 3a 10 00 00              	callq	0x100007e34 <dyld_stub_binder+0x100007e34>
100006dfa: 49 89 c5                    	movq	%rax, %r13
100006dfd: e8 32 10 00 00              	callq	0x100007e34 <dyld_stub_binder+0x100007e34>
100006e02: 48 89 44 24 18              	movq	%rax, 24(%rsp)
100006e07: 48 03 5c 24 10              	addq	16(%rsp), %rbx
100006e0c: 4d 01 f5                    	addq	%r14, %r13
100006e0f: e8 20 10 00 00              	callq	0x100007e34 <dyld_stub_binder+0x100007e34>
100006e14: 49 89 c6                    	movq	%rax, %r14
100006e17: e8 18 10 00 00              	callq	0x100007e34 <dyld_stub_binder+0x100007e34>
100006e1c: 48 89 44 24 10              	movq	%rax, 16(%rsp)
100006e21: 48 03 5c 24 18              	addq	24(%rsp), %rbx
100006e26: 4d 01 ee                    	addq	%r13, %r14
100006e29: e8 06 10 00 00              	callq	0x100007e34 <dyld_stub_binder+0x100007e34>
100006e2e: 49 89 c5                    	movq	%rax, %r13
100006e31: e8 fe 0f 00 00              	callq	0x100007e34 <dyld_stub_binder+0x100007e34>
100006e36: 48 89 44 24 18              	movq	%rax, 24(%rsp)
100006e3b: 48 03 5c 24 10              	addq	16(%rsp), %rbx
100006e40: 4d 01 f5                    	addq	%r14, %r13
100006e43: e8 ec 0f 00 00              	callq	0x100007e34 <dyld_stub_binder+0x100007e34>
100006e48: 49 89 c6                    	movq	%rax, %r14
100006e4b: e8 e4 0f 00 00              	callq	0x100007e34 <dyld_stub_binder+0x100007e34>
100006e50: 48 89 44 24 10              	movq	%rax, 16(%rsp)
100006e55: 48 03 5c 24 18              	addq	24(%rsp), %rbx
100006e5a: 4d 01 ee                    	addq	%r13, %r14
100006e5d: e8 d2 0f 00 00              	callq	0x100007e34 <dyld_stub_binder+0x100007e34>
100006e62: 49 89 c5                    	movq	%rax, %r13
100006e65: e8 ca 0f 00 00              	callq	0x100007e34 <dyld_stub_binder+0x100007e34>
100006e6a: 48 89 44 24 18              	movq	%rax, 24(%rsp)
100006e6f: 48 03 5c 24 10              	addq	16(%rsp), %rbx
100006e74: 4d 01 f5                    	addq	%r14, %r13
100006e77: e8 b8 0f 00 00              	callq	0x100007e34 <dyld_stub_binder+0x100007e34>
100006e7c: 49 89 c6                    	movq	%rax, %r14
100006e7f: e8 b0 0f 00 00              	callq	0x100007e34 <dyld_stub_binder+0x100007e34>
100006e84: 48 89 44 24 10              	movq	%rax, 16(%rsp)
100006e89: 48 03 5c 24 18              	addq	24(%rsp), %rbx
100006e8e: 4d 01 ee                    	addq	%r13, %r14
100006e91: e8 9e 0f 00 00              	callq	0x100007e34 <dyld_stub_binder+0x100007e34>
100006e96: 49 89 c5                    	movq	%rax, %r13
100006e99: e8 96 0f 00 00              	callq	0x100007e34 <dyld_stub_binder+0x100007e34>
100006e9e: 48 89 44 24 18              	movq	%rax, 24(%rsp)
100006ea3: 48 03 5c 24 10              	addq	16(%rsp), %rbx
100006ea8: 4d 01 f5                    	addq	%r14, %r13
100006eab: e8 84 0f 00 00              	callq	0x100007e34 <dyld_stub_binder+0x100007e34>
100006eb0: 49 89 c6                    	movq	%rax, %r14
100006eb3: e8 7c 0f 00 00              	callq	0x100007e34 <dyld_stub_binder+0x100007e34>
100006eb8: 48 89 44 24 10              	movq	%rax, 16(%rsp)
100006ebd: 48 03 5c 24 18              	addq	24(%rsp), %rbx
100006ec2: 4d 01 ee                    	addq	%r13, %r14
100006ec5: e8 6a 0f 00 00              	callq	0x100007e34 <dyld_stub_binder+0x100007e34>
100006eca: 49 89 c5                    	movq	%rax, %r13
100006ecd: e8 62 0f 00 00              	callq	0x100007e34 <dyld_stub_binder+0x100007e34>
100006ed2: 48 89 44 24 18              	movq	%rax, 24(%rsp)
100006ed7: 48 03 5c 24 10              	addq	16(%rsp), %rbx
100006edc: 4d 01 f5                    	addq	%r14, %r13
100006edf: e8 50 0f 00 00              	callq	0x100007e34 <dyld_stub_binder+0x100007e34>
100006ee4: 49 89 c6                    	movq	%rax, %r14
100006ee7: e8 48 0f 00 00              	callq	0x100007e34 <dyld_stub_binder+0x100007e34>
100006eec: 48 89 44 24 10              	movq	%rax, 16(%rsp)
100006ef1: 48 03 5c 24 18              	addq	24(%rsp), %rbx
100006ef6: 4d 01 ee                    	addq	%r13, %r14
100006ef9: e8 36 0f 00 00              	callq	0x100007e34 <dyld_stub_binder+0x100007e34>
100006efe: 49 89 c5                    	movq	%rax, %r13
100006f01: e8 2e 0f 00 00              	callq	0x100007e34 <dyld_stub_binder+0x100007e34>
100006f06: 48 89 44 24 18              	movq	%rax, 24(%rsp)
100006f0b: 48 03 5c 24 10              	addq	16(%rsp), %rbx
100006f10: 4d 01 f5                    	addq	%r14, %r13
100006f13: e8 1c 0f 00 00              	callq	0x100007e34 <dyld_stub_binder+0x100007e34>
100006f18: 49 89 c6                    	movq	%rax, %r14
100006f1b: e8 14 0f 00 00              	callq	0x100007e34 <dyld_stub_binder+0x100007e34>
100006f20: 48 89 44 24 10              	movq	%rax, 16(%rsp)
100006f25: 48 03 5c 24 18              	addq	24(%rsp), %rbx
100006f2a: 4d 01 ee                    	addq	%r13, %r14
100006f2d: e8 02 0f 00 00              	callq	0x100007e34 <dyld_stub_binder+0x100007e34>
100006f32: 49 89 c5                    	movq	%rax, %r13
100006f35: e8 fa 0e 00 00              	callq	0x100007e34 <dyld_stub_binder+0x100007e34>
100006f3a: 48 89 44 24 18              	movq	%rax, 24(%rsp)
100006f3f: 48 03 5c 24 10              	addq	16(%rsp), %rbx
100006f44: 4d 01 f5                    	addq	%r14, %r13
100006f47: e8 e8 0e 00 00              	callq	0x100007e34 <dyld_stub_binder+0x100007e34>
100006f4c: 49 89 c6                    	movq	%rax, %r14
100006f4f: e8 e0 0e 00 00              	callq	0x100007e34 <dyld_stub_binder+0x100007e34>
100006f54: 48 89 44 24 10              	movq	%rax, 16(%rsp)
100006f59: 48 03 5c 24 18              	addq	24(%rsp), %rbx
100006f5e: 4d 01 ee                    	addq	%r13, %r14
100006f61: e8 ce 0e 00 00              	callq	0x100007e34 <dyld_stub_binder+0x100007e34>
100006f66: 49 89 c5                    	movq	%rax, %r13
100006f69: e8 c6 0e 00 00              	callq	0x100007e34 <dyld_stub_binder+0x100007e34>
100006f6e: 48 89 44 24 18              	movq	%rax, 24(%rsp)
100006f73: 48 03 5c 24 10              	addq	16(%rsp), %rbx
100006f78: 4d 01 f5                    	addq	%r14, %r13
100006f7b: e8 b4 0e 00 00              	callq	0x100007e34 <dyld_stub_binder+0x100007e34>
100006f80: 49 89 c6                    	movq	%rax, %r14
100006f83: e8 ac 0e 00 00              	callq	0x100007e34 <dyld_stub_binder+0x100007e34>
100006f88: 48 89 44 24 10              	movq	%rax, 16(%rsp)
100006f8d: 48 03 5c 24 18              	addq	24(%rsp), %rbx
100006f92: 4d 01 ee                    	addq	%r13, %r14
100006f95: e8 9a 0e 00 00              	callq	0x100007e34 <dyld_stub_binder+0x100007e34>
100006f9a: 49 89 c5                    	movq	%rax, %r13
100006f9d: e8 92 0e 00 00              	callq	0x100007e34 <dyld_stub_binder+0x100007e34>
100006fa2: 48 89 44 24 18              	movq	%rax, 24(%rsp)
100006fa7: 48 03 5c 24 10              	addq	16(%rsp), %rbx
100006fac: 4d 01 f5                    	addq	%r14, %r13
100006faf: e8 80 0e 00 00              	callq	0x100007e34 <dyld_stub_binder+0x100007e34>
100006fb4: 49 89 c6                    	movq	%rax, %r14
100006fb7: e8 78 0e 00 00              	callq	0x100007e34 <dyld_stub_binder+0x100007e34>
100006fbc: 48 89 44 24 10              	movq	%rax, 16(%rsp)
100006fc1: 48 03 5c 24 18              	addq	24(%rsp), %rbx
100006fc6: 4d 01 ee                    	addq	%r13, %r14
100006fc9: e8 66 0e 00 00              	callq	0x100007e34 <dyld_stub_binder+0x100007e34>
100006fce: 49 89 c5                    	movq	%rax, %r13
100006fd1: e8 5e 0e 00 00              	callq	0x100007e34 <dyld_stub_binder+0x100007e34>
100006fd6: 48 89 44 24 18              	movq	%rax, 24(%rsp)
100006fdb: 48 03 5c 24 10              	addq	16(%rsp), %rbx
100006fe0: 4d 01 f5                    	addq	%r14, %r13
100006fe3: e8 4c 0e 00 00              	callq	0x100007e34 <dyld_stub_binder+0x100007e34>
100006fe8: 49 89 c6                    	movq	%rax, %r14
100006feb: e8 44 0e 00 00              	callq	0x100007e34 <dyld_stub_binder+0x100007e34>
100006ff0: 48 89 44 24 10              	movq	%rax, 16(%rsp)
100006ff5: 48 03 5c 24 18              	addq	24(%rsp), %rbx
100006ffa: 4d 01 ee                    	addq	%r13, %r14
100006ffd: e8 32 0e 00 00              	callq	0x100007e34 <dyld_stub_binder+0x100007e34>
100007002: 49 89 c5                    	movq	%rax, %r13
100007005: e8 2a 0e 00 00              	callq	0x100007e34 <dyld_stub_binder+0x100007e34>
10000700a: 48 89 44 24 18              	movq	%rax, 24(%rsp)
10000700f: 48 03 5c 24 10              	addq	16(%rsp), %rbx
100007014: 4d 01 f5                    	addq	%r14, %r13
100007017: e8 18 0e 00 00              	callq	0x100007e34 <dyld_stub_binder+0x100007e34>
10000701c: 49 89 c6                    	movq	%rax, %r14
10000701f: e8 10 0e 00 00              	callq	0x100007e34 <dyld_stub_binder+0x100007e34>
100007024: 48 89 44 24 10              	movq	%rax, 16(%rsp)
100007029: 48 03 5c 24 18              	addq	24(%rsp), %rbx
10000702e: 4d 01 ee                    	addq	%r13, %r14
100007031: e8 fe 0d 00 00              	callq	0x100007e34 <dyld_stub_binder+0x100007e34>
100007036: 49 89 c5                    	movq	%rax, %r13
100007039: e8 f6 0d 00 00              	callq	0x100007e34 <dyld_stub_binder+0x100007e34>
10000703e: 48 89 44 24 18              	movq	%rax, 24(%rsp)
100007043: 48 03 5c 24 10              	addq	16(%rsp), %rbx
100007048: 4d 01 f5                    	addq	%r14, %r13
10000704b: e8 e4 0d 00 00              	callq	0x100007e34 <dyld_stub_binder+0x100007e34>
100007050: 49 89 c6                    	movq	%rax, %r14
100007053: e8 dc 0d 00 00              	callq	0x100007e34 <dyld_stub_binder+0x100007e34>
100007058: 48 89 44 24 10              	movq	%rax, 16(%rsp)
10000705d: 48 03 5c 24 18              	addq	24(%rsp), %rbx
100007062: 4d 01 ee                    	addq	%r13, %r14
100007065: e8 ca 0d 00 00              	callq	0x100007e34 <dyld_stub_binder+0x100007e34>
10000706a: 49 89 c5                    	movq	%rax, %r13
10000706d: e8 c2 0d 00 00              	callq	0x100007e34 <dyld_stub_binder+0x100007e34>
100007072: 48 89 44 24 18              	movq	%rax, 24(%rsp)
100007077: 48 03 5c 24 10              	addq	16(%rsp), %rbx
10000707c: 4d 01 f5                    	addq	%r14, %r13
10000707f: e8 b0 0d 00 00              	callq	0x100007e34 <dyld_stub_binder+0x100007e34>
100007084: 49 89 c6                    	movq	%rax, %r14
100007087: e8 a8 0d 00 00              	callq	0x100007e34 <dyld_stub_binder+0x100007e34>
10000708c: 48 89 44 24 10              	movq	%rax, 16(%rsp)
100007091: 48 03 5c 24 18              	addq	24(%rsp), %rbx
100007096: 4d 01 ee                    	addq	%r13, %r14
100007099: e8 96 0d 00 00              	callq	0x100007e34 <dyld_stub_binder+0x100007e34>
10000709e: 49 89 c5                    	movq	%rax, %r13
1000070a1: e8 8e 0d 00 00              	callq	0x100007e34 <dyld_stub_binder+0x100007e34>
1000070a6: 48 89 44 24 18              	movq	%rax, 24(%rsp)
1000070ab: 48 03 5c 24 10              	addq	16(%rsp), %rbx
1000070b0: 4d 01 f5                    	addq	%r14, %r13
1000070b3: e8 7c 0d 00 00              	callq	0x100007e34 <dyld_stub_binder+0x100007e34>
1000070b8: 49 89 c6                    	movq	%rax, %r14
1000070bb: e8 74 0d 00 00              	callq	0x100007e34 <dyld_stub_binder+0x100007e34>
1000070c0: 48 89 44 24 10              	movq	%rax, 16(%rsp)
1000070c5: 48 03 5c 24 18              	addq	24(%rsp), %rbx
1000070ca: 4d 01 ee                    	addq	%r13, %r14
1000070cd: e8 62 0d 00 00              	callq	0x100007e34 <dyld_stub_binder+0x100007e34>
1000070d2: 49 89 c5                    	movq	%rax, %r13
1000070d5: e8 5a 0d 00 00              	callq	0x100007e34 <dyld_stub_binder+0x100007e34>
1000070da: 48 89 44 24 18              	movq	%rax, 24(%rsp)
1000070df: 48 03 5c 24 10              	addq	16(%rsp), %rbx
1000070e4: 4d 01 f5                    	addq	%r14, %r13
1000070e7: e8 48 0d 00 00              	callq	0x100007e34 <dyld_stub_binder+0x100007e34>
1000070ec: 49 89 c6                    	movq	%rax, %r14
1000070ef: e8 40 0d 00 00              	callq	0x100007e34 <dyld_stub_binder+0x100007e34>
1000070f4: 48 89 44 24 10              	movq	%rax, 16(%rsp)
1000070f9: 48 03 5c 24 18              	addq	24(%rsp), %rbx
1000070fe: 4d 01 ee                    	addq	%r13, %r14
100007101: e8 2e 0d 00 00              	callq	0x100007e34 <dyld_stub_binder+0x100007e34>
100007106: 49 89 c5                    	movq	%rax, %r13
100007109: e8 26 0d 00 00              	callq	0x100007e34 <dyld_stub_binder+0x100007e34>
10000710e: 48 89 44 24 18              	movq	%rax, 24(%rsp)
100007113: 48 03 5c 24 10              	addq	16(%rsp), %rbx
100007118: 4d 01 f5                    	addq	%r14, %r13
10000711b: e8 14 0d 00 00              	callq	0x100007e34 <dyld_stub_binder+0x100007e34>
100007120: 49 89 c6                    	movq	%rax, %r14
100007123: e8 0c 0d 00 00              	callq	0x100007e34 <dyld_stub_binder+0x100007e34>
100007128: 48 89 44 24 10              	movq	%rax, 16(%rsp)
10000712d: 48 03 5c 24 18              	addq	24(%rsp), %rbx
100007132: 4d 01 ee                    	addq	%r13, %r14
100007135: e8 fa 0c 00 00              	callq	0x100007e34 <dyld_stub_binder+0x100007e34>
10000713a: 49 89 c5                    	movq	%rax, %r13
10000713d: e8 f2 0c 00 00              	callq	0x100007e34 <dyld_stub_binder+0x100007e34>
100007142: 48 89 44 24 18              	movq	%rax, 24(%rsp)
100007147: 48 03 5c 24 10              	addq	16(%rsp), %rbx
10000714c: 4d 01 f5                    	addq	%r14, %r13
10000714f: e8 e0 0c 00 00              	callq	0x100007e34 <dyld_stub_binder+0x100007e34>
100007154: 49 89 c6                    	movq	%rax, %r14
100007157: e8 d8 0c 00 00              	callq	0x100007e34 <dyld_stub_binder+0x100007e34>
10000715c: 48 89 44 24 10              	movq	%rax, 16(%rsp)
100007161: 48 03 5c 24 18              	addq	24(%rsp), %rbx
100007166: 4d 01 ee                    	addq	%r13, %r14
100007169: e8 c6 0c 00 00              	callq	0x100007e34 <dyld_stub_binder+0x100007e34>
10000716e: 49 89 c5                    	movq	%rax, %r13
100007171: e8 be 0c 00 00              	callq	0x100007e34 <dyld_stub_binder+0x100007e34>
100007176: 48 89 44 24 18              	movq	%rax, 24(%rsp)
10000717b: 48 03 5c 24 10              	addq	16(%rsp), %rbx
100007180: 4d 01 f5                    	addq	%r14, %r13
100007183: e8 ac 0c 00 00              	callq	0x100007e34 <dyld_stub_binder+0x100007e34>
100007188: 49 89 c6                    	movq	%rax, %r14
10000718b: e8 a4 0c 00 00              	callq	0x100007e34 <dyld_stub_binder+0x100007e34>
100007190: 48 89 44 24 10              	movq	%rax, 16(%rsp)
100007195: 48 03 5c 24 18              	addq	24(%rsp), %rbx
10000719a: 4d 01 ee                    	addq	%r13, %r14
10000719d: e8 92 0c 00 00              	callq	0x100007e34 <dyld_stub_binder+0x100007e34>
1000071a2: 49 89 c5                    	movq	%rax, %r13
1000071a5: e8 8a 0c 00 00              	callq	0x100007e34 <dyld_stub_binder+0x100007e34>
1000071aa: 48 89 44 24 18              	movq	%rax, 24(%rsp)
1000071af: 48 03 5c 24 10              	addq	16(%rsp), %rbx
1000071b4: 4d 01 f5                    	addq	%r14, %r13
1000071b7: e8 78 0c 00 00              	callq	0x100007e34 <dyld_stub_binder+0x100007e34>
1000071bc: 49 89 c6                    	movq	%rax, %r14
1000071bf: e8 70 0c 00 00              	callq	0x100007e34 <dyld_stub_binder+0x100007e34>
1000071c4: 48 89 44 24 10              	movq	%rax, 16(%rsp)
1000071c9: 48 03 5c 24 18              	addq	24(%rsp), %rbx
1000071ce: 4d 01 ee                    	addq	%r13, %r14
1000071d1: e8 5e 0c 00 00              	callq	0x100007e34 <dyld_stub_binder+0x100007e34>
1000071d6: 49 89 c5                    	movq	%rax, %r13
1000071d9: e8 56 0c 00 00              	callq	0x100007e34 <dyld_stub_binder+0x100007e34>
1000071de: 48 89 44 24 18              	movq	%rax, 24(%rsp)
1000071e3: 48 03 5c 24 10              	addq	16(%rsp), %rbx
1000071e8: 4d 01 f5                    	addq	%r14, %r13
1000071eb: e8 44 0c 00 00              	callq	0x100007e34 <dyld_stub_binder+0x100007e34>
1000071f0: 49 89 c6                    	movq	%rax, %r14
1000071f3: e8 3c 0c 00 00              	callq	0x100007e34 <dyld_stub_binder+0x100007e34>
1000071f8: 48 89 44 24 10              	movq	%rax, 16(%rsp)
1000071fd: 48 03 5c 24 18              	addq	24(%rsp), %rbx
100007202: 4d 01 ee                    	addq	%r13, %r14
100007205: e8 2a 0c 00 00              	callq	0x100007e34 <dyld_stub_binder+0x100007e34>
10000720a: 49 89 c5                    	movq	%rax, %r13
10000720d: e8 22 0c 00 00              	callq	0x100007e34 <dyld_stub_binder+0x100007e34>
100007212: 48 89 44 24 18              	movq	%rax, 24(%rsp)
100007217: 48 03 5c 24 10              	addq	16(%rsp), %rbx
10000721c: 4d 01 f5                    	addq	%r14, %r13
10000721f: e8 10 0c 00 00              	callq	0x100007e34 <dyld_stub_binder+0x100007e34>
100007224: 49 89 c6                    	movq	%rax, %r14
100007227: e8 08 0c 00 00              	callq	0x100007e34 <dyld_stub_binder+0x100007e34>
10000722c: 48 03 5c 24 18              	addq	24(%rsp), %rbx
100007231: 4d 01 ee                    	addq	%r13, %r14
100007234: 4c 29 f3                    	subq	%r14, %rbx
100007237: 4c 8b 74 24 28              	movq	40(%rsp), %r14
10000723c: 48 01 c3                    	addq	%rax, %rbx
10000723f: 48 85 db                    	testq	%rbx, %rbx
100007242: 78 0c                       	js	0x100007250 <_main+0x1470>
100007244: c4 e1 ea 2a c3              	vcvtsi2ss	%rbx, %xmm2, %xmm0
100007249: eb 1a                       	jmp	0x100007265 <_main+0x1485>
10000724b: 0f 1f 44 00 00              	nopl	(%rax,%rax)
100007250: 48 89 d8                    	movq	%rbx, %rax
100007253: 48 d1 e8                    	shrq	%rax
100007256: 83 e3 01                    	andl	$1, %ebx
100007259: 48 09 c3                    	orq	%rax, %rbx
10000725c: c4 e1 ea 2a c3              	vcvtsi2ss	%rbx, %xmm2, %xmm0
100007261: c5 fa 58 c0                 	vaddss	%xmm0, %xmm0, %xmm0
100007265: c5 fa 10 0d db 0c 00 00     	vmovss	3291(%rip), %xmm1  # 100007f48 <_RUNS_PER_BENCH+0x64>
10000726d: c5 fa 59 c1                 	vmulss	%xmm1, %xmm0, %xmm0
100007271: c5 fa 5e c1                 	vdivss	%xmm1, %xmm0, %xmm0
100007275: c5 fa 5e 05 cf 0c 00 00     	vdivss	3279(%rip), %xmm0, %xmm0  # 100007f4c <_RUNS_PER_BENCH+0x68>
10000727d: c5 fa 5a c0                 	vcvtss2sd	%xmm0, %xmm0, %xmm0
100007281: 48 8d 3d c8 0c 00 00        	leaq	3272(%rip), %rdi  # 100007f50 <dyld_stub_binder+0x100007f50>
100007288: b0 01                       	movb	$1, %al
10000728a: e8 ab 0b 00 00              	callq	0x100007e3a <dyld_stub_binder+0x100007e3a>
10000728f: 83 7c 24 20 00              	cmpl	$0, 32(%rsp)
100007294: 0f 84 a6 00 00 00           	je	0x100007340 <_main+0x1560>
10000729a: 31 db                       	xorl	%ebx, %ebx
10000729c: 45 31 ed                    	xorl	%r13d, %r13d
10000729f: eb 48                       	jmp	0x1000072e9 <_main+0x1509>
1000072a1: 66 66 66 66 66 66 2e 0f 1f 84 00 00 00 00 00	nopw	%cs:(%rax,%rax)
1000072b0: e8 7f 0b 00 00              	callq	0x100007e34 <dyld_stub_binder+0x100007e34>
1000072b5: 49 89 c6                    	movq	%rax, %r14
1000072b8: 4c 89 e7                    	movq	%r12, %rdi
1000072bb: 31 f6                       	xorl	%esi, %esi
1000072bd: 48 8b 54 24 20              	movq	32(%rsp), %rdx
1000072c2: e8 c9 d5 ff ff              	callq	0x100004890 <_sort_merge_standard>
1000072c7: e8 68 0b 00 00              	callq	0x100007e34 <dyld_stub_binder+0x100007e34>
1000072cc: 48 8b 5c 24 10              	movq	16(%rsp), %rbx
1000072d1: 4c 29 f3                    	subq	%r14, %rbx
1000072d4: 4c 8b 74 24 28              	movq	40(%rsp), %r14
1000072d9: 48 01 c3                    	addq	%rax, %rbx
1000072dc: 41 ff c5                    	incl	%r13d
1000072df: 41 83 fd 32                 	cmpl	$50, %r13d
1000072e3: 0f 84 66 05 00 00           	je	0x10000784f <_main+0x1a6f>
1000072e9: 48 89 5c 24 10              	movq	%rbx, 16(%rsp)
1000072ee: 31 db                       	xorl	%ebx, %ebx
1000072f0: eb 2b                       	jmp	0x10000731d <_main+0x153d>
1000072f2: 66 66 66 66 66 2e 0f 1f 84 00 00 00 00 00   	nopw	%cs:(%rax,%rax)
100007300: 31 d2                       	xorl	%edx, %edx
100007302: 49 f7 f7                    	divq	%r15
100007305: 41 8b 04 94                 	movl	(%r12,%rdx,4), %eax
100007309: 41 8b 0c 9c                 	movl	(%r12,%rbx,4), %ecx
10000730d: 41 89 0c 94                 	movl	%ecx, (%r12,%rdx,4)
100007311: 41 89 04 9c                 	movl	%eax, (%r12,%rbx,4)
100007315: 48 ff c3                    	incq	%rbx
100007318: 49 39 de                    	cmpq	%rbx, %r14
10000731b: 74 93                       	je	0x1000072b0 <_main+0x14d0>
10000731d: e8 24 0b 00 00              	callq	0x100007e46 <dyld_stub_binder+0x100007e46>
100007322: 48 98                       	cltq
100007324: 48 01 d8                    	addq	%rbx, %rax
100007327: 48 89 c1                    	movq	%rax, %rcx
10000732a: 4c 09 f9                    	orq	%r15, %rcx
10000732d: 48 c1 e9 20                 	shrq	$32, %rcx
100007331: 75 cd                       	jne	0x100007300 <_main+0x1520>
100007333: 31 d2                       	xorl	%edx, %edx
100007335: 41 f7 f7                    	divl	%r15d
100007338: eb cb                       	jmp	0x100007305 <_main+0x1525>
10000733a: 66 0f 1f 44 00 00           	nopw	(%rax,%rax)
100007340: e8 ef 0a 00 00              	callq	0x100007e34 <dyld_stub_binder+0x100007e34>
100007345: 48 89 44 24 10              	movq	%rax, 16(%rsp)
10000734a: e8 e5 0a 00 00              	callq	0x100007e34 <dyld_stub_binder+0x100007e34>
10000734f: 48 89 44 24 18              	movq	%rax, 24(%rsp)
100007354: e8 db 0a 00 00              	callq	0x100007e34 <dyld_stub_binder+0x100007e34>
100007359: 49 89 c6                    	movq	%rax, %r14
10000735c: e8 d3 0a 00 00              	callq	0x100007e34 <dyld_stub_binder+0x100007e34>
100007361: 48 89 c3                    	movq	%rax, %rbx
100007364: e8 cb 0a 00 00              	callq	0x100007e34 <dyld_stub_binder+0x100007e34>
100007369: 49 89 c5                    	movq	%rax, %r13
10000736c: e8 c3 0a 00 00              	callq	0x100007e34 <dyld_stub_binder+0x100007e34>
100007371: 48 89 44 24 30              	movq	%rax, 48(%rsp)
100007376: 4d 01 f5                    	addq	%r14, %r13
100007379: 48 03 5c 24 18              	addq	24(%rsp), %rbx
10000737e: 4c 03 6c 24 10              	addq	16(%rsp), %r13
100007383: e8 ac 0a 00 00              	callq	0x100007e34 <dyld_stub_binder+0x100007e34>
100007388: 49 89 c6                    	movq	%rax, %r14
10000738b: e8 a4 0a 00 00              	callq	0x100007e34 <dyld_stub_binder+0x100007e34>
100007390: 48 89 44 24 10              	movq	%rax, 16(%rsp)
100007395: 48 03 5c 24 30              	addq	48(%rsp), %rbx
10000739a: 4d 01 ee                    	addq	%r13, %r14
10000739d: e8 92 0a 00 00              	callq	0x100007e34 <dyld_stub_binder+0x100007e34>
1000073a2: 49 89 c5                    	movq	%rax, %r13
1000073a5: e8 8a 0a 00 00              	callq	0x100007e34 <dyld_stub_binder+0x100007e34>
1000073aa: 48 89 44 24 18              	movq	%rax, 24(%rsp)
1000073af: 48 03 5c 24 10              	addq	16(%rsp), %rbx
1000073b4: 4d 01 f5                    	addq	%r14, %r13
1000073b7: e8 78 0a 00 00              	callq	0x100007e34 <dyld_stub_binder+0x100007e34>
1000073bc: 49 89 c6                    	movq	%rax, %r14
1000073bf: e8 70 0a 00 00              	callq	0x100007e34 <dyld_stub_binder+0x100007e34>
1000073c4: 48 89 44 24 10              	movq	%rax, 16(%rsp)
1000073c9: 48 03 5c 24 18              	addq	24(%rsp), %rbx
1000073ce: 4d 01 ee                    	addq	%r13, %r14
1000073d1: e8 5e 0a 00 00              	callq	0x100007e34 <dyld_stub_binder+0x100007e34>
1000073d6: 49 89 c5                    	movq	%rax, %r13
1000073d9: e8 56 0a 00 00              	callq	0x100007e34 <dyld_stub_binder+0x100007e34>
1000073de: 48 89 44 24 18              	movq	%rax, 24(%rsp)
1000073e3: 48 03 5c 24 10              	addq	16(%rsp), %rbx
1000073e8: 4d 01 f5                    	addq	%r14, %r13
1000073eb: e8 44 0a 00 00              	callq	0x100007e34 <dyld_stub_binder+0x100007e34>
1000073f0: 49 89 c6                    	movq	%rax, %r14
1000073f3: e8 3c 0a 00 00              	callq	0x100007e34 <dyld_stub_binder+0x100007e34>
1000073f8: 48 89 44 24 10              	movq	%rax, 16(%rsp)
1000073fd: 48 03 5c 24 18              	addq	24(%rsp), %rbx
100007402: 4d 01 ee                    	addq	%r13, %r14
100007405: e8 2a 0a 00 00              	callq	0x100007e34 <dyld_stub_binder+0x100007e34>
10000740a: 49 89 c5                    	movq	%rax, %r13
10000740d: e8 22 0a 00 00              	callq	0x100007e34 <dyld_stub_binder+0x100007e34>
100007412: 48 89 44 24 18              	movq	%rax, 24(%rsp)
100007417: 48 03 5c 24 10              	addq	16(%rsp), %rbx
10000741c: 4d 01 f5                    	addq	%r14, %r13
10000741f: e8 10 0a 00 00              	callq	0x100007e34 <dyld_stub_binder+0x100007e34>
100007424: 49 89 c6                    	movq	%rax, %r14
100007427: e8 08 0a 00 00              	callq	0x100007e34 <dyld_stub_binder+0x100007e34>
10000742c: 48 89 44 24 10              	movq	%rax, 16(%rsp)
100007431: 48 03 5c 24 18              	addq	24(%rsp), %rbx
100007436: 4d 01 ee                    	addq	%r13, %r14
100007439: e8 f6 09 00 00              	callq	0x100007e34 <dyld_stub_binder+0x100007e34>
10000743e: 49 89 c5                    	movq	%rax, %r13
100007441: e8 ee 09 00 00              	callq	0x100007e34 <dyld_stub_binder+0x100007e34>
100007446: 48 89 44 24 18              	movq	%rax, 24(%rsp)
10000744b: 48 03 5c 24 10              	addq	16(%rsp), %rbx
100007450: 4d 01 f5                    	addq	%r14, %r13
100007453: e8 dc 09 00 00              	callq	0x100007e34 <dyld_stub_binder+0x100007e34>
100007458: 49 89 c6                    	movq	%rax, %r14
10000745b: e8 d4 09 00 00              	callq	0x100007e34 <dyld_stub_binder+0x100007e34>
100007460: 48 89 44 24 10              	movq	%rax, 16(%rsp)
100007465: 48 03 5c 24 18              	addq	24(%rsp), %rbx
10000746a: 4d 01 ee                    	addq	%r13, %r14
10000746d: e8 c2 09 00 00              	callq	0x100007e34 <dyld_stub_binder+0x100007e34>
100007472: 49 89 c5                    	movq	%rax, %r13
100007475: e8 ba 09 00 00              	callq	0x100007e34 <dyld_stub_binder+0x100007e34>
10000747a: 48 89 44 24 18              	movq	%rax, 24(%rsp)
10000747f: 48 03 5c 24 10              	addq	16(%rsp), %rbx
100007484: 4d 01 f5                    	addq	%r14, %r13
100007487: e8 a8 09 00 00              	callq	0x100007e34 <dyld_stub_binder+0x100007e34>
10000748c: 49 89 c6                    	movq	%rax, %r14
10000748f: e8 a0 09 00 00              	callq	0x100007e34 <dyld_stub_binder+0x100007e34>
100007494: 48 89 44 24 10              	movq	%rax, 16(%rsp)
100007499: 48 03 5c 24 18              	addq	24(%rsp), %rbx
10000749e: 4d 01 ee                    	addq	%r13, %r14
1000074a1: e8 8e 09 00 00              	callq	0x100007e34 <dyld_stub_binder+0x100007e34>
1000074a6: 49 89 c5                    	movq	%rax, %r13
1000074a9: e8 86 09 00 00              	callq	0x100007e34 <dyld_stub_binder+0x100007e34>
1000074ae: 48 89 44 24 18              	movq	%rax, 24(%rsp)
1000074b3: 48 03 5c 24 10              	addq	16(%rsp), %rbx
1000074b8: 4d 01 f5                    	addq	%r14, %r13
1000074bb: e8 74 09 00 00              	callq	0x100007e34 <dyld_stub_binder+0x100007e34>
1000074c0: 49 89 c6                    	movq	%rax, %r14
1000074c3: e8 6c 09 00 00              	callq	0x100007e34 <dyld_stub_binder+0x100007e34>
1000074c8: 48 89 44 24 10              	movq	%rax, 16(%rsp)
1000074cd: 48 03 5c 24 18              	addq	24(%rsp), %rbx
1000074d2: 4d 01 ee                    	addq	%r13, %r14
1000074d5: e8 5a 09 00 00              	callq	0x100007e34 <dyld_stub_binder+0x100007e34>
1000074da: 49 89 c5                    	movq	%rax, %r13
1000074dd: e8 52 09 00 00              	callq	0x100007e34 <dyld_stub_binder+0x100007e34>
1000074e2: 48 89 44 24 18              	movq	%rax, 24(%rsp)
1000074e7: 48 03 5c 24 10              	addq	16(%rsp), %rbx
1000074ec: 4d 01 f5                    	addq	%r14, %r13
1000074ef: e8 40 09 00 00              	callq	0x100007e34 <dyld_stub_binder+0x100007e34>
1000074f4: 49 89 c6                    	movq	%rax, %r14
1000074f7: e8 38 09 00 00              	callq	0x100007e34 <dyld_stub_binder+0x100007e34>
1000074fc: 48 89 44 24 10              	movq	%rax, 16(%rsp)
100007501: 48 03 5c 24 18              	addq	24(%rsp), %rbx
100007506: 4d 01 ee                    	addq	%r13, %r14
100007509: e8 26 09 00 00              	callq	0x100007e34 <dyld_stub_binder+0x100007e34>
10000750e: 49 89 c5                    	movq	%rax, %r13
100007511: e8 1e 09 00 00              	callq	0x100007e34 <dyld_stub_binder+0x100007e34>
100007516: 48 89 44 24 18              	movq	%rax, 24(%rsp)
10000751b: 48 03 5c 24 10              	addq	16(%rsp), %rbx
100007520: 4d 01 f5                    	addq	%r14, %r13
100007523: e8 0c 09 00 00              	callq	0x100007e34 <dyld_stub_binder+0x100007e34>
100007528: 49 89 c6                    	movq	%rax, %r14
10000752b: e8 04 09 00 00              	callq	0x100007e34 <dyld_stub_binder+0x100007e34>
100007530: 48 89 44 24 10              	movq	%rax, 16(%rsp)
100007535: 48 03 5c 24 18              	addq	24(%rsp), %rbx
10000753a: 4d 01 ee                    	addq	%r13, %r14
10000753d: e8 f2 08 00 00              	callq	0x100007e34 <dyld_stub_binder+0x100007e34>
100007542: 49 89 c5                    	movq	%rax, %r13
100007545: e8 ea 08 00 00              	callq	0x100007e34 <dyld_stub_binder+0x100007e34>
10000754a: 48 89 44 24 18              	movq	%rax, 24(%rsp)
10000754f: 48 03 5c 24 10              	addq	16(%rsp), %rbx
100007554: 4d 01 f5                    	addq	%r14, %r13
100007557: e8 d8 08 00 00              	callq	0x100007e34 <dyld_stub_binder+0x100007e34>
10000755c: 49 89 c6                    	movq	%rax, %r14
10000755f: e8 d0 08 00 00              	callq	0x100007e34 <dyld_stub_binder+0x100007e34>
100007564: 48 89 44 24 10              	movq	%rax, 16(%rsp)
100007569: 48 03 5c 24 18              	addq	24(%rsp), %rbx
10000756e: 4d 01 ee                    	addq	%r13, %r14
100007571: e8 be 08 00 00              	callq	0x100007e34 <dyld_stub_binder+0x100007e34>
100007576: 49 89 c5                    	movq	%rax, %r13
100007579: e8 b6 08 00 00              	callq	0x100007e34 <dyld_stub_binder+0x100007e34>
10000757e: 48 89 44 24 18              	movq	%rax, 24(%rsp)
100007583: 48 03 5c 24 10              	addq	16(%rsp), %rbx
100007588: 4d 01 f5                    	addq	%r14, %r13
10000758b: e8 a4 08 00 00              	callq	0x100007e34 <dyld_stub_binder+0x100007e34>
100007590: 49 89 c6                    	movq	%rax, %r14
100007593: e8 9c 08 00 00              	callq	0x100007e34 <dyld_stub_binder+0x100007e34>
100007598: 48 89 44 24 10              	movq	%rax, 16(%rsp)
10000759d: 48 03 5c 24 18              	addq	24(%rsp), %rbx
1000075a2: 4d 01 ee                    	addq	%r13, %r14
1000075a5: e8 8a 08 00 00              	callq	0x100007e34 <dyld_stub_binder+0x100007e34>
1000075aa: 49 89 c5                    	movq	%rax, %r13
1000075ad: e8 82 08 00 00              	callq	0x100007e34 <dyld_stub_binder+0x100007e34>
1000075b2: 48 89 44 24 18              	movq	%rax, 24(%rsp)
1000075b7: 48 03 5c 24 10              	addq	16(%rsp), %rbx
1000075bc: 4d 01 f5                    	addq	%r14, %r13
1000075bf: e8 70 08 00 00              	callq	0x100007e34 <dyld_stub_binder+0x100007e34>
1000075c4: 49 89 c6                    	movq	%rax, %r14
1000075c7: e8 68 08 00 00              	callq	0x100007e34 <dyld_stub_binder+0x100007e34>
1000075cc: 48 89 44 24 10              	movq	%rax, 16(%rsp)
1000075d1: 48 03 5c 24 18              	addq	24(%rsp), %rbx
1000075d6: 4d 01 ee                    	addq	%r13, %r14
1000075d9: e8 56 08 00 00              	callq	0x100007e34 <dyld_stub_binder+0x100007e34>
1000075de: 49 89 c5                    	movq	%rax, %r13
1000075e1: e8 4e 08 00 00              	callq	0x100007e34 <dyld_stub_binder+0x100007e34>
1000075e6: 48 89 44 24 18              	movq	%rax, 24(%rsp)
1000075eb: 48 03 5c 24 10              	addq	16(%rsp), %rbx
1000075f0: 4d 01 f5                    	addq	%r14, %r13
1000075f3: e8 3c 08 00 00              	callq	0x100007e34 <dyld_stub_binder+0x100007e34>
1000075f8: 49 89 c6                    	movq	%rax, %r14
1000075fb: e8 34 08 00 00              	callq	0x100007e34 <dyld_stub_binder+0x100007e34>
100007600: 48 89 44 24 10              	movq	%rax, 16(%rsp)
100007605: 48 03 5c 24 18              	addq	24(%rsp), %rbx
10000760a: 4d 01 ee                    	addq	%r13, %r14
10000760d: e8 22 08 00 00              	callq	0x100007e34 <dyld_stub_binder+0x100007e34>
100007612: 49 89 c5                    	movq	%rax, %r13
100007615: e8 1a 08 00 00              	callq	0x100007e34 <dyld_stub_binder+0x100007e34>
10000761a: 48 89 44 24 18              	movq	%rax, 24(%rsp)
10000761f: 48 03 5c 24 10              	addq	16(%rsp), %rbx
100007624: 4d 01 f5                    	addq	%r14, %r13
100007627: e8 08 08 00 00              	callq	0x100007e34 <dyld_stub_binder+0x100007e34>
10000762c: 49 89 c6                    	movq	%rax, %r14
10000762f: e8 00 08 00 00              	callq	0x100007e34 <dyld_stub_binder+0x100007e34>
100007634: 48 89 44 24 10              	movq	%rax, 16(%rsp)
100007639: 48 03 5c 24 18              	addq	24(%rsp), %rbx
10000763e: 4d 01 ee                    	addq	%r13, %r14
100007641: e8 ee 07 00 00              	callq	0x100007e34 <dyld_stub_binder+0x100007e34>
100007646: 49 89 c5                    	movq	%rax, %r13
100007649: e8 e6 07 00 00              	callq	0x100007e34 <dyld_stub_binder+0x100007e34>
10000764e: 48 89 44 24 18              	movq	%rax, 24(%rsp)
100007653: 48 03 5c 24 10              	addq	16(%rsp), %rbx
100007658: 4d 01 f5                    	addq	%r14, %r13
10000765b: e8 d4 07 00 00              	callq	0x100007e34 <dyld_stub_binder+0x100007e34>
100007660: 49 89 c6                    	movq	%rax, %r14
100007663: e8 cc 07 00 00              	callq	0x100007e34 <dyld_stub_binder+0x100007e34>
100007668: 48 89 44 24 10              	movq	%rax, 16(%rsp)
10000766d: 48 03 5c 24 18              	addq	24(%rsp), %rbx
100007672: 4d 01 ee                    	addq	%r13, %r14
100007675: e8 ba 07 00 00              	callq	0x100007e34 <dyld_stub_binder+0x100007e34>
10000767a: 49 89 c5                    	movq	%rax, %r13
10000767d: e8 b2 07 00 00              	callq	0x100007e34 <dyld_stub_binder+0x100007e34>
100007682: 48 89 44 24 18              	movq	%rax, 24(%rsp)
100007687: 48 03 5c 24 10              	addq	16(%rsp), %rbx
10000768c: 4d 01 f5                    	addq	%r14, %r13
10000768f: e8 a0 07 00 00              	callq	0x100007e34 <dyld_stub_binder+0x100007e34>
100007694: 49 89 c6                    	movq	%rax, %r14
100007697: e8 98 07 00 00              	callq	0x100007e34 <dyld_stub_binder+0x100007e34>
10000769c: 48 89 44 24 10              	movq	%rax, 16(%rsp)
1000076a1: 48 03 5c 24 18              	addq	24(%rsp), %rbx
1000076a6: 4d 01 ee                    	addq	%r13, %r14
1000076a9: e8 86 07 00 00              	callq	0x100007e34 <dyld_stub_binder+0x100007e34>
1000076ae: 49 89 c5                    	movq	%rax, %r13
1000076b1: e8 7e 07 00 00              	callq	0x100007e34 <dyld_stub_binder+0x100007e34>
1000076b6: 48 89 44 24 18              	movq	%rax, 24(%rsp)
1000076bb: 48 03 5c 24 10              	addq	16(%rsp), %rbx
1000076c0: 4d 01 f5                    	addq	%r14, %r13
1000076c3: e8 6c 07 00 00              	callq	0x100007e34 <dyld_stub_binder+0x100007e34>
1000076c8: 49 89 c6                    	movq	%rax, %r14
1000076cb: e8 64 07 00 00              	callq	0x100007e34 <dyld_stub_binder+0x100007e34>
1000076d0: 48 89 44 24 10              	movq	%rax, 16(%rsp)
1000076d5: 48 03 5c 24 18              	addq	24(%rsp), %rbx
1000076da: 4d 01 ee                    	addq	%r13, %r14
1000076dd: e8 52 07 00 00              	callq	0x100007e34 <dyld_stub_binder+0x100007e34>
1000076e2: 49 89 c5                    	movq	%rax, %r13
1000076e5: e8 4a 07 00 00              	callq	0x100007e34 <dyld_stub_binder+0x100007e34>
1000076ea: 48 89 44 24 18              	movq	%rax, 24(%rsp)
1000076ef: 48 03 5c 24 10              	addq	16(%rsp), %rbx
1000076f4: 4d 01 f5                    	addq	%r14, %r13
1000076f7: e8 38 07 00 00              	callq	0x100007e34 <dyld_stub_binder+0x100007e34>
1000076fc: 49 89 c6                    	movq	%rax, %r14
1000076ff: e8 30 07 00 00              	callq	0x100007e34 <dyld_stub_binder+0x100007e34>
100007704: 48 89 44 24 10              	movq	%rax, 16(%rsp)
100007709: 48 03 5c 24 18              	addq	24(%rsp), %rbx
10000770e: 4d 01 ee                    	addq	%r13, %r14
100007711: e8 1e 07 00 00              	callq	0x100007e34 <dyld_stub_binder+0x100007e34>
100007716: 49 89 c5                    	movq	%rax, %r13
100007719: e8 16 07 00 00              	callq	0x100007e34 <dyld_stub_binder+0x100007e34>
10000771e: 48 89 44 24 18              	movq	%rax, 24(%rsp)
100007723: 48 03 5c 24 10              	addq	16(%rsp), %rbx
100007728: 4d 01 f5                    	addq	%r14, %r13
10000772b: e8 04 07 00 00              	callq	0x100007e34 <dyld_stub_binder+0x100007e34>
100007730: 49 89 c6                    	movq	%rax, %r14
100007733: e8 fc 06 00 00              	callq	0x100007e34 <dyld_stub_binder+0x100007e34>
100007738: 48 89 44 24 10              	movq	%rax, 16(%rsp)
10000773d: 48 03 5c 24 18              	addq	24(%rsp), %rbx
100007742: 4d 01 ee                    	addq	%r13, %r14
100007745: e8 ea 06 00 00              	callq	0x100007e34 <dyld_stub_binder+0x100007e34>
10000774a: 49 89 c5                    	movq	%rax, %r13
10000774d: e8 e2 06 00 00              	callq	0x100007e34 <dyld_stub_binder+0x100007e34>
100007752: 48 89 44 24 18              	movq	%rax, 24(%rsp)
100007757: 48 03 5c 24 10              	addq	16(%rsp), %rbx
10000775c: 4d 01 f5                    	addq	%r14, %r13
10000775f: e8 d0 06 00 00              	callq	0x100007e34 <dyld_stub_binder+0x100007e34>
100007764: 49 89 c6                    	movq	%rax, %r14
100007767: e8 c8 06 00 00              	callq	0x100007e34 <dyld_stub_binder+0x100007e34>
10000776c: 48 89 44 24 10              	movq	%rax, 16(%rsp)
100007771: 48 03 5c 24 18              	addq	24(%rsp), %rbx
100007776: 4d 01 ee                    	addq	%r13, %r14
100007779: e8 b6 06 00 00              	callq	0x100007e34 <dyld_stub_binder+0x100007e34>
10000777e: 49 89 c5                    	movq	%rax, %r13
100007781: e8 ae 06 00 00              	callq	0x100007e34 <dyld_stub_binder+0x100007e34>
100007786: 48 89 44 24 18              	movq	%rax, 24(%rsp)
10000778b: 48 03 5c 24 10              	addq	16(%rsp), %rbx
100007790: 4d 01 f5                    	addq	%r14, %r13
100007793: e8 9c 06 00 00              	callq	0x100007e34 <dyld_stub_binder+0x100007e34>
100007798: 49 89 c6                    	movq	%rax, %r14
10000779b: e8 94 06 00 00              	callq	0x100007e34 <dyld_stub_binder+0x100007e34>
1000077a0: 48 89 44 24 10              	movq	%rax, 16(%rsp)
1000077a5: 48 03 5c 24 18              	addq	24(%rsp), %rbx
1000077aa: 4d 01 ee                    	addq	%r13, %r14
1000077ad: e8 82 06 00 00              	callq	0x100007e34 <dyld_stub_binder+0x100007e34>
1000077b2: 49 89 c5                    	movq	%rax, %r13
1000077b5: e8 7a 06 00 00              	callq	0x100007e34 <dyld_stub_binder+0x100007e34>
1000077ba: 48 89 44 24 18              	movq	%rax, 24(%rsp)
1000077bf: 48 03 5c 24 10              	addq	16(%rsp), %rbx
1000077c4: 4d 01 f5                    	addq	%r14, %r13
1000077c7: e8 68 06 00 00              	callq	0x100007e34 <dyld_stub_binder+0x100007e34>
1000077cc: 49 89 c6                    	movq	%rax, %r14
1000077cf: e8 60 06 00 00              	callq	0x100007e34 <dyld_stub_binder+0x100007e34>
1000077d4: 48 89 44 24 10              	movq	%rax, 16(%rsp)
1000077d9: 48 03 5c 24 18              	addq	24(%rsp), %rbx
1000077de: 4d 01 ee                    	addq	%r13, %r14
1000077e1: e8 4e 06 00 00              	callq	0x100007e34 <dyld_stub_binder+0x100007e34>
1000077e6: 49 89 c5                    	movq	%rax, %r13
1000077e9: e8 46 06 00 00              	callq	0x100007e34 <dyld_stub_binder+0x100007e34>
1000077ee: 48 89 44 24 18              	movq	%rax, 24(%rsp)
1000077f3: 48 03 5c 24 10              	addq	16(%rsp), %rbx
1000077f8: 4d 01 f5                    	addq	%r14, %r13
1000077fb: e8 34 06 00 00              	callq	0x100007e34 <dyld_stub_binder+0x100007e34>
100007800: 49 89 c6                    	movq	%rax, %r14
100007803: e8 2c 06 00 00              	callq	0x100007e34 <dyld_stub_binder+0x100007e34>
100007808: 48 89 44 24 10              	movq	%rax, 16(%rsp)
10000780d: 48 03 5c 24 18              	addq	24(%rsp), %rbx
100007812: 4d 01 ee                    	addq	%r13, %r14
100007815: e8 1a 06 00 00              	callq	0x100007e34 <dyld_stub_binder+0x100007e34>
10000781a: 49 89 c5                    	movq	%rax, %r13
10000781d: e8 12 06 00 00              	callq	0x100007e34 <dyld_stub_binder+0x100007e34>
100007822: 48 89 44 24 18              	movq	%rax, 24(%rsp)
100007827: 48 03 5c 24 10              	addq	16(%rsp), %rbx
10000782c: 4d 01 f5                    	addq	%r14, %r13
10000782f: e8 00 06 00 00              	callq	0x100007e34 <dyld_stub_binder+0x100007e34>
100007834: 49 89 c6                    	movq	%rax, %r14
100007837: e8 f8 05 00 00              	callq	0x100007e34 <dyld_stub_binder+0x100007e34>
10000783c: 48 03 5c 24 18              	addq	24(%rsp), %rbx
100007841: 4d 01 ee                    	addq	%r13, %r14
100007844: 4c 29 f3                    	subq	%r14, %rbx
100007847: 4c 8b 74 24 28              	movq	40(%rsp), %r14
10000784c: 48 01 c3                    	addq	%rax, %rbx
10000784f: 48 85 db                    	testq	%rbx, %rbx
100007852: 78 0c                       	js	0x100007860 <_main+0x1a80>
100007854: c4 e1 ea 2a c3              	vcvtsi2ss	%rbx, %xmm2, %xmm0
100007859: eb 1a                       	jmp	0x100007875 <_main+0x1a95>
10000785b: 0f 1f 44 00 00              	nopl	(%rax,%rax)
100007860: 48 89 d8                    	movq	%rbx, %rax
100007863: 48 d1 e8                    	shrq	%rax
100007866: 83 e3 01                    	andl	$1, %ebx
100007869: 48 09 c3                    	orq	%rax, %rbx
10000786c: c4 e1 ea 2a c3              	vcvtsi2ss	%rbx, %xmm2, %xmm0
100007871: c5 fa 58 c0                 	vaddss	%xmm0, %xmm0, %xmm0
100007875: c5 fa 10 0d cb 06 00 00     	vmovss	1739(%rip), %xmm1  # 100007f48 <_RUNS_PER_BENCH+0x64>
10000787d: c5 fa 59 c1                 	vmulss	%xmm1, %xmm0, %xmm0
100007881: c5 fa 5e c1                 	vdivss	%xmm1, %xmm0, %xmm0
100007885: c5 fa 5e 05 bf 06 00 00     	vdivss	1727(%rip), %xmm0, %xmm0  # 100007f4c <_RUNS_PER_BENCH+0x68>
10000788d: c5 fa 5a c0                 	vcvtss2sd	%xmm0, %xmm0, %xmm0
100007891: 48 8d 3d b8 06 00 00        	leaq	1720(%rip), %rdi  # 100007f50 <dyld_stub_binder+0x100007f50>
100007898: b0 01                       	movb	$1, %al
10000789a: e8 9b 05 00 00              	callq	0x100007e3a <dyld_stub_binder+0x100007e3a>
10000789f: 83 7c 24 20 00              	cmpl	$0, 32(%rsp)
1000078a4: 0f 84 a6 00 00 00           	je	0x100007950 <_main+0x1b70>
1000078aa: 31 db                       	xorl	%ebx, %ebx
1000078ac: 45 31 ed                    	xorl	%r13d, %r13d
1000078af: eb 48                       	jmp	0x1000078f9 <_main+0x1b19>
1000078b1: 66 66 66 66 66 66 2e 0f 1f 84 00 00 00 00 00	nopw	%cs:(%rax,%rax)
1000078c0: e8 6f 05 00 00              	callq	0x100007e34 <dyld_stub_binder+0x100007e34>
1000078c5: 49 89 c6                    	movq	%rax, %r14
1000078c8: 4c 89 e7                    	movq	%r12, %rdi
1000078cb: 31 f6                       	xorl	%esi, %esi
1000078cd: 48 8b 54 24 20              	movq	32(%rsp), %rdx
1000078d2: e8 49 c6 ff ff              	callq	0x100003f20 <_sort_merge_optimized>
1000078d7: e8 58 05 00 00              	callq	0x100007e34 <dyld_stub_binder+0x100007e34>
1000078dc: 48 8b 5c 24 10              	movq	16(%rsp), %rbx
1000078e1: 4c 29 f3                    	subq	%r14, %rbx
1000078e4: 4c 8b 74 24 28              	movq	40(%rsp), %r14
1000078e9: 48 01 c3                    	addq	%rax, %rbx
1000078ec: 41 ff c5                    	incl	%r13d
1000078ef: 41 83 fd 32                 	cmpl	$50, %r13d
1000078f3: 0f 84 01 05 00 00           	je	0x100007dfa <_main+0x201a>
1000078f9: 48 89 5c 24 10              	movq	%rbx, 16(%rsp)
1000078fe: 31 db                       	xorl	%ebx, %ebx
100007900: eb 2b                       	jmp	0x10000792d <_main+0x1b4d>
100007902: 66 66 66 66 66 2e 0f 1f 84 00 00 00 00 00   	nopw	%cs:(%rax,%rax)
100007910: 31 d2                       	xorl	%edx, %edx
100007912: 49 f7 f7                    	divq	%r15
100007915: 41 8b 04 94                 	movl	(%r12,%rdx,4), %eax
100007919: 41 8b 0c 9c                 	movl	(%r12,%rbx,4), %ecx
10000791d: 41 89 0c 94                 	movl	%ecx, (%r12,%rdx,4)
100007921: 41 89 04 9c                 	movl	%eax, (%r12,%rbx,4)
100007925: 48 ff c3                    	incq	%rbx
100007928: 49 39 de                    	cmpq	%rbx, %r14
10000792b: 74 93                       	je	0x1000078c0 <_main+0x1ae0>
10000792d: e8 14 05 00 00              	callq	0x100007e46 <dyld_stub_binder+0x100007e46>
100007932: 48 98                       	cltq
100007934: 48 01 d8                    	addq	%rbx, %rax
100007937: 48 89 c1                    	movq	%rax, %rcx
10000793a: 4c 09 f9                    	orq	%r15, %rcx
10000793d: 48 c1 e9 20                 	shrq	$32, %rcx
100007941: 75 cd                       	jne	0x100007910 <_main+0x1b30>
100007943: 31 d2                       	xorl	%edx, %edx
100007945: 41 f7 f7                    	divl	%r15d
100007948: eb cb                       	jmp	0x100007915 <_main+0x1b35>
10000794a: 66 0f 1f 44 00 00           	nopw	(%rax,%rax)
100007950: e8 df 04 00 00              	callq	0x100007e34 <dyld_stub_binder+0x100007e34>
100007955: 49 89 c7                    	movq	%rax, %r15
100007958: e8 d7 04 00 00              	callq	0x100007e34 <dyld_stub_binder+0x100007e34>
10000795d: 48 89 44 24 20              	movq	%rax, 32(%rsp)
100007962: e8 cd 04 00 00              	callq	0x100007e34 <dyld_stub_binder+0x100007e34>
100007967: 49 89 c5                    	movq	%rax, %r13
10000796a: e8 c5 04 00 00              	callq	0x100007e34 <dyld_stub_binder+0x100007e34>
10000796f: 48 89 c3                    	movq	%rax, %rbx
100007972: e8 bd 04 00 00              	callq	0x100007e34 <dyld_stub_binder+0x100007e34>
100007977: 49 89 c6                    	movq	%rax, %r14
10000797a: e8 b5 04 00 00              	callq	0x100007e34 <dyld_stub_binder+0x100007e34>
10000797f: 48 89 44 24 28              	movq	%rax, 40(%rsp)
100007984: 4d 01 ee                    	addq	%r13, %r14
100007987: 48 03 5c 24 20              	addq	32(%rsp), %rbx
10000798c: 4d 01 fe                    	addq	%r15, %r14
10000798f: e8 a0 04 00 00              	callq	0x100007e34 <dyld_stub_binder+0x100007e34>
100007994: 49 89 c5                    	movq	%rax, %r13
100007997: e8 98 04 00 00              	callq	0x100007e34 <dyld_stub_binder+0x100007e34>
10000799c: 49 89 c7                    	movq	%rax, %r15
10000799f: 48 03 5c 24 28              	addq	40(%rsp), %rbx
1000079a4: 4d 01 f5                    	addq	%r14, %r13
1000079a7: e8 88 04 00 00              	callq	0x100007e34 <dyld_stub_binder+0x100007e34>
1000079ac: 49 89 c6                    	movq	%rax, %r14
1000079af: e8 80 04 00 00              	callq	0x100007e34 <dyld_stub_binder+0x100007e34>
1000079b4: 48 89 44 24 20              	movq	%rax, 32(%rsp)
1000079b9: 4c 01 fb                    	addq	%r15, %rbx
1000079bc: 4d 01 ee                    	addq	%r13, %r14
1000079bf: e8 70 04 00 00              	callq	0x100007e34 <dyld_stub_binder+0x100007e34>
1000079c4: 49 89 c7                    	movq	%rax, %r15
1000079c7: e8 68 04 00 00              	callq	0x100007e34 <dyld_stub_binder+0x100007e34>
1000079cc: 49 89 c5                    	movq	%rax, %r13
1000079cf: 48 03 5c 24 20              	addq	32(%rsp), %rbx
1000079d4: 4d 01 f7                    	addq	%r14, %r15
1000079d7: e8 58 04 00 00              	callq	0x100007e34 <dyld_stub_binder+0x100007e34>
1000079dc: 49 89 c6                    	movq	%rax, %r14
1000079df: e8 50 04 00 00              	callq	0x100007e34 <dyld_stub_binder+0x100007e34>
1000079e4: 48 89 44 24 20              	movq	%rax, 32(%rsp)
1000079e9: 4c 01 eb                    	addq	%r13, %rbx
1000079ec: 4d 01 fe                    	addq	%r15, %r14
1000079ef: e8 40 04 00 00              	callq	0x100007e34 <dyld_stub_binder+0x100007e34>
1000079f4: 49 89 c7                    	movq	%rax, %r15
1000079f7: e8 38 04 00 00              	callq	0x100007e34 <dyld_stub_binder+0x100007e34>
1000079fc: 49 89 c5                    	movq	%rax, %r13
1000079ff: 48 03 5c 24 20              	addq	32(%rsp), %rbx
100007a04: 4d 01 f7                    	addq	%r14, %r15
100007a07: e8 28 04 00 00              	callq	0x100007e34 <dyld_stub_binder+0x100007e34>
100007a0c: 49 89 c6                    	movq	%rax, %r14
100007a0f: e8 20 04 00 00              	callq	0x100007e34 <dyld_stub_binder+0x100007e34>
100007a14: 48 89 44 24 20              	movq	%rax, 32(%rsp)
100007a19: 4c 01 eb                    	addq	%r13, %rbx
100007a1c: 4d 01 fe                    	addq	%r15, %r14
100007a1f: e8 10 04 00 00              	callq	0x100007e34 <dyld_stub_binder+0x100007e34>
100007a24: 49 89 c7                    	movq	%rax, %r15
100007a27: e8 08 04 00 00              	callq	0x100007e34 <dyld_stub_binder+0x100007e34>
100007a2c: 49 89 c5                    	movq	%rax, %r13
100007a2f: 48 03 5c 24 20              	addq	32(%rsp), %rbx
100007a34: 4d 01 f7                    	addq	%r14, %r15
100007a37: e8 f8 03 00 00              	callq	0x100007e34 <dyld_stub_binder+0x100007e34>
100007a3c: 49 89 c6                    	movq	%rax, %r14
100007a3f: e8 f0 03 00 00              	callq	0x100007e34 <dyld_stub_binder+0x100007e34>
100007a44: 48 89 44 24 20              	movq	%rax, 32(%rsp)
100007a49: 4c 01 eb                    	addq	%r13, %rbx
100007a4c: 4d 01 fe                    	addq	%r15, %r14
100007a4f: e8 e0 03 00 00              	callq	0x100007e34 <dyld_stub_binder+0x100007e34>
100007a54: 49 89 c7                    	movq	%rax, %r15
100007a57: e8 d8 03 00 00              	callq	0x100007e34 <dyld_stub_binder+0x100007e34>
100007a5c: 49 89 c5                    	movq	%rax, %r13
100007a5f: 48 03 5c 24 20              	addq	32(%rsp), %rbx
100007a64: 4d 01 f7                    	addq	%r14, %r15
100007a67: e8 c8 03 00 00              	callq	0x100007e34 <dyld_stub_binder+0x100007e34>
100007a6c: 49 89 c6                    	movq	%rax, %r14
100007a6f: e8 c0 03 00 00              	callq	0x100007e34 <dyld_stub_binder+0x100007e34>
100007a74: 48 89 44 24 20              	movq	%rax, 32(%rsp)
100007a79: 4c 01 eb                    	addq	%r13, %rbx
100007a7c: 4d 01 fe                    	addq	%r15, %r14
100007a7f: e8 b0 03 00 00              	callq	0x100007e34 <dyld_stub_binder+0x100007e34>
100007a84: 49 89 c7                    	movq	%rax, %r15
100007a87: e8 a8 03 00 00              	callq	0x100007e34 <dyld_stub_binder+0x100007e34>
100007a8c: 49 89 c5                    	movq	%rax, %r13
100007a8f: 48 03 5c 24 20              	addq	32(%rsp), %rbx
100007a94: 4d 01 f7                    	addq	%r14, %r15
100007a97: e8 98 03 00 00              	callq	0x100007e34 <dyld_stub_binder+0x100007e34>
100007a9c: 49 89 c6                    	movq	%rax, %r14
100007a9f: e8 90 03 00 00              	callq	0x100007e34 <dyld_stub_binder+0x100007e34>
100007aa4: 48 89 44 24 20              	movq	%rax, 32(%rsp)
100007aa9: 4c 01 eb                    	addq	%r13, %rbx
100007aac: 4d 01 fe                    	addq	%r15, %r14
100007aaf: e8 80 03 00 00              	callq	0x100007e34 <dyld_stub_binder+0x100007e34>
100007ab4: 49 89 c7                    	movq	%rax, %r15
100007ab7: e8 78 03 00 00              	callq	0x100007e34 <dyld_stub_binder+0x100007e34>
100007abc: 49 89 c5                    	movq	%rax, %r13
100007abf: 48 03 5c 24 20              	addq	32(%rsp), %rbx
100007ac4: 4d 01 f7                    	addq	%r14, %r15
100007ac7: e8 68 03 00 00              	callq	0x100007e34 <dyld_stub_binder+0x100007e34>
100007acc: 49 89 c6                    	movq	%rax, %r14
100007acf: e8 60 03 00 00              	callq	0x100007e34 <dyld_stub_binder+0x100007e34>
100007ad4: 48 89 44 24 20              	movq	%rax, 32(%rsp)
100007ad9: 4c 01 eb                    	addq	%r13, %rbx
100007adc: 4d 01 fe                    	addq	%r15, %r14
100007adf: e8 50 03 00 00              	callq	0x100007e34 <dyld_stub_binder+0x100007e34>
100007ae4: 49 89 c7                    	movq	%rax, %r15
100007ae7: e8 48 03 00 00              	callq	0x100007e34 <dyld_stub_binder+0x100007e34>
100007aec: 49 89 c5                    	movq	%rax, %r13
100007aef: 48 03 5c 24 20              	addq	32(%rsp), %rbx
100007af4: 4d 01 f7                    	addq	%r14, %r15
100007af7: e8 38 03 00 00              	callq	0x100007e34 <dyld_stub_binder+0x100007e34>
100007afc: 49 89 c6                    	movq	%rax, %r14
100007aff: e8 30 03 00 00              	callq	0x100007e34 <dyld_stub_binder+0x100007e34>
100007b04: 48 89 44 24 20              	movq	%rax, 32(%rsp)
100007b09: 4c 01 eb                    	addq	%r13, %rbx
100007b0c: 4d 01 fe                    	addq	%r15, %r14
100007b0f: e8 20 03 00 00              	callq	0x100007e34 <dyld_stub_binder+0x100007e34>
100007b14: 49 89 c7                    	movq	%rax, %r15
100007b17: e8 18 03 00 00              	callq	0x100007e34 <dyld_stub_binder+0x100007e34>
100007b1c: 49 89 c5                    	movq	%rax, %r13
100007b1f: 48 03 5c 24 20              	addq	32(%rsp), %rbx
100007b24: 4d 01 f7                    	addq	%r14, %r15
100007b27: e8 08 03 00 00              	callq	0x100007e34 <dyld_stub_binder+0x100007e34>
100007b2c: 49 89 c6                    	movq	%rax, %r14
100007b2f: e8 00 03 00 00              	callq	0x100007e34 <dyld_stub_binder+0x100007e34>
100007b34: 48 89 44 24 20              	movq	%rax, 32(%rsp)
100007b39: 4c 01 eb                    	addq	%r13, %rbx
100007b3c: 4d 01 fe                    	addq	%r15, %r14
100007b3f: e8 f0 02 00 00              	callq	0x100007e34 <dyld_stub_binder+0x100007e34>
100007b44: 49 89 c7                    	movq	%rax, %r15
100007b47: e8 e8 02 00 00              	callq	0x100007e34 <dyld_stub_binder+0x100007e34>
100007b4c: 49 89 c5                    	movq	%rax, %r13
100007b4f: 48 03 5c 24 20              	addq	32(%rsp), %rbx
100007b54: 4d 01 f7                    	addq	%r14, %r15
100007b57: e8 d8 02 00 00              	callq	0x100007e34 <dyld_stub_binder+0x100007e34>
100007b5c: 49 89 c6                    	movq	%rax, %r14
100007b5f: e8 d0 02 00 00              	callq	0x100007e34 <dyld_stub_binder+0x100007e34>
100007b64: 48 89 44 24 20              	movq	%rax, 32(%rsp)
100007b69: 4c 01 eb                    	addq	%r13, %rbx
100007b6c: 4d 01 fe                    	addq	%r15, %r14
100007b6f: e8 c0 02 00 00              	callq	0x100007e34 <dyld_stub_binder+0x100007e34>
100007b74: 49 89 c7                    	movq	%rax, %r15
100007b77: e8 b8 02 00 00              	callq	0x100007e34 <dyld_stub_binder+0x100007e34>
100007b7c: 49 89 c5                    	movq	%rax, %r13
100007b7f: 48 03 5c 24 20              	addq	32(%rsp), %rbx
100007b84: 4d 01 f7                    	addq	%r14, %r15
100007b87: e8 a8 02 00 00              	callq	0x100007e34 <dyld_stub_binder+0x100007e34>
100007b8c: 49 89 c6                    	movq	%rax, %r14
100007b8f: e8 a0 02 00 00              	callq	0x100007e34 <dyld_stub_binder+0x100007e34>
100007b94: 48 89 44 24 20              	movq	%rax, 32(%rsp)
100007b99: 4c 01 eb                    	addq	%r13, %rbx
100007b9c: 4d 01 fe                    	addq	%r15, %r14
100007b9f: e8 90 02 00 00              	callq	0x100007e34 <dyld_stub_binder+0x100007e34>
100007ba4: 49 89 c7                    	movq	%rax, %r15
100007ba7: e8 88 02 00 00              	callq	0x100007e34 <dyld_stub_binder+0x100007e34>
100007bac: 49 89 c5                    	movq	%rax, %r13
100007baf: 48 03 5c 24 20              	addq	32(%rsp), %rbx
100007bb4: 4d 01 f7                    	addq	%r14, %r15
100007bb7: e8 78 02 00 00              	callq	0x100007e34 <dyld_stub_binder+0x100007e34>
100007bbc: 49 89 c6                    	movq	%rax, %r14
100007bbf: e8 70 02 00 00              	callq	0x100007e34 <dyld_stub_binder+0x100007e34>
100007bc4: 48 89 44 24 20              	movq	%rax, 32(%rsp)
100007bc9: 4c 01 eb                    	addq	%r13, %rbx
100007bcc: 4d 01 fe                    	addq	%r15, %r14
100007bcf: e8 60 02 00 00              	callq	0x100007e34 <dyld_stub_binder+0x100007e34>
100007bd4: 49 89 c7                    	movq	%rax, %r15
100007bd7: e8 58 02 00 00              	callq	0x100007e34 <dyld_stub_binder+0x100007e34>
100007bdc: 49 89 c5                    	movq	%rax, %r13
100007bdf: 48 03 5c 24 20              	addq	32(%rsp), %rbx
100007be4: 4d 01 f7                    	addq	%r14, %r15
100007be7: e8 48 02 00 00              	callq	0x100007e34 <dyld_stub_binder+0x100007e34>
100007bec: 49 89 c6                    	movq	%rax, %r14
100007bef: e8 40 02 00 00              	callq	0x100007e34 <dyld_stub_binder+0x100007e34>
100007bf4: 48 89 44 24 20              	movq	%rax, 32(%rsp)
100007bf9: 4c 01 eb                    	addq	%r13, %rbx
100007bfc: 4d 01 fe                    	addq	%r15, %r14
100007bff: e8 30 02 00 00              	callq	0x100007e34 <dyld_stub_binder+0x100007e34>
100007c04: 49 89 c7                    	movq	%rax, %r15
100007c07: e8 28 02 00 00              	callq	0x100007e34 <dyld_stub_binder+0x100007e34>
100007c0c: 49 89 c5                    	movq	%rax, %r13
100007c0f: 48 03 5c 24 20              	addq	32(%rsp), %rbx
100007c14: 4d 01 f7                    	addq	%r14, %r15
100007c17: e8 18 02 00 00              	callq	0x100007e34 <dyld_stub_binder+0x100007e34>
100007c1c: 49 89 c6                    	movq	%rax, %r14
100007c1f: e8 10 02 00 00              	callq	0x100007e34 <dyld_stub_binder+0x100007e34>
100007c24: 48 89 44 24 20              	movq	%rax, 32(%rsp)
100007c29: 4c 01 eb                    	addq	%r13, %rbx
100007c2c: 4d 01 fe                    	addq	%r15, %r14
100007c2f: e8 00 02 00 00              	callq	0x100007e34 <dyld_stub_binder+0x100007e34>
100007c34: 49 89 c7                    	movq	%rax, %r15
100007c37: e8 f8 01 00 00              	callq	0x100007e34 <dyld_stub_binder+0x100007e34>
100007c3c: 49 89 c5                    	movq	%rax, %r13
100007c3f: 48 03 5c 24 20              	addq	32(%rsp), %rbx
100007c44: 4d 01 f7                    	addq	%r14, %r15
100007c47: e8 e8 01 00 00              	callq	0x100007e34 <dyld_stub_binder+0x100007e34>
100007c4c: 49 89 c6                    	movq	%rax, %r14
100007c4f: e8 e0 01 00 00              	callq	0x100007e34 <dyld_stub_binder+0x100007e34>
100007c54: 48 89 44 24 20              	movq	%rax, 32(%rsp)
100007c59: 4c 01 eb                    	addq	%r13, %rbx
100007c5c: 4d 01 fe                    	addq	%r15, %r14
100007c5f: e8 d0 01 00 00              	callq	0x100007e34 <dyld_stub_binder+0x100007e34>
100007c64: 49 89 c7                    	movq	%rax, %r15
100007c67: e8 c8 01 00 00              	callq	0x100007e34 <dyld_stub_binder+0x100007e34>
100007c6c: 49 89 c5                    	movq	%rax, %r13
100007c6f: 48 03 5c 24 20              	addq	32(%rsp), %rbx
100007c74: 4d 01 f7                    	addq	%r14, %r15
100007c77: e8 b8 01 00 00              	callq	0x100007e34 <dyld_stub_binder+0x100007e34>
100007c7c: 49 89 c6                    	movq	%rax, %r14
100007c7f: e8 b0 01 00 00              	callq	0x100007e34 <dyld_stub_binder+0x100007e34>
100007c84: 48 89 44 24 20              	movq	%rax, 32(%rsp)
100007c89: 4c 01 eb                    	addq	%r13, %rbx
100007c8c: 4d 01 fe                    	addq	%r15, %r14
100007c8f: e8 a0 01 00 00              	callq	0x100007e34 <dyld_stub_binder+0x100007e34>
100007c94: 49 89 c7                    	movq	%rax, %r15
100007c97: e8 98 01 00 00              	callq	0x100007e34 <dyld_stub_binder+0x100007e34>
100007c9c: 49 89 c5                    	movq	%rax, %r13
100007c9f: 48 03 5c 24 20              	addq	32(%rsp), %rbx
100007ca4: 4d 01 f7                    	addq	%r14, %r15
100007ca7: e8 88 01 00 00              	callq	0x100007e34 <dyld_stub_binder+0x100007e34>
100007cac: 49 89 c6                    	movq	%rax, %r14
100007caf: e8 80 01 00 00              	callq	0x100007e34 <dyld_stub_binder+0x100007e34>
100007cb4: 48 89 44 24 20              	movq	%rax, 32(%rsp)
100007cb9: 4c 01 eb                    	addq	%r13, %rbx
100007cbc: 4d 01 fe                    	addq	%r15, %r14
100007cbf: e8 70 01 00 00              	callq	0x100007e34 <dyld_stub_binder+0x100007e34>
100007cc4: 49 89 c7                    	movq	%rax, %r15
100007cc7: e8 68 01 00 00              	callq	0x100007e34 <dyld_stub_binder+0x100007e34>
100007ccc: 49 89 c5                    	movq	%rax, %r13
100007ccf: 48 03 5c 24 20              	addq	32(%rsp), %rbx
100007cd4: 4d 01 f7                    	addq	%r14, %r15
100007cd7: e8 58 01 00 00              	callq	0x100007e34 <dyld_stub_binder+0x100007e34>
100007cdc: 49 89 c6                    	movq	%rax, %r14
100007cdf: e8 50 01 00 00              	callq	0x100007e34 <dyld_stub_binder+0x100007e34>
100007ce4: 48 89 44 24 20              	movq	%rax, 32(%rsp)
100007ce9: 4c 01 eb                    	addq	%r13, %rbx
100007cec: 4d 01 fe                    	addq	%r15, %r14
100007cef: e8 40 01 00 00              	callq	0x100007e34 <dyld_stub_binder+0x100007e34>
100007cf4: 49 89 c7                    	movq	%rax, %r15
100007cf7: e8 38 01 00 00              	callq	0x100007e34 <dyld_stub_binder+0x100007e34>
100007cfc: 49 89 c5                    	movq	%rax, %r13
100007cff: 48 03 5c 24 20              	addq	32(%rsp), %rbx
100007d04: 4d 01 f7                    	addq	%r14, %r15
100007d07: e8 28 01 00 00              	callq	0x100007e34 <dyld_stub_binder+0x100007e34>
100007d0c: 49 89 c6                    	movq	%rax, %r14
100007d0f: e8 20 01 00 00              	callq	0x100007e34 <dyld_stub_binder+0x100007e34>
100007d14: 48 89 44 24 20              	movq	%rax, 32(%rsp)
100007d19: 4c 01 eb                    	addq	%r13, %rbx
100007d1c: 4d 01 fe                    	addq	%r15, %r14
100007d1f: e8 10 01 00 00              	callq	0x100007e34 <dyld_stub_binder+0x100007e34>
100007d24: 49 89 c7                    	movq	%rax, %r15
100007d27: e8 08 01 00 00              	callq	0x100007e34 <dyld_stub_binder+0x100007e34>
100007d2c: 49 89 c5                    	movq	%rax, %r13
100007d2f: 48 03 5c 24 20              	addq	32(%rsp), %rbx
100007d34: 4d 01 f7                    	addq	%r14, %r15
100007d37: e8 f8 00 00 00              	callq	0x100007e34 <dyld_stub_binder+0x100007e34>
100007d3c: 49 89 c6                    	movq	%rax, %r14
100007d3f: e8 f0 00 00 00              	callq	0x100007e34 <dyld_stub_binder+0x100007e34>
100007d44: 48 89 44 24 20              	movq	%rax, 32(%rsp)
100007d49: 4c 01 eb                    	addq	%r13, %rbx
100007d4c: 4d 01 fe                    	addq	%r15, %r14
100007d4f: e8 e0 00 00 00              	callq	0x100007e34 <dyld_stub_binder+0x100007e34>
100007d54: 49 89 c7                    	movq	%rax, %r15
100007d57: e8 d8 00 00 00              	callq	0x100007e34 <dyld_stub_binder+0x100007e34>
100007d5c: 49 89 c5                    	movq	%rax, %r13
100007d5f: 48 03 5c 24 20              	addq	32(%rsp), %rbx
100007d64: 4d 01 f7                    	addq	%r14, %r15
100007d67: e8 c8 00 00 00              	callq	0x100007e34 <dyld_stub_binder+0x100007e34>
100007d6c: 49 89 c6                    	movq	%rax, %r14
100007d6f: e8 c0 00 00 00              	callq	0x100007e34 <dyld_stub_binder+0x100007e34>
100007d74: 48 89 44 24 20              	movq	%rax, 32(%rsp)
100007d79: 4c 01 eb                    	addq	%r13, %rbx
100007d7c: 4d 01 fe                    	addq	%r15, %r14
100007d7f: e8 b0 00 00 00              	callq	0x100007e34 <dyld_stub_binder+0x100007e34>
100007d84: 49 89 c7                    	movq	%rax, %r15
100007d87: e8 a8 00 00 00              	callq	0x100007e34 <dyld_stub_binder+0x100007e34>
100007d8c: 49 89 c5                    	movq	%rax, %r13
100007d8f: 48 03 5c 24 20              	addq	32(%rsp), %rbx
100007d94: 4d 01 f7                    	addq	%r14, %r15
100007d97: e8 98 00 00 00              	callq	0x100007e34 <dyld_stub_binder+0x100007e34>
100007d9c: 49 89 c6                    	movq	%rax, %r14
100007d9f: e8 90 00 00 00              	callq	0x100007e34 <dyld_stub_binder+0x100007e34>
100007da4: 48 89 44 24 20              	movq	%rax, 32(%rsp)
100007da9: 4c 01 eb                    	addq	%r13, %rbx
100007dac: 4d 01 fe                    	addq	%r15, %r14
100007daf: e8 80 00 00 00              	callq	0x100007e34 <dyld_stub_binder+0x100007e34>
100007db4: 49 89 c7                    	movq	%rax, %r15
100007db7: e8 78 00 00 00              	callq	0x100007e34 <dyld_stub_binder+0x100007e34>
100007dbc: 49 89 c5                    	movq	%rax, %r13
100007dbf: 48 03 5c 24 20              	addq	32(%rsp), %rbx
100007dc4: 4d 01 f7                    	addq	%r14, %r15
100007dc7: e8 68 00 00 00              	callq	0x100007e34 <dyld_stub_binder+0x100007e34>
100007dcc: 49 89 c6                    	movq	%rax, %r14
100007dcf: e8 60 00 00 00              	callq	0x100007e34 <dyld_stub_binder+0x100007e34>
100007dd4: 48 89 44 24 20              	movq	%rax, 32(%rsp)
100007dd9: 4c 01 eb                    	addq	%r13, %rbx
100007ddc: 4d 01 fe                    	addq	%r15, %r14
100007ddf: e8 50 00 00 00              	callq	0x100007e34 <dyld_stub_binder+0x100007e34>
100007de4: 49 89 c7                    	movq	%rax, %r15
100007de7: e8 48 00 00 00              	callq	0x100007e34 <dyld_stub_binder+0x100007e34>
100007dec: 48 03 5c 24 20              	addq	32(%rsp), %rbx
100007df1: 4d 01 f7                    	addq	%r14, %r15
100007df4: 4c 29 fb                    	subq	%r15, %rbx
100007df7: 48 01 c3                    	addq	%rax, %rbx
100007dfa: 48 85 db                    	testq	%rbx, %rbx
100007dfd: 0f 89 1d e1 ff ff           	jns	0x100005f20 <_main+0x140>
100007e03: 48 89 d8                    	movq	%rbx, %rax
100007e06: 48 d1 e8                    	shrq	%rax
100007e09: 83 e3 01                    	andl	$1, %ebx
100007e0c: 48 09 c3                    	orq	%rax, %rbx
100007e0f: c4 e1 ea 2a c3              	vcvtsi2ss	%rbx, %xmm2, %xmm0
100007e14: c5 fa 58 c0                 	vaddss	%xmm0, %xmm0, %xmm0
100007e18: e9 08 e1 ff ff              	jmp	0x100005f25 <_main+0x145>
100007e1d: 31 c0                       	xorl	%eax, %eax
100007e1f: 48 8d 65 d8                 	leaq	-40(%rbp), %rsp
100007e23: 5b                          	popq	%rbx
100007e24: 41 5c                       	popq	%r12
100007e26: 41 5d                       	popq	%r13
100007e28: 41 5e                       	popq	%r14
100007e2a: 41 5f                       	popq	%r15
100007e2c: 5d                          	popq	%rbp
100007e2d: c3                          	retq

Disassembly of section __TEXT,__stubs:

0000000100007e2e <__stubs>:
100007e2e: ff 25 cc 41 00 00           	jmpq	*16844(%rip)  # 10000c000 <dyld_stub_binder+0x10000c000>
100007e34: ff 25 ce 41 00 00           	jmpq	*16846(%rip)  # 10000c008 <dyld_stub_binder+0x10000c008>
100007e3a: ff 25 d0 41 00 00           	jmpq	*16848(%rip)  # 10000c010 <dyld_stub_binder+0x10000c010>
100007e40: ff 25 d2 41 00 00           	jmpq	*16850(%rip)  # 10000c018 <dyld_stub_binder+0x10000c018>
100007e46: ff 25 d4 41 00 00           	jmpq	*16852(%rip)  # 10000c020 <dyld_stub_binder+0x10000c020>
100007e4c: ff 25 d6 41 00 00           	jmpq	*16854(%rip)  # 10000c028 <dyld_stub_binder+0x10000c028>

Disassembly of section __TEXT,__stub_helper:

0000000100007e54 <__stub_helper>:
100007e54: 4c 8d 1d d5 41 00 00        	leaq	16853(%rip), %r11  # 10000c030 <__dyld_private>
100007e5b: 41 53                       	pushq	%r11
100007e5d: ff 25 ad 01 00 00           	jmpq	*429(%rip)  # 100008010 <dyld_stub_binder+0x100008010>
100007e63: 90                          	nop
100007e64: 68 00 00 00 00              	pushq	$0
100007e69: e9 e6 ff ff ff              	jmp	0x100007e54 <__stub_helper>
100007e6e: 68 18 00 00 00              	pushq	$24
100007e73: e9 dc ff ff ff              	jmp	0x100007e54 <__stub_helper>
100007e78: 68 25 00 00 00              	pushq	$37
100007e7d: e9 d2 ff ff ff              	jmp	0x100007e54 <__stub_helper>
100007e82: 68 33 00 00 00              	pushq	$51
100007e87: e9 c8 ff ff ff              	jmp	0x100007e54 <__stub_helper>
100007e8c: 68 42 00 00 00              	pushq	$66
100007e91: e9 be ff ff ff              	jmp	0x100007e54 <__stub_helper>
100007e96: 68 4e 00 00 00              	pushq	$78
100007e9b: e9 b4 ff ff ff              	jmp	0x100007e54 <__stub_helper>
